ccollections
defaultdict
p0
(c__builtin__
set
p1
tp2
Rp3
S'megazonecorpdbahostingkr'
p4
g1
((lp5
S'whois.hosting.kr'
p6
atp7
Rp8
sS'snappyregistrarcomllc'
p9
g1
((lp10
S'whois.snappyregistrar.com'
p11
aS'whois.web.com'
p12
atp13
Rp14
sS'skykomishdomainscomllc'
p15
g1
((lp16
S'whois.web.com'
p17
aS'whois.skykomishdomains.com'
p18
atp19
Rp20
sS'domainthenetcom'
p21
g1
((lp22
S'whois.domainthenet.com'
p23
atp24
Rp25
sS'cloudorchidllc'
p26
g1
((lp27
S'whois.22.cn'
p28
atp29
Rp30
sS'dropcatchcom931llc'
p31
g1
((lp32
S'whois.namebright.com'
p33
atp34
Rp35
sS'catalogcominc'
p36
g1
((lp37
S'whois.catalog.com'
p38
atp39
Rp40
sS'aerotekbilisimtaahutsanayiveticaretltdsti'
p41
g1
((lp42
S'whois.aerotek.com.tr'
p43
atp44
Rp45
sS'dropcatchcom825llc'
p46
g1
((lp47
S'whois.namebright.com'
p48
atp49
Rp50
sS'dropcatchcom1033llc'
p51
g1
((lp52
S'whois.namebright.com'
p53
atp54
Rp55
sS'csccorporatedomainsinc'
p56
g1
((lp57
S'whois.corporatedomains.com'
p58
atp59
Rp60
sS'vonguyengiapllc'
p61
g1
((lp62
S'whois.pheenix.com'
p63
atp64
Rp65
sS'dropcatchcom427llc'
p66
g1
((lp67
S'whois.namebright.com'
p68
atp69
Rp70
sS'dropcatchcom414llc'
p71
g1
((lp72
S'whois.namebright.com'
p73
atp74
Rp75
sS'koreaserverhostinginc'
p76
g1
((lp77
S'whois.ksdom.kr'
p78
atp79
Rp80
sS'netlogisticsptyltd'
p81
g1
((lp82
S'whois.netlogistics.com.au'
p83
atp84
Rp85
sS'bigdipperdomainsllc'
p86
g1
((lp87
S'whois.web.com'
p88
aS'whois.bigdipperdomains.com'
p89
atp90
Rp91
sS'dropcatchcom1005llc'
p92
g1
((lp93
S'whois.namebright.com'
p94
atp95
Rp96
sS'fairtradedomainsllc'
p97
g1
((lp98
S'whois.web.com'
p99
aS'whois.fairtradedomains.com'
p100
atp101
Rp102
sS'dropcatchcom1230llc'
p103
g1
((lp104
S'whois.namebright.com'
p105
atp106
Rp107
sS'enommxinc'
p108
g1
((lp109
S'whois.web.com'
p110
atp111
Rp112
sS'dropcatchcom796llc'
p113
g1
((lp114
S'whois.namebright.com'
p115
atp116
Rp117
sS'1hostjapaninc'
p118
g1
((lp119
S'whois.web.com'
p120
aS'whois.1hostjapan.com'
p121
atp122
Rp123
sS'cloudsystemllc'
p124
g1
((lp125
S'whois.22.cn'
p126
atp127
Rp128
sS'dropcatchcom784llc'
p129
g1
((lp130
S'whois.namebright.com'
p131
atp132
Rp133
sS'enom459incorporated'
p134
g1
((lp135
S'whois.web.com'
p136
aS'whois.enom459.com'
p137
atp138
Rp139
sS'dropcatchcom540llc'
p140
g1
((lp141
S'whois.namebright.com'
p142
atp143
Rp144
sS'namekingcominc'
p145
g1
((lp146
S'whois.nameking.com'
p147
atp148
Rp149
sS'enom403incorporated'
p150
g1
((lp151
S'whois.web.com'
p152
atp153
Rp154
sS'namepalcomllc'
p155
g1
((lp156
S'whois.namepal.com'
p157
atp158
Rp159
sS'rallycrydomainsllc'
p160
g1
((lp161
S'whois.web.com'
p162
aS'whois.rallycrydomains.com'
p163
atp164
Rp165
sS'dropcatchcom774llc'
p166
g1
((lp167
S'whois.namebright.com'
p168
atp169
Rp170
sS'interplanetsadecv'
p171
g1
((lp172
S'whois.suempresa.com'
p173
atp174
Rp175
sS'dropcatchcom950llc'
p176
g1
((lp177
S'whois.namebright.com'
p178
atp179
Rp180
sS'dropcatchcom409llc'
p181
g1
((lp182
S'whois.namebright.com'
p183
atp184
Rp185
sS'interlinkcoltd'
p186
g1
((lp187
S'whois.gonbei.jp'
p188
atp189
Rp190
sS'glideslopedomainsllc'
p191
g1
((lp192
S'whois.web.com'
p193
aS'whois.glideslopedomains.com'
p194
atp195
Rp196
sS'azprivatezllc'
p197
g1
((lp198
S'whois.azprivatez.com'
p199
atp200
Rp201
sS'dropcatchcom972llc'
p202
g1
((lp203
S'whois.namebright.com'
p204
atp205
Rp206
sS'secondroundnamesllc'
p207
g1
((lp208
S'whois.web.com'
p209
aS'whois.secondroundnamesllc.com'
p210
atp211
Rp212
sS'dropcatchcom625llc'
p213
g1
((lp214
S'whois.namebright.com'
p215
atp216
Rp217
sS'udomainnamecomllc'
p218
g1
((lp219
S'whois.web.com'
p220
aS'whois.udomainname.com'
p221
atp222
Rp223
sS'dropcatchcom663llc'
p224
g1
((lp225
S'whois.namebright.com'
p226
atp227
Rp228
sS'pheenix6llc'
p229
g1
((lp230
S'whois.pheenix.com'
p231
atp232
Rp233
sS'dropcatchcom448llc'
p234
g1
((lp235
S'whois.namebright.com'
p236
atp237
Rp238
sS'pdxprivatenamescomllc'
p239
g1
((lp240
S'whois.web.com'
p241
aS'whois.pdxprivatenames.com'
p242
atp243
Rp244
sS'dropcatchcom1128llc'
p245
g1
((lp246
S'whois.namebright.com'
p247
atp248
Rp249
sS'radudamianllc'
p250
g1
((lp251
S'whois.pheenix.com'
p252
atp253
Rp254
sS'pheenix54llc'
p255
g1
((lp256
S'whois.pheenix.com'
p257
atp258
Rp259
sS'gofullhouseinc'
p260
g1
((lp261
S'whois.gofullhouse.com'
p262
atp263
Rp264
sS'excaliburllc'
p265
g1
((lp266
S'whois.pheenix.com'
p267
atp268
Rp269
sS'domaincentralaustraliaptyltd'
p270
g1
((lp271
S'whois.domaincentral.com.au'
p272
atp273
Rp274
sS'dropcatchcom399llc'
p275
g1
((lp276
S'whois.namebright.com'
p277
atp278
Rp279
sS'tigersharkdomainsllc'
p280
g1
((lp281
S'whois.web.com'
p282
aS'whois.tigersharkdomains.com'
p283
atp284
Rp285
sS'dropcatchcom1003llc'
p286
g1
((lp287
S'whois.namebright.com'
p288
atp289
Rp290
sS'cpsdatensystemegmbh'
p291
g1
((lp292
S'whois.cps-datensysteme.de'
p293
atp294
Rp295
sS'anessiainc'
p296
g1
((lp297
S'whois.web.com'
p298
aS'whois.namepal.com'
p299
atp300
Rp301
sS'dropcatchcom997llc'
p302
g1
((lp303
S'whois.namebright.com'
p304
atp305
Rp306
sS'threadwalkercominc'
p307
g1
((lp308
S'whois.pheenix.com'
p309
atp310
Rp311
sS'hostingeruab'
p312
g1
((lp313
S'whois.hostinger.com'
p314
atp315
Rp316
sS'dropcatchcom471llc'
p317
g1
((lp318
S'whois.namebright.com'
p319
atp320
Rp321
sS'domainstopoverllc'
p322
g1
((lp323
S'whois.web.com'
p324
aS'whois.domainstopoverllc.com'
p325
atp326
Rp327
sS'shenzheninternetworksonlinetechnologycoltd'
p328
g1
((lp329
S'whois.62.net'
p330
atp331
Rp332
sS'webagenturatinternetservicesgmbhdbadomainnameat'
p333
g1
((lp334
S'whois.inname.net'
p335
atp336
Rp337
sS'tradeindiainc'
p338
g1
((lp339
S'whois.tradeindia.com'
p340
atp341
Rp342
sS'galcommunicationcommunigalltd'
p343
g1
((lp344
S'whois.communigal.net'
p345
atp346
Rp347
sS'mediaeliteholdingslimited'
p348
g1
((lp349
S'whois.registermatrix.com'
p350
atp351
Rp352
sS'alfenallc'
p353
g1
((lp354
S'whois.alfena.com'
p355
atp356
Rp357
sS'beijinginnovativelinkagetechnologyltd'
p358
g1
((lp359
S'whois.dns.com.cn'
p360
atp361
Rp362
sS'tradenamedllc'
p363
g1
((lp364
S'whois.namebright.com'
p365
atp366
Rp367
sS'dropcatchcom937llc'
p368
g1
((lp369
S'whois.namebright.com'
p370
atp371
Rp372
sS'dropcatchcom727llc'
p373
g1
((lp374
S'whois.namebright.com'
p375
atp376
Rp377
sS'domainshopllc'
p378
g1
((lp379
S'whois.web.com'
p380
aS'whois.domainshopllc.com'
p381
atp382
Rp383
sS'gatekeeperdomainsnetllc'
p384
g1
((lp385
S'whois.web.com'
p386
aS'whois.gatekeeperdomains.net'
p387
atp388
Rp389
sS'apollo888llc'
p390
g1
((lp391
S'whois.pheenix.com'
p392
atp393
Rp394
sS'dropcatchcom670llc'
p395
g1
((lp396
S'whois.namebright.com'
p397
atp398
Rp399
sS'dropcatchcom421llc'
p400
g1
((lp401
S'whois.namebright.com'
p402
atp403
Rp404
sS'claimeddomainsllc'
p405
g1
((lp406
S'whois2.domain.com'
p407
atp408
Rp409
sS'pheenix42llc'
p410
g1
((lp411
S'whois.pheenix.com'
p412
atp413
Rp414
sS'dns'
p415
g1
((lp416
S'whois.dns-net.de'
p417
atp418
Rp419
sS'domainsinthebagcomllc'
p420
g1
((lp421
S'whois.web.com'
p422
aS'whois.domainsinthebag.com'
p423
atp424
Rp425
sS'clouddiamondllc'
p426
g1
((lp427
S'whois.22.cn'
p428
atp429
Rp430
sS'gonamewacominc'
p431
g1
((lp432
S'whois.pheenix.com'
p433
atp434
Rp435
sS'dropcatchcom367llc'
p436
g1
((lp437
S'whois.namebright.com'
p438
atp439
Rp440
sS'topsystemllc'
p441
g1
((lp442
S'whois.topsystem.com'
p443
atp444
Rp445
sS'universoonlinesauol'
p446
g1
((lp447
S'whois.host.uol.com.br'
p448
atp449
Rp450
sS'raregemdomainsllc'
p451
g1
((lp452
S'whois.web.com'
p453
aS'whois.raregemdomainsllc.com'
p454
atp455
Rp456
sS'dropcatchcom397llc'
p457
g1
((lp458
S'whois.namebright.com'
p459
atp460
Rp461
sS'aviddomainllc'
p462
g1
((lp463
S'whois.namebright.com'
p464
atp465
Rp466
sS'namewinnerllc'
p467
g1
((lp468
S'whois.web.com'
p469
aS'whois.namewinnerllc.com'
p470
atp471
Rp472
sS'dropcatchcom458llc'
p473
g1
((lp474
S'whois.namebright.com'
p475
atp476
Rp477
sS'sliceofheavendomainsllc'
p478
g1
((lp479
S'whois.web.com'
p480
aS'whois.sliceofheavendomains.com'
p481
atp482
Rp483
sS'vodieninternetsolutionspteltd'
p484
g1
((lp485
S'whois.vodien.com'
p486
atp487
Rp488
sS'frontstreetdomainscomllc'
p489
g1
((lp490
S'whois.frontstreetdomains.com'
p491
aS'whois.web.com'
p492
atp493
Rp494
sS'nametofameinc'
p495
g1
((lp496
S'whois.nametofame.com'
p497
atp498
Rp499
sS'pheenix21llc'
p500
g1
((lp501
S'whois.pheenix.com'
p502
atp503
Rp504
sS'plisk'
p505
g1
((lp506
S'whois.plisk.com'
p507
atp508
Rp509
sS'dropcatchcom1501llc'
p510
g1
((lp511
S'whois.namebright.com'
p512
atp513
Rp514
sS'dropcatchcom623llc'
p515
g1
((lp516
S'whois.namebright.com'
p517
atp518
Rp519
sS'dropcatchcom894llc'
p520
g1
((lp521
S'whois.namebright.com'
p522
atp523
Rp524
sS'name119inc'
p525
g1
((lp526
S'whois.intlregistrationservices.com'
p527
atp528
Rp529
sS'dropcatchcom887llc'
p530
g1
((lp531
S'whois.namebright.com'
p532
atp533
Rp534
sS'dropcatchcom715llc'
p535
g1
((lp536
S'whois.namebright.com'
p537
atp538
Rp539
sS'dropcatchcom353llc'
p540
g1
((lp541
S'whois.namebright.com'
p542
atp543
Rp544
sS'niuedomainsllc'
p545
g1
((lp546
S'whois2.domain.com'
p547
atp548
Rp549
sS'core119hostnetmediengmbh'
p550
g1
((lp551
S'whois.corehub.net'
p552
atp553
Rp554
sS'core120hostservergmbh'
p555
g1
((lp556
S'whois.corehub.net'
p557
atp558
Rp559
sS'touchdowndomainsllc'
p560
g1
((lp561
S'whois.web.com'
p562
aS'whois.touchdowndomainsllc.com'
p563
atp564
Rp565
sS'tppdomainsptyltddbatppinternet'
p566
g1
((lp567
S'whois.tppinternet.com'
p568
atp569
Rp570
sS'iptwinssas'
p571
g1
((lp572
S'whois.rrpproxy.net'
p573
atp574
Rp575
sS'namepalcom8013'
p576
g1
((lp577
S'whois.web.com'
p578
aS'whois.namepal.com'
p579
atp580
Rp581
sS'pheenix77llc'
p582
g1
((lp583
S'whois.pheenix.com'
p584
atp585
Rp586
sS'dropcatchcom574llc'
p587
g1
((lp588
S'whois.namebright.com'
p589
atp590
Rp591
sS'keysystemsgmbh'
p592
g1
((lp593
S'whois.rrpproxy.net'
p594
atp595
Rp596
sS'namepalcom8011'
p597
g1
((lp598
S'whois.web.com'
p599
aS'whois.namepal.com'
p600
atp601
Rp602
sS'dropcatchcom835llc'
p603
g1
((lp604
S'whois.namebright.com'
p605
atp606
Rp607
sS'bonamfortunamdomainsllc'
p608
g1
((lp609
S'whois.web.com'
p610
aS'whois.bonamfortunamdomains.com'
p611
atp612
Rp613
sS'dropcatchcom1008llc'
p614
g1
((lp615
S'whois.namebright.com'
p616
atp617
Rp618
sS'dropcatchcom695llc'
p619
g1
((lp620
S'whois.namebright.com'
p621
atp622
Rp623
sS'empirestatedomainsinc'
p624
g1
((lp625
S'whois.web.com'
p626
aS'whois.namepal.com'
p627
atp628
Rp629
sS'domainclubcomllc'
p630
g1
((lp631
S'whois.domainclub.com'
p632
atp633
Rp634
sS'dropcatchcom596llc'
p635
g1
((lp636
S'whois.namebright.com'
p637
atp638
Rp639
sS'dropcatchcom384llc'
p640
g1
((lp641
S'whois.namebright.com'
p642
atp643
Rp644
sS'guangdongjinwanbangtechnologyinvestmentcoltd'
p645
g1
((lp646
S'whois.gzidc.com'
p647
atp648
Rp649
sS'ovh'
p650
g1
((lp651
S'whois.ovh.com'
p652
atp653
Rp654
sS'dropcatchcom946llc'
p655
g1
((lp656
S'whois.namebright.com'
p657
atp658
Rp659
sS'namepalcom8001inc'
p660
g1
((lp661
S'whois.enom435.com'
p662
atp663
Rp664
sS'dropcatchcom1400llc'
p665
g1
((lp666
S'whois.namebright.com'
p667
atp668
Rp669
sS'deepseadomainsllc'
p670
g1
((lp671
S'whois.web.com'
p672
aS'whois.deepseadomainsllc.com'
p673
atp674
Rp675
sS'regionalnetworkinformationcenterjscdbarucenter'
p676
g1
((lp677
S'whois.nic.ru'
p678
atp679
Rp680
sS'enom635inc'
p681
g1
((lp682
S'whois.enom635.com'
p683
atp684
Rp685
sS'entrustdomainsllc'
p686
g1
((lp687
S'whois.web.com'
p688
aS'whois.entrustdomains.com'
p689
atp690
Rp691
sS'resellerservicesincdbaresellservcom'
p692
g1
((lp693
S'whois.resellserv.com'
p694
atp695
Rp696
sS'lcncomltd'
p697
g1
((lp698
S'whois.lcn.com'
p699
atp700
Rp701
sS'onlinenicinc'
p702
g1
((lp703
S'whois.onlinenic.com'
p704
atp705
Rp706
sS'opentldbv'
p707
g1
((lp708
S'whois.freenom.com'
p709
atp710
Rp711
sS'hostingukraineltd'
p712
g1
((lp713
S'whois.ukrnames.com'
p714
aS'whois.onlinenic.com'
p715
atp716
Rp717
sS'world4youinternetservicesgmbh'
p718
g1
((lp719
S'whois.world4you.com'
p720
atp721
Rp722
sS'reg2ccominc'
p723
g1
((lp724
S'whois.reg2c.com'
p725
atp726
Rp727
sS'dropcatchcom637llc'
p728
g1
((lp729
S'whois.namebright.com'
p730
atp731
Rp732
sS'domainalacartellc'
p733
g1
((lp734
S'whois.web.com'
p735
aS'whois.domainalacarte.com'
p736
atp737
Rp738
sS'dropcatchcom736llc'
p739
g1
((lp740
S'whois.namebright.com'
p741
atp742
Rp743
sS'communigalcommunicationltd'
p744
g1
((lp745
S'whois.communigal.net'
p746
atp747
Rp748
sS'coralreefdomainsllc'
p749
g1
((lp750
S'whois.web.com'
p751
aS'whois.coralreefdomainsllc.com'
p752
atp753
Rp754
sS'maffinc'
p755
g1
((lp756
S'whois.maff.com'
p757
atp758
Rp759
sS'pheenix71llc'
p760
g1
((lp761
S'whois.pheenix.com'
p762
atp763
Rp764
sS'dropcatchcom833llc'
p765
g1
((lp766
S'whois.namebright.com'
p767
atp768
Rp769
sS'dropcatchcom642llc'
p770
g1
((lp771
S'whois.namebright.com'
p772
atp773
Rp774
sS'paragoninternetgroupltd'
p775
g1
((lp776
S'whois.paragonnames.net'
p777
atp778
Rp779
sS'googleinc'
p780
g1
((lp781
S'whois.google.com'
p782
atp783
Rp784
sS'clickregistrarincdbapublicdomainregistrycom'
p785
g1
((lp786
S'whois.publicdomainregistry.com'
p787
atp788
Rp789
sS'dropcatchcom479llc'
p790
g1
((lp791
S'whois.namebright.com'
p792
atp793
Rp794
sS'premierenamecainc'
p795
g1
((lp796
S'whois.domainmap.com'
p797
atp798
Rp799
sS'domaincomllc'
p800
g1
((lp801
S'whois.domain.com'
p802
atp803
Rp804
sS'pheenix27llc'
p805
g1
((lp806
S'whois.pheenix.com'
p807
atp808
Rp809
sS'hebeiguojimaoyishanghailtddbahebeidomainscom'
p810
g1
((lp811
S'whois.hebeidomains.com'
p812
atp813
Rp814
sS'henanweichuangnetworktechnologycoltd'
p815
g1
((lp816
S'whois.cndns.cn'
p817
atp818
Rp819
sS'dropcatchcom534llc'
p820
g1
((lp821
S'whois.namebright.com'
p822
atp823
Rp824
sS'aerotekbilisimsanayiveticaretas'
p825
g1
((lp826
S'whois.aerotek.com.tr'
p827
atp828
Rp829
sS'dropcatchcom1254llc'
p830
g1
((lp831
S'whois.namebright.com'
p832
atp833
Rp834
sS'visualmonsterinc'
p835
g1
((lp836
S'whois.visualmonster.com'
p837
atp838
Rp839
sS'dropcatchcom376llc'
p840
g1
((lp841
S'whois.namebright.com'
p842
atp843
Rp844
sS'dropcatchcom923llc'
p845
g1
((lp846
S'whois.namebright.com'
p847
atp848
Rp849
sS'dropcatchcom436llc'
p850
g1
((lp851
S'whois.namebright.com'
p852
atp853
Rp854
sS'domeneshopasdbadomainnameshopcom'
p855
g1
((lp856
S'whois.domainnameshop.com'
p857
atp858
Rp859
sS'dropcatchcom561llc'
p860
g1
((lp861
S'whois.namebright.com'
p862
atp863
Rp864
sS'dropcatchcom941llc'
p865
g1
((lp866
S'whois.namebright.com'
p867
atp868
Rp869
sS'enom407incorporated'
p870
g1
((lp871
S'whois.web.com'
p872
atp873
Rp874
sS'namesnapllc'
p875
g1
((lp876
S'whois.web.com'
p877
aS'whois.namesnapllc.com'
p878
atp879
Rp880
sS'dropcatchcom631llc'
p881
g1
((lp882
S'whois.namebright.com'
p883
atp884
Rp885
sS'dropcatchcom1432llc'
p886
g1
((lp887
S'whois.namebright.com'
p888
atp889
Rp890
sS'postaldomainsincorporated'
p891
g1
((lp892
S'whois.web.com'
p893
aS'whois.postaldomains.com'
p894
atp895
Rp896
sS'dropcatchcom730llc'
p897
g1
((lp898
S'whois.namebright.com'
p899
atp900
Rp901
sS'geslotendomainnv'
p902
g1
((lp903
S'whois.gesloten.cw'
p904
atp905
Rp906
sS'core152benjcaffedba'
p907
g1
((lp908
S'whois.corehub.net'
p909
atp910
Rp911
sS'billythekidllc'
p912
g1
((lp913
S'whois.pheenix.com'
p914
atp915
Rp916
sS'camelot64llc'
p917
g1
((lp918
S'whois.pheenix.com'
p919
atp920
Rp921
sS'name120inc'
p922
g1
((lp923
S'whois.mountaindomains.net'
p924
atp925
Rp926
sS'dropcatchcom477llc'
p927
g1
((lp928
S'whois.namebright.com'
p929
atp930
Rp931
sS'znettechnologiespvtltd'
p932
g1
((lp933
S'whois.znetlive.com'
p934
atp935
Rp936
sS'xiamendomainsinc'
p937
g1
((lp938
S'whois.xiamendomains.com'
p939
atp940
Rp941
sS'gooddomainregistrypvtltd'
p942
g1
((lp943
S'whois.gooddomainregistry.com'
p944
atp945
Rp946
sS'opennamellc'
p947
g1
((lp948
S'whois.openname.com'
p949
atp950
Rp951
sS'leonidasllc'
p952
g1
((lp953
S'whois.pheenix.com'
p954
atp955
Rp956
sS'name110inc'
p957
g1
((lp958
S'whois.briarwoodtechnologies.com'
p959
atp960
Rp961
sS'enom5inc'
p962
g1
((lp963
S'whois.web.com'
p964
aS'whois.enom5.com'
p965
atp966
Rp967
sS'registernamesllc'
p968
g1
((lp969
S'whois2.domain.com'
p970
atp971
Rp972
sS'dropcatchcom1161llc'
p973
g1
((lp974
S'whois.namebright.com'
p975
atp976
Rp977
sS'domaincirclellc'
p978
g1
((lp979
S'whois.web.com'
p980
aS'whois.domaincirclellc.com'
p981
atp982
Rp983
sS'wildwestdomainsllc'
p984
g1
((lp985
S'whois.wildwestdomains.com'
p986
atp987
Rp988
sS'cosmotowninc'
p989
g1
((lp990
S'whois.ccdomain.co.kr'
p991
atp992
Rp993
sS'dropcatchcom743llc'
p994
g1
((lp995
S'whois.namebright.com'
p996
atp997
Rp998
sS'dropcatchcom863llc'
p999
g1
((lp1000
S'whois.namebright.com'
p1001
atp1002
Rp1003
sS'dropcatchcom370llc'
p1004
g1
((lp1005
S'whois.namebright.com'
p1006
atp1007
Rp1008
sS'dropcatchcom925llc'
p1009
g1
((lp1010
S'whois.namebright.com'
p1011
atp1012
Rp1013
sS'ihstelekominc'
p1014
g1
((lp1015
S'whois.ihs.com.tr'
p1016
atp1017
Rp1018
sS'domainfalconllc'
p1019
g1
((lp1020
S'whois.namebright.com'
p1021
atp1022
Rp1023
sS'dropcatchcom985llc'
p1024
g1
((lp1025
S'whois.namebright.com'
p1026
atp1027
Rp1028
sS'nettunercorpdbawebmasterscom'
p1029
g1
((lp1030
S'whois.webmasters.com'
p1031
atp1032
Rp1033
sS'namepalcom8017inc'
p1034
g1
((lp1035
S'whois.web.com'
p1036
atp1037
Rp1038
sS'dropcatchcom938llc'
p1039
g1
((lp1040
S'whois.namebright.com'
p1041
atp1042
Rp1043
sS'dropcatchcom429llc'
p1044
g1
((lp1045
S'whois.namebright.com'
p1046
atp1047
Rp1048
sS'sterlingdomainsllc'
p1049
g1
((lp1050
S'whois.web.com'
p1051
aS'whois.sterlingdomainsllc.com'
p1052
atp1053
Rp1054
sS'maffavenueinc'
p1055
g1
((lp1056
S'whois.maffavenue.com'
p1057
atp1058
Rp1059
sS'dropsave'
p1060
g1
((lp1061
S'whois.namepal.com'
p1062
atp1063
Rp1064
sS'dropcatchcom503llc'
p1065
g1
((lp1066
S'whois.namebright.com'
p1067
atp1068
Rp1069
sS'dropcatchcom874llc'
p1070
g1
((lp1071
S'whois.namebright.com'
p1072
atp1073
Rp1074
sS'pheenix96llc'
p1075
g1
((lp1076
S'whois.pheenix.com'
p1077
atp1078
Rp1079
sS'pheenix35llc'
p1080
g1
((lp1081
S'whois.pheenix.com'
p1082
atp1083
Rp1084
sS'charlemagne888llc'
p1085
g1
((lp1086
S'whois.pheenix.com'
p1087
atp1088
Rp1089
sS'dropcatchcom579llc'
p1090
g1
((lp1091
S'whois.namebright.com'
p1092
atp1093
Rp1094
sS'huyiglobalinformationhongkonglimited'
p1095
g1
((lp1096
S'whois.8hy.cn'
p1097
atp1098
Rp1099
sS'networkinformationcentermexicosc'
p1100
g1
((lp1101
S'whois.akky.mx'
p1102
atp1103
Rp1104
sS'networksolutionsllc'
p1105
g1
((lp1106
S'whois.networksolutions.com'
p1107
atp1108
Rp1109
sS'shiningstardomainsllc'
p1110
g1
((lp1111
S'whois.shiningstardomains.com'
p1112
aS'whois.web.com'
p1113
atp1114
Rp1115
sS'rethemhostingllc'
p1116
g1
((lp1117
S'whois.rethemhosting.net'
p1118
atp1119
Rp1120
sS'dropcatchcom693llc'
p1121
g1
((lp1122
S'whois.namebright.com'
p1123
atp1124
Rp1125
sS'accentdomainsllc'
p1126
g1
((lp1127
S'whois.namebright.com'
p1128
atp1129
Rp1130
sS'deutchdomainsllc'
p1131
g1
((lp1132
S'whois2.domain.com'
p1133
atp1134
Rp1135
sS'domaintactllc'
p1136
g1
((lp1137
S'whois.namebright.com'
p1138
atp1139
Rp1140
sS'dropcatchcom463llc'
p1141
g1
((lp1142
S'whois.namebright.com'
p1143
atp1144
Rp1145
sS'domainnamepathinc'
p1146
g1
((lp1147
S'whois.domainnamepath.com'
p1148
atp1149
Rp1150
sS'dropcatchcom650llc'
p1151
g1
((lp1152
S'whois.namebright.com'
p1153
atp1154
Rp1155
sS'rebelcacorp'
p1156
g1
((lp1157
S'whois.domainsatcost.ca'
p1158
atp1159
Rp1160
sS'wingunetworkssadecv'
p1161
g1
((lp1162
S'whois.suempresa.com'
p1163
atp1164
Rp1165
sS'dropcatchcom639llc'
p1166
g1
((lp1167
S'whois.namebright.com'
p1168
atp1169
Rp1170
sS'dropcatchcom724llc'
p1171
g1
((lp1172
S'whois.namebright.com'
p1173
atp1174
Rp1175
sS'dropcatchcom983llc'
p1176
g1
((lp1177
S'whois.namebright.com'
p1178
atp1179
Rp1180
sS'dropcatchcom775llc'
p1181
g1
((lp1182
S'whois.namebright.com'
p1183
atp1184
Rp1185
sS'namenetinc'
p1186
g1
((lp1187
S'whois.name.net'
p1188
atp1189
Rp1190
sS'trafficnamesincorporated'
p1191
g1
((lp1192
S'whois.trafficnames.net'
p1193
atp1194
Rp1195
sS'samjungdataservicecoltd'
p1196
g1
((lp1197
S'whois.sdsns.com'
p1198
atp1199
Rp1200
sS'snagyournamellc'
p1201
g1
((lp1202
S'whois.web.com'
p1203
aS'whois.snagyournamellc.com'
p1204
atp1205
Rp1206
sS'abriktad'
p1207
g1
((lp1208
S'whois.riktad.se'
p1209
atp1210
Rp1211
sS'dropcatchcom590llc'
p1212
g1
((lp1213
S'whois.namebright.com'
p1214
atp1215
Rp1216
sS'dropcatchcom551llc'
p1217
g1
((lp1218
S'whois.namebright.com'
p1219
atp1220
Rp1221
sS'webfusionlimited'
p1222
g1
((lp1223
S'whois.123-reg.co.uk'
p1224
atp1225
Rp1226
sS'safenamesltd'
p1227
g1
((lp1228
S'whois.safenames.net'
p1229
atp1230
Rp1231
sS'dropcatchcom481llc'
p1232
g1
((lp1233
S'whois.namebright.com'
p1234
atp1235
Rp1236
sS'klaatudomainscomllc'
p1237
g1
((lp1238
S'whois.web.com'
p1239
aS'whois.klaatudomains.com'
p1240
atp1241
Rp1242
sS'slowmotiondomainsllc'
p1243
g1
((lp1244
S'whois.web.com'
p1245
aS'whois.slowmotiondomainsllc.com'
p1246
atp1247
Rp1248
sS'domainsexpressllc'
p1249
g1
((lp1250
S'whois.web.com'
p1251
aS'whois.domainsexpressllc.com'
p1252
atp1253
Rp1254
sS'deutschetelekomag'
p1255
g1
((lp1256
S'whois.registrar.telekom.de'
p1257
atp1258
Rp1259
sS'dropcatchcom661llc'
p1260
g1
((lp1261
S'whois.namebright.com'
p1262
atp1263
Rp1264
sS'hostingconceptsbvdbaopenprovider'
p1265
g1
((lp1266
S'whois.registrar.eu'
p1267
atp1268
Rp1269
sS'dropcatchcom892llc'
p1270
g1
((lp1271
S'whois.namebright.com'
p1272
atp1273
Rp1274
sS'nametrancellc'
p1275
g1
((lp1276
S'whois.pheenix.com'
p1277
atp1278
Rp1279
sS'imminentdomainsnetllc'
p1280
g1
((lp1281
S'whois.imminentdomains.net'
p1282
aS'whois.web.com'
p1283
atp1284
Rp1285
sS'inicgmbh'
p1286
g1
((lp1287
S'whois.inic.ch'
p1288
atp1289
Rp1290
sS'enom383incorporated'
p1291
g1
((lp1292
S'whois.web.com'
p1293
aS'whois.enom383.com'
p1294
atp1295
Rp1296
sS'namescoutcorp'
p1297
g1
((lp1298
S'whois.namescout.com'
p1299
atp1300
Rp1301
sS'dropcatchcom368llc'
p1302
g1
((lp1303
S'whois.namebright.com'
p1304
atp1305
Rp1306
sS'cloudbeautyllc'
p1307
g1
((lp1308
S'whois.22.cn'
p1309
atp1310
Rp1311
sS'jumpshotdomainsllc'
p1312
g1
((lp1313
S'whois.web.com'
p1314
aS'whois.jumpshotdomainsllc.com'
p1315
atp1316
Rp1317
sS'dynadot7llc'
p1318
g1
((lp1319
S'whois.dynadot7.com'
p1320
atp1321
Rp1322
sS'domainsareforevernetllc'
p1323
g1
((lp1324
S'whois.web.com'
p1325
aS'whois.domainsareforever.net'
p1326
atp1327
Rp1328
sS'dropcatchcom872llc'
p1329
g1
((lp1330
S'whois.namebright.com'
p1331
atp1332
Rp1333
sS'copperdomainnamesllc'
p1334
g1
((lp1335
S'whois.web.com'
p1336
aS'whois.copperdomainnamesllc.com'
p1337
atp1338
Rp1339
sS'savethenamecomllc'
p1340
g1
((lp1341
S'whois.web.com'
p1342
aS'whois.savethename.com'
p1343
atp1344
Rp1345
sS'fabulouscomptyltd'
p1346
g1
((lp1347
S'whois.fabulous.com'
p1348
atp1349
Rp1350
sS'dropcatchcom904llc'
p1351
g1
((lp1352
S'whois.namebright.com'
p1353
atp1354
Rp1355
sS'oneputtincformerly'
p1356
g1
((lp1357
S'whois.z-core.com'
p1358
atp1359
Rp1360
sS'dropcatchcom964llc'
p1361
g1
((lp1362
S'whois.namebright.com'
p1363
atp1364
Rp1365
sS'enomvinc'
p1366
g1
((lp1367
S'whois.web.com'
p1368
aS'whois.enomv.com'
p1369
atp1370
Rp1371
sS'dropcatchcom722llc'
p1372
g1
((lp1373
S'whois.namebright.com'
p1374
atp1375
Rp1376
sS'dropcatchcom541llc'
p1377
g1
((lp1378
S'whois.namebright.com'
p1379
atp1380
Rp1381
sS'litedomainsllc'
p1382
g1
((lp1383
S'whois.namebright.com'
p1384
atp1385
Rp1386
sS'dropcatchcom698llc'
p1387
g1
((lp1388
S'whois.namebright.com'
p1389
atp1390
Rp1391
sS'dropcatchcom1030llc'
p1392
g1
((lp1393
S'whois.namebright.com'
p1394
atp1395
Rp1396
sS'domaininfoabdbadomaininfocom'
p1397
g1
((lp1398
S'whois.domaininfo.com'
p1399
atp1400
Rp1401
sS'stormbringerllc'
p1402
g1
((lp1403
S'whois.pheenix.com'
p1404
atp1405
Rp1406
sS'domainbazaarllc'
p1407
g1
((lp1408
S'whois.web.com'
p1409
aS'whois.domainbazaarllc.com'
p1410
atp1411
Rp1412
sS'enom647inc'
p1413
g1
((lp1414
S'whois.web.com'
p1415
atp1416
Rp1417
sS'yenkosllc'
p1418
g1
((lp1419
S'whois.pheenix.com'
p1420
atp1421
Rp1422
sS'lwsdbalignewebservices'
p1423
g1
((lp1424
S'whois.lws.net'
p1425
atp1426
Rp1427
sS'comfydomainsllc'
p1428
g1
((lp1429
S'whois.namebright.com'
p1430
atp1431
Rp1432
sS'dropcatchcom797llc'
p1433
g1
((lp1434
S'whois.namebright.com'
p1435
atp1436
Rp1437
sS'enametechnologycoltd'
p1438
g1
((lp1439
S'whois.ename.com'
p1440
atp1441
Rp1442
sS'dropcatchcom682llc'
p1443
g1
((lp1444
S'whois.namebright.com'
p1445
atp1446
Rp1447
sS'domainnameoriginllc'
p1448
g1
((lp1449
S'whois.web.com'
p1450
aS'whois.domainnameorigin.com'
p1451
atp1452
Rp1453
sS'dropcatchcom745llc'
p1454
g1
((lp1455
S'whois.namebright.com'
p1456
atp1457
Rp1458
sS'registrarofdomainnamesregrullc'
p1459
g1
((lp1460
S'whois.reg.com'
p1461
atp1462
Rp1463
sS'neuboxinternetsadecv'
p1464
g1
((lp1465
S'whois.neubox.com'
p1466
atp1467
Rp1468
sS'bravenamesinc'
p1469
g1
((lp1470
S'whois.web.com'
p1471
aS'whois.namepal.com'
p1472
atp1473
Rp1474
sS'dropcatchcom610llc'
p1475
g1
((lp1476
S'whois.namebright.com'
p1477
atp1478
Rp1479
sS'dropcatchcom804llc'
p1480
g1
((lp1481
S'whois.namebright.com'
p1482
atp1483
Rp1484
sS'domainsoufflecomllc'
p1485
g1
((lp1486
S'whois.web.com'
p1487
aS'whois.domainsouffle.com'
p1488
atp1489
Rp1490
sS'dropcatchauctionllc'
p1491
g1
((lp1492
S'whois.dropcatchauctionllc.com'
p1493
aS'whois.web.com'
p1494
atp1495
Rp1496
sS'dropcatchcom439llc'
p1497
g1
((lp1498
S'whois.namebright.com'
p1499
atp1500
Rp1501
sS'dropcatchcom568llc'
p1502
g1
((lp1503
S'whois.namebright.com'
p1504
atp1505
Rp1506
sS'webdriveltd'
p1507
g1
((lp1508
S'whois.domainagent.co.nz'
p1509
atp1510
Rp1511
sS'backstopnamesllc'
p1512
g1
((lp1513
S'whois.web.com'
p1514
aS'whois.backstopnamesllc.com'
p1515
atp1516
Rp1517
sS'dropcatchcom474llc'
p1518
g1
((lp1519
S'whois.namebright.com'
p1520
atp1521
Rp1522
sS'dropcatchcom431llc'
p1523
g1
((lp1524
S'whois.namebright.com'
p1525
atp1526
Rp1527
sS'dropcatchcom852llc'
p1528
g1
((lp1529
S'whois.namebright.com'
p1530
atp1531
Rp1532
sS'dropcatchcom598llc'
p1533
g1
((lp1534
S'whois.namebright.com'
p1535
atp1536
Rp1537
sS'enom655inc'
p1538
g1
((lp1539
S'whois.web.com'
p1540
aS'whois.enom655.com'
p1541
atp1542
Rp1543
sS'dropcatchcom586llc'
p1544
g1
((lp1545
S'whois.namebright.com'
p1546
atp1547
Rp1548
sS'domainsurgeoncomllc'
p1549
g1
((lp1550
S'whois.web.com'
p1551
aS'whois.domainsurgeon.com'
p1552
atp1553
Rp1554
sS'pheenix62llc'
p1555
g1
((lp1556
S'whois.pheenix.com'
p1557
atp1558
Rp1559
sS'core164globalipactionag'
p1560
g1
((lp1561
S'whois.corehub.net'
p1562
atp1563
Rp1564
sS'dynadot11llc'
p1565
g1
((lp1566
S'whois.dynadot11.com'
p1567
atp1568
Rp1569
sS'internetbscorp'
p1570
g1
((lp1571
S'whois.internet.bs'
p1572
atp1573
Rp1574
sS'pheenix12llc'
p1575
g1
((lp1576
S'whois.pheenix.com'
p1577
atp1578
Rp1579
sS'dropcatchcom1214llc'
p1580
g1
((lp1581
S'whois.namebright.com'
p1582
atp1583
Rp1584
sS'capitaldomainsllc'
p1585
g1
((lp1586
S'whois2.domain.com'
p1587
atp1588
Rp1589
sS'markmonitorinc'
p1590
g1
((lp1591
S'whois.markmonitor.com'
p1592
atp1593
Rp1594
sS'freedropzonellc'
p1595
g1
((lp1596
S'whois.web.com'
p1597
aS'whois.freedropzonellc.com'
p1598
atp1599
Rp1600
sS'dropcatchcom927llc'
p1601
g1
((lp1602
S'whois.namebright.com'
p1603
atp1604
Rp1605
sS'dropcatchcom684llc'
p1606
g1
((lp1607
S'whois.namebright.com'
p1608
atp1609
Rp1610
sS'dropcatchcom383llc'
p1611
g1
((lp1612
S'whois.namebright.com'
p1613
atp1614
Rp1615
sS'dropcatchcom762llc'
p1616
g1
((lp1617
S'whois.namebright.com'
p1618
atp1619
Rp1620
sS'dropcatchcom508llc'
p1621
g1
((lp1622
S'whois.namebright.com'
p1623
atp1624
Rp1625
sS'bullrundomainscomllc'
p1626
g1
((lp1627
S'whois.web.com'
p1628
aS'whois.bullrundomains.com'
p1629
atp1630
Rp1631
sS'enombrecorporation'
p1632
g1
((lp1633
S'whois.web.com'
p1634
atp1635
Rp1636
sS'dropcatchcom440llc'
p1637
g1
((lp1638
S'whois.namebright.com'
p1639
atp1640
Rp1641
sS'pheenix4llc'
p1642
g1
((lp1643
S'whois.pheenix.com'
p1644
atp1645
Rp1646
sS'dropcatchcom802llc'
p1647
g1
((lp1648
S'whois.namebright.com'
p1649
atp1650
Rp1651
sS'enomauinc'
p1652
g1
((lp1653
S'whois.enomau.com'
p1654
atp1655
Rp1656
sS'core109weblandag'
p1657
g1
((lp1658
S'whois.corehub.net'
p1659
atp1660
Rp1661
sS'core41teliaabnetworkservices'
p1662
g1
((lp1663
S'whois.corehub.net'
p1664
atp1665
Rp1666
sS'humeiacorporation'
p1667
g1
((lp1668
S'comnet-whois.humeia.com'
p1669
atp1670
Rp1671
sS'dropcatchcom1026llc'
p1672
g1
((lp1673
S'whois.namebright.com'
p1674
atp1675
Rp1676
sS'isaacnewtonllc'
p1677
g1
((lp1678
S'whois.pheenix.com'
p1679
atp1680
Rp1681
sS'domainladderllc'
p1682
g1
((lp1683
S'whois.namebright.com'
p1684
atp1685
Rp1686
sS'dropcatchcom673llc'
p1687
g1
((lp1688
S'whois.namebright.com'
p1689
atp1690
Rp1691
sS'rebelcom'
p1692
g1
((lp1693
S'whois.rebel.com'
p1694
atp1695
Rp1696
sS'csmjbsenterprises'
p1697
g1
((lp1698
S'whois.aitdomains.com'
p1699
atp1700
Rp1701
sS'dropcatchcom437llc'
p1702
g1
((lp1703
S'whois.namebright.com'
p1704
atp1705
Rp1706
sS'namesilollc'
p1707
g1
((lp1708
S'whois.namesilo.com'
p1709
atp1710
Rp1711
sS'enomworldinc'
p1712
g1
((lp1713
S'whois.enomworld.com'
p1714
atp1715
Rp1716
sS'whoisnetworkscoltd'
p1717
g1
((lp1718
S'whois.yesnic.com'
p1719
atp1720
Rp1721
sS'beijingtongguanxintiantechnologyltdnovaltel'
p1722
g1
((lp1723
S'whois.22.cn'
p1724
atp1725
Rp1726
sS'asciotechnologiesinc'
p1727
g1
((lp1728
S'whois.ascio.com'
p1729
atp1730
Rp1731
sS'dreamhostllc'
p1732
g1
((lp1733
S'whois.dreamhost.com'
p1734
atp1735
Rp1736
sS'1apigmbh'
p1737
g1
((lp1738
S'whois.1api.net'
p1739
atp1740
Rp1741
sS'fbsinc'
p1742
g1
((lp1743
S'whois.isimtescil.net'
p1744
atp1745
Rp1746
sS'dropcatchcom629llc'
p1747
g1
((lp1748
S'whois.namebright.com'
p1749
atp1750
Rp1751
sS'yellowstartinc'
p1752
g1
((lp1753
S'whois.yellowstart.com'
p1754
atp1755
Rp1756
sS'dropcatchcom1038llc'
p1757
g1
((lp1758
S'whois.namebright.com'
p1759
atp1760
Rp1761
sS'pheenix79llc'
p1762
g1
((lp1763
S'whois.pheenix.com'
p1764
atp1765
Rp1766
sS'atakdomainhostinginternetvebilgiteknolojilerilimitedsirketidbaatakteknoloji'
p1767
g1
((lp1768
S'whois.atakteknoloji.com'
p1769
atp1770
Rp1771
sS'honjomasamunellc'
p1772
g1
((lp1773
S'whois.pheenix.com'
p1774
atp1775
Rp1776
sS'dropcatchcom930llc'
p1777
g1
((lp1778
S'whois.namebright.com'
p1779
atp1780
Rp1781
sS'dropcatchcom366llc'
p1782
g1
((lp1783
S'whois.namebright.com'
p1784
atp1785
Rp1786
sS'enomeuinc'
p1787
g1
((lp1788
S'whois.enomau.com'
p1789
atp1790
Rp1791
sS'dropcatchcom468llc'
p1792
g1
((lp1793
S'whois.namebright.com'
p1794
atp1795
Rp1796
sS'lignewebservicessarldbalws'
p1797
g1
((lp1798
S'whois.lws.net'
p1799
atp1800
Rp1801
sS'betterthanaveragedomainscomllc'
p1802
g1
((lp1803
S'whois.web.com'
p1804
aS'whois.betterthanaveragedomains.com'
p1805
atp1806
Rp1807
sS'dropcatchcom988llc'
p1808
g1
((lp1809
S'whois.namebright.com'
p1810
atp1811
Rp1812
sS'sammamishdomainscomllc'
p1813
g1
((lp1814
S'whois.web.com'
p1815
aS'whois.sammamishdomains.com'
p1816
atp1817
Rp1818
sS'nordregab'
p1819
g1
((lp1820
S'whois.nordreg.com'
p1821
atp1822
Rp1823
sS'domainnamefwyinc'
p1824
g1
((lp1825
S'whois.domainnamefwy.com'
p1826
atp1827
Rp1828
sS'fujiandomainsinc'
p1829
g1
((lp1830
S'whois.fujiandomains.com'
p1831
atp1832
Rp1833
sS'dropcatchcom575llc'
p1834
g1
((lp1835
S'whois.namebright.com'
p1836
atp1837
Rp1838
sS'vividdomains'
p1839
g1
((lp1840
S'vividwhois.vividdomains.com'
p1841
atp1842
Rp1843
sS'namepalcom8018'
p1844
g1
((lp1845
S'whois.web.com'
p1846
aS'whois.namepal.com'
p1847
atp1848
Rp1849
sS'namepalcom8019'
p1850
g1
((lp1851
S'whois.web.com'
p1852
aS'whois.namepal.com'
p1853
atp1854
Rp1855
sS'namepalcom8016'
p1856
g1
((lp1857
S'whois.web.com'
p1858
aS'whois.namepal.com'
p1859
atp1860
Rp1861
sS'namepalcom8017'
p1862
g1
((lp1863
S'whois.web.com'
p1864
aS'whois.namepal.com'
p1865
atp1866
Rp1867
sS'namepalcom8014'
p1868
g1
((lp1869
S'whois.web.com'
p1870
aS'whois.namepal.com'
p1871
atp1872
Rp1873
sS'namepalcom8015'
p1874
g1
((lp1875
S'whois.web.com'
p1876
aS'whois.namepal.com'
p1877
atp1878
Rp1879
sS'namepalcom8012'
p1880
g1
((lp1881
S'whois.web.com'
p1882
aS'whois.namepal.com'
p1883
atp1884
Rp1885
sS'backslapdomains'
p1886
g1
((lp1887
S'whois.backslapdomains.com'
p1888
atp1889
Rp1890
sS'namepalcom8010'
p1891
g1
((lp1892
S'whois.web.com'
p1893
aS'whois.namepal.com'
p1894
atp1895
Rp1896
sS'dropcatchcom487llc'
p1897
g1
((lp1898
S'whois.namebright.com'
p1899
atp1900
Rp1901
sS'dropcatchcom675llc'
p1902
g1
((lp1903
S'whois.namebright.com'
p1904
atp1905
Rp1906
sS'dropcatchcom350llc'
p1907
g1
((lp1908
S'whois.namebright.com'
p1909
atp1910
Rp1911
sS'namestopllc'
p1912
g1
((lp1913
S'whois.web.com'
p1914
aS'whois.namestopllc.com'
p1915
atp1916
Rp1917
sS'pheenix98llc'
p1918
g1
((lp1919
S'whois.pheenix.com'
p1920
atp1921
Rp1922
sS'endeavourdomainsllc'
p1923
g1
((lp1924
S'whois.web.com'
p1925
aS'whois.endeavourdomains.com'
p1926
atp1927
Rp1928
sS'targeteddropcatchllc'
p1929
g1
((lp1930
S'whois.web.com'
p1931
aS'whois.targeteddropcatchllc.com'
p1932
atp1933
Rp1934
sS'dropcatchcom488llc'
p1935
g1
((lp1936
S'whois.namebright.com'
p1937
atp1938
Rp1939
sS'enom399incorporated'
p1940
g1
((lp1941
S'whois.web.com'
p1942
aS'whois.enom399.com'
p1943
atp1944
Rp1945
sS'domaincapitancomllc'
p1946
g1
((lp1947
S'whois.web.com'
p1948
aS'whois.domaincapitan.com'
p1949
atp1950
Rp1951
sS'shenzhenhulianxianfengtechnologycoltd'
p1952
g1
((lp1953
S'whois.1198.cn'
p1954
atp1955
Rp1956
sS'core142norplexcommunications'
p1957
g1
((lp1958
S'whois.corehub.net'
p1959
atp1960
Rp1961
sS'dropcatchcom1036llc'
p1962
g1
((lp1963
S'whois.namebright.com'
p1964
atp1965
Rp1966
sS'core30telecomitaliaspa'
p1967
g1
((lp1968
S'whois.corehub.net'
p1969
atp1970
Rp1971
sS'enom379incorporated'
p1972
g1
((lp1973
S'whois.web.com'
p1974
aS'whois.enom379.com'
p1975
atp1976
Rp1977
sS'golddomainnamesllc'
p1978
g1
((lp1979
S'whois.web.com'
p1980
aS'whois.golddomainnamesllc.com'
p1981
atp1982
Rp1983
sS'dropcatchcom624llc'
p1984
g1
((lp1985
S'whois.namebright.com'
p1986
atp1987
Rp1988
sS'enom385incorporated'
p1989
g1
((lp1990
S'whois.enom385.com'
p1991
atp1992
Rp1993
sS'ladasdomainsllc'
p1994
g1
((lp1995
S'whois.ladasdomains.com'
p1996
atp1997
Rp1998
sS'dropcatchcom1028llc'
p1999
g1
((lp2000
S'whois.namebright.com'
p2001
atp2002
Rp2003
sS'ramsesiillc'
p2004
g1
((lp2005
S'whois.pheenix.com'
p2006
atp2007
Rp2008
sS'dropcatchcom559llc'
p2009
g1
((lp2010
S'whois.namebright.com'
p2011
atp2012
Rp2013
sS'core993wmediagmbh'
p2014
g1
((lp2015
S'whois.corehub.net'
p2016
atp2017
Rp2018
sS'dropcatchcom924llc'
p2019
g1
((lp2020
S'whois.namebright.com'
p2021
atp2022
Rp2023
sS'enom461incorporated'
p2024
g1
((lp2025
S'whois.web.com'
p2026
aS'whois.enom461.com'
p2027
atp2028
Rp2029
sS'dropcatchcom1020llc'
p2030
g1
((lp2031
S'whois.namebright.com'
p2032
atp2033
Rp2034
sS'instracorporationptyltd'
p2035
g1
((lp2036
S'whois.instra.net'
p2037
atp2038
Rp2039
sS'soaringeagledomainsllc'
p2040
g1
((lp2041
S'whois.soaringeagledomains.com'
p2042
aS'whois.web.com'
p2043
atp2044
Rp2045
sS'dropcatchcom420llc'
p2046
g1
((lp2047
S'whois.namebright.com'
p2048
atp2049
Rp2050
sS'dropcatchcom419llc'
p2051
g1
((lp2052
S'whois.namebright.com'
p2053
atp2054
Rp2055
sS'net4indialimited'
p2056
g1
((lp2057
S'whois.net4domains.com'
p2058
atp2059
Rp2060
sS'dropcatchcom493llc'
p2061
g1
((lp2062
S'whois.namebright.com'
p2063
atp2064
Rp2065
sS'cslcomputerservicelangenbachgmbhdbajokercom'
p2066
g1
((lp2067
S'whois.joker.com'
p2068
atp2069
Rp2070
sS'ledlnetgmbh'
p2071
g1
((lp2072
S'whois.ledl.net'
p2073
atp2074
Rp2075
sS'namepalcom8006inc'
p2076
g1
((lp2077
S'whois.web.com'
p2078
atp2079
Rp2080
sS'suntzu888llc'
p2081
g1
((lp2082
S'whois.pheenix.com'
p2083
atp2084
Rp2085
sS'dropcatchcom830llc'
p2086
g1
((lp2087
S'whois.namebright.com'
p2088
atp2089
Rp2090
sS'netchinesecoltd'
p2091
g1
((lp2092
S'whois.net-chinese.com.tw'
p2093
atp2094
Rp2095
sS'streamlinedomainsllc'
p2096
g1
((lp2097
S'whois.web.com'
p2098
aS'whois.streamlinedomains.com'
p2099
atp2100
Rp2101
sS'enom1010inc'
p2102
g1
((lp2103
S'whois.web.com'
p2104
aS'whois.enom1010.com'
p2105
atp2106
Rp2107
sS'worthydomainsllc'
p2108
g1
((lp2109
S'whois.namebright.com'
p2110
atp2111
Rp2112
sS'dropcatchcom786llc'
p2113
g1
((lp2114
S'whois.namebright.com'
p2115
atp2116
Rp2117
sS'neworderdomainsllc'
p2118
g1
((lp2119
S'whois.web.com'
p2120
aS'whois.neworderdomains.com'
p2121
atp2122
Rp2123
sS'tuonomeitsrl'
p2124
g1
((lp2125
S'whois.apisrs.com'
p2126
atp2127
Rp2128
sS'dropcatchcom885llc'
p2129
g1
((lp2130
S'whois.namebright.com'
p2131
atp2132
Rp2133
sS'enom435incorporated'
p2134
g1
((lp2135
S'whois.enom435.com'
p2136
atp2137
Rp2138
sS'domainsoftheworldnetllc'
p2139
g1
((lp2140
S'whois.web.com'
p2141
aS'whois.domainsoftheworld.net'
p2142
atp2143
Rp2144
sS'dropcatchcom647llc'
p2145
g1
((lp2146
S'whois.namebright.com'
p2147
atp2148
Rp2149
sS'dropcatchcom714llc'
p2150
g1
((lp2151
S'whois.namebright.com'
p2152
atp2153
Rp2154
sS'domainsalsacomllc'
p2155
g1
((lp2156
S'whois.web.com'
p2157
aS'whois.domainsalsa.com'
p2158
atp2159
Rp2160
sS'dropcatchcom517llc'
p2161
g1
((lp2162
S'whois.namebright.com'
p2163
atp2164
Rp2165
sS'enom425incorporated'
p2166
g1
((lp2167
S'whois.web.com'
p2168
aS'whois.enom425.com'
p2169
atp2170
Rp2171
sS'indirectionidentitycorporation'
p2172
g1
((lp2173
S'whois.web.com'
p2174
aS'whois.idindi.com'
p2175
atp2176
Rp2177
sS'dropcatchcom638llc'
p2178
g1
((lp2179
S'whois.namebright.com'
p2180
atp2181
Rp2182
sS'dropcatchcom560llc'
p2183
g1
((lp2184
S'whois.namebright.com'
p2185
atp2186
Rp2187
sS'enom455incorporated'
p2188
g1
((lp2189
S'whois.web.com'
p2190
aS'whois.enom455.com'
p2191
atp2192
Rp2193
sS'dropcatchcom1016llc'
p2194
g1
((lp2195
S'whois.namebright.com'
p2196
atp2197
Rp2198
sS'internetnayanainc'
p2199
g1
((lp2200
S'whois.nayana.com'
p2201
atp2202
Rp2203
sS'intersolvedtncominc'
p2204
g1
((lp2205
S'whois.pheenix.com'
p2206
atp2207
Rp2208
sS'dropcatchcom496llc'
p2209
g1
((lp2210
S'whois.namebright.com'
p2211
atp2212
Rp2213
sS'psijapaninc'
p2214
g1
((lp2215
S'whois.psi.jp'
p2216
atp2217
Rp2218
sS'dropcatchcom454llc'
p2219
g1
((lp2220
S'whois.namebright.com'
p2221
atp2222
Rp2223
sS'fujianlitiannetworktechnologycoltd'
p2224
g1
((lp2225
S'whois.ltnic.com'
p2226
atp2227
Rp2228
sS'jungbonetcoltd'
p2229
g1
((lp2230
S'whois.jungbo.net'
p2231
atp2232
Rp2233
sS'dropcatchcom1044llc'
p2234
g1
((lp2235
S'whois.namebright.com'
p2236
atp2237
Rp2238
sS'dropcatchcom358llc'
p2239
g1
((lp2240
S'whois.namebright.com'
p2241
atp2242
Rp2243
sS'dropcatchcom539llc'
p2244
g1
((lp2245
S'whois.namebright.com'
p2246
atp2247
Rp2248
sS'enomcorporateinc'
p2249
g1
((lp2250
S'whois.web.com'
p2251
aS'whois.enomcorporate.com'
p2252
atp2253
Rp2254
sS'dropcatchcom441llc'
p2255
g1
((lp2256
S'whois.namebright.com'
p2257
atp2258
Rp2259
sS'dropcatchcom385llc'
p2260
g1
((lp2261
S'whois.namebright.com'
p2262
atp2263
Rp2264
sS'widerightdomainsllc'
p2265
g1
((lp2266
S'whois.web.com'
p2267
aS'whois.widerightdomainsllc.com'
p2268
atp2269
Rp2270
sS'cloudbamboollc'
p2271
g1
((lp2272
S'whois.22.cn'
p2273
atp2274
Rp2275
sS'dropcatchcom636llc'
p2276
g1
((lp2277
S'whois.namebright.com'
p2278
atp2279
Rp2280
sS'psiusaincdbadomainrobot'
p2281
g1
((lp2282
S'whois.psi-usa.info'
p2283
atp2284
Rp2285
sS'1hostkoreainc'
p2286
g1
((lp2287
S'whois.1hostkorea.com'
p2288
aS'whois.web.com'
p2289
atp2290
Rp2291
sS'dropjump'
p2292
g1
((lp2293
S'whois.namepal.com'
p2294
atp2295
Rp2296
sS'dropcatchcom936llc'
p2297
g1
((lp2298
S'whois.namebright.com'
p2299
atp2300
Rp2301
sS'core35vtxservicessa'
p2302
g1
((lp2303
S'whois.corehub.net'
p2304
atp2305
Rp2306
sS'threadwatchcominc'
p2307
g1
((lp2308
S'whois.pheenix.com'
p2309
atp2310
Rp2311
sS'dropcatchcom1010llc'
p2312
g1
((lp2313
S'whois.namebright.com'
p2314
atp2315
Rp2316
sS'dropcatchcom765llc'
p2317
g1
((lp2318
S'whois.namebright.com'
p2319
atp2320
Rp2321
sS'planethosterinc'
p2322
g1
((lp2323
S'who.planethoster.net'
p2324
atp2325
Rp2326
sS'dropcatchcom827llc'
p2327
g1
((lp2328
S'whois.namebright.com'
p2329
atp2330
Rp2331
sS'core145titannetworksinternettelecommunicationsserviceprovidinggmbh'
p2332
g1
((lp2333
S'whois.corehub.net'
p2334
atp2335
Rp2336
sS'dropcatchcom412llc'
p2337
g1
((lp2338
S'whois.namebright.com'
p2339
atp2340
Rp2341
sS'regtimeltd'
p2342
g1
((lp2343
S'whois.webnames.ru'
p2344
atp2345
Rp2346
sS'threadagentcominc'
p2347
g1
((lp2348
S'whois.threadagent.com'
p2349
atp2350
Rp2351
sS'dropcatchcom843llc'
p2352
g1
((lp2353
S'whois.namebright.com'
p2354
atp2355
Rp2356
sS'dropcatchcom588llc'
p2357
g1
((lp2358
S'whois.namebright.com'
p2359
atp2360
Rp2361
sS'dropcatchcom641llc'
p2362
g1
((lp2363
S'whois.namebright.com'
p2364
atp2365
Rp2366
sS'dropcatchcom462llc'
p2367
g1
((lp2368
S'whois.namebright.com'
p2369
atp2370
Rp2371
sS'dropcatchcom356llc'
p2372
g1
((lp2373
S'whois.namebright.com'
p2374
atp2375
Rp2376
sS'vitalwerksinternetsolutionsllcdbanoip'
p2377
g1
((lp2378
S'whois.no-ip.com'
p2379
atp2380
Rp2381
sS'webnamescainc'
p2382
g1
((lp2383
S'whois.webnames.ca'
p2384
atp2385
Rp2386
sS'victorynamesllc'
p2387
g1
((lp2388
S'whois.web.com'
p2389
aS'whois.victorynamesllc.com'
p2390
atp2391
Rp2392
sS'dropcatchcom519llc'
p2393
g1
((lp2394
S'whois.namebright.com'
p2395
atp2396
Rp2397
sS'in2netnetworkinc'
p2398
g1
((lp2399
S'whois.in2net.com'
p2400
atp2401
Rp2402
sS'dropcatchcom537llc'
p2403
g1
((lp2404
S'whois.namebright.com'
p2405
atp2406
Rp2407
sS'dropcatchcom979llc'
p2408
g1
((lp2409
S'whois.namebright.com'
p2410
atp2411
Rp2412
sS'chipshotdomainsllc'
p2413
g1
((lp2414
S'whois.web.com'
p2415
aS'whois.chipshotdomainsllc.com'
p2416
atp2417
Rp2418
sS'enom1037inc'
p2419
g1
((lp2420
S'whois.web.com'
p2421
aS'whois.enom1037.com'
p2422
atp2423
Rp2424
sS'netregistryptyltd'
p2425
g1
((lp2426
S'whois.netregistry.net'
p2427
atp2428
Rp2429
sS'alpinedomainsinc'
p2430
g1
((lp2431
S'whois.alpinedomains.com'
p2432
atp2433
Rp2434
sS'gooddomainregistrycom'
p2435
g1
((lp2436
S'whois.gooddomainregistry.com'
p2437
atp2438
Rp2439
sS'dropcatchcom692llc'
p2440
g1
((lp2441
S'whois.namebright.com'
p2442
atp2443
Rp2444
sS'campointag'
p2445
g1
((lp2446
S'whois.internetdomainnameregistrar.org'
p2447
atp2448
Rp2449
sS'dropcatchcom915llc'
p2450
g1
((lp2451
S'whois.namebright.com'
p2452
atp2453
Rp2454
sS'mijninternetoplossingbv'
p2455
g1
((lp2456
S'whois.mijninternetoplossing.nl'
p2457
atp2458
Rp2459
sS'deepdivedomainsllc'
p2460
g1
((lp2461
S'whois.web.com'
p2462
aS'whois.deepdivedomains.com'
p2463
atp2464
Rp2465
sS'nominfinitumincorporated'
p2466
g1
((lp2467
S'whois.web.com'
p2468
atp2469
Rp2470
sS'dropcatchcom622llc'
p2471
g1
((lp2472
S'whois.namebright.com'
p2473
atp2474
Rp2475
sS'freespiritdomainsllc'
p2476
g1
((lp2477
S'whois.freespiritdomains.com'
p2478
aS'whois.web.com'
p2479
atp2480
Rp2481
sS'hangingcurvedomainsllc'
p2482
g1
((lp2483
S'whois.web.com'
p2484
aS'whois.hangingcurvedomainsllc.com'
p2485
atp2486
Rp2487
sS'upperlinklimited'
p2488
g1
((lp2489
S'whois.upperlink.ng'
p2490
atp2491
Rp2492
sS'pheenix29llc'
p2493
g1
((lp2494
S'whois.pheenix.com'
p2495
atp2496
Rp2497
sS'domaincomesaroundcomllc'
p2498
g1
((lp2499
S'whois.domaincomesaround.com'
p2500
aS'whois.web.com'
p2501
atp2502
Rp2503
sS'namepalcom8024inc'
p2504
g1
((lp2505
S'whois.web.com'
p2506
atp2507
Rp2508
sS'viseshinfotecnicsltddbasigndomainscom'
p2509
g1
((lp2510
S'whois.signdomains.com'
p2511
atp2512
Rp2513
sS'dropcatchcom656llc'
p2514
g1
((lp2515
S'whois.namebright.com'
p2516
atp2517
Rp2518
sS'dynadot12llc'
p2519
g1
((lp2520
S'whois.dynadot12.com'
p2521
atp2522
Rp2523
sS'drophub'
p2524
g1
((lp2525
S'whois.namepal.com'
p2526
atp2527
Rp2528
sS'dropcatchcom591llc'
p2529
g1
((lp2530
S'whois.namebright.com'
p2531
atp2532
Rp2533
sS'rebelca'
p2534
g1
((lp2535
S'whois.domainsatcost.ca'
p2536
atp2537
Rp2538
sS'dropcatchcom495llc'
p2539
g1
((lp2540
S'whois.namebright.com'
p2541
atp2542
Rp2543
sS'cloudboomllc'
p2544
g1
((lp2545
S'whois.22.cn'
p2546
atp2547
Rp2548
sS'dynadot6llc'
p2549
g1
((lp2550
S'whois.dynadot6.com'
p2551
atp2552
Rp2553
sS'blastdomainsllc'
p2554
g1
((lp2555
S'whois.namebright.com'
p2556
atp2557
Rp2558
sS'namepalcom8009'
p2559
g1
((lp2560
S'whois.web.com'
p2561
aS'whois.namepal.com'
p2562
atp2563
Rp2564
sS'dropcatchcom878llc'
p2565
g1
((lp2566
S'whois.namebright.com'
p2567
atp2568
Rp2569
sS'namepalcom8005'
p2570
g1
((lp2571
S'whois.namepal.com'
p2572
atp2573
Rp2574
sS'namepalcom8004'
p2575
g1
((lp2576
S'whois.web.com'
p2577
aS'whois.namepal.com'
p2578
atp2579
Rp2580
sS'core101kampnetzwerkdienstegmbh'
p2581
g1
((lp2582
S'whois.corehub.net'
p2583
atp2584
Rp2585
sS'namepalcom8006'
p2586
g1
((lp2587
S'whois.web.com'
p2588
aS'whois.namepal.com'
p2589
atp2590
Rp2591
sS'namepalcom8001'
p2592
g1
((lp2593
S'whois.web.com'
p2594
aS'whois.namepal.com'
p2595
atp2596
Rp2597
sS'namepalcom8003'
p2598
g1
((lp2599
S'whois.paimi.com'
p2600
aS'whois.namepal.com'
p2601
atp2602
Rp2603
sS'namepalcom8002'
p2604
g1
((lp2605
S'whois.web.com'
p2606
aS'whois.namepal.com'
p2607
atp2608
Rp2609
sS'enomtooinc'
p2610
g1
((lp2611
S'whois.web.com'
p2612
aS'whois.enomtoo.com'
p2613
atp2614
Rp2615
sS'findyouanamecomllc'
p2616
g1
((lp2617
S'whois.web.com'
p2618
aS'whois.findyouaname.com'
p2619
atp2620
Rp2621
sS'domainbandinc'
p2622
g1
((lp2623
S'whois.domainband.com'
p2624
atp2625
Rp2626
sS'bigrocksolutionsltd'
p2627
g1
((lp2628
S'whois.bigrock.com'
p2629
atp2630
Rp2631
sS'yourdomainllc'
p2632
g1
((lp2633
S'whois.yourdomainllc.com'
p2634
aS'whois.web.com'
p2635
atp2636
Rp2637
sS'alpnameslimited'
p2638
g1
((lp2639
S'whois.alpnames.com'
p2640
atp2641
Rp2642
sS'domainroyalecomllc'
p2643
g1
((lp2644
S'whois.web.com'
p2645
aS'whois.domainroyale.com'
p2646
atp2647
Rp2648
sS'treasuretrovedomainsllc'
p2649
g1
((lp2650
S'whois.web.com'
p2651
aS'whois.treasuretrovedomainsllc.com'
p2652
atp2653
Rp2654
sS'dropcatchcom601llc'
p2655
g1
((lp2656
S'whois.namebright.com'
p2657
atp2658
Rp2659
sS'dropcatchcom1018llc'
p2660
g1
((lp2661
S'whois.namebright.com'
p2662
atp2663
Rp2664
sS'enom397incorporated'
p2665
g1
((lp2666
S'whois.web.com'
p2667
atp2668
Rp2669
sS'1hostisraelinc'
p2670
g1
((lp2671
S'wh0is.pocketdomain.com'
p2672
atp2673
Rp2674
sS'dropcatchcom1035llc'
p2675
g1
((lp2676
S'whois.namebright.com'
p2677
atp2678
Rp2679
sS'centuryorientalinternationalcoltd'
p2680
g1
((lp2681
S'whois.51web.hk'
p2682
atp2683
Rp2684
sS'dropcatchcom609llc'
p2685
g1
((lp2686
S'whois.namebright.com'
p2687
atp2688
Rp2689
sS'reclaimdomainsllc'
p2690
g1
((lp2691
S'whois.namebright.com'
p2692
atp2693
Rp2694
sS'enom646inc'
p2695
g1
((lp2696
S'whois.enom646.com'
p2697
atp2698
Rp2699
sS'gomontenegrodomainsllc'
p2700
g1
((lp2701
S'whois.gomontenegrodomains.com'
p2702
atp2703
Rp2704
sS'erwinrommelllc'
p2705
g1
((lp2706
S'whois.pheenix.com'
p2707
atp2708
Rp2709
sS'ejeegroupholdingslimited'
p2710
g1
((lp2711
S'whois.biwo.com'
p2712
aS'whois.yiyu.com'
p2713
atp2714
Rp2715
sS'domainoriginalllc'
p2716
g1
((lp2717
S'whois.web.com'
p2718
aS'whois.domainoriginal.com'
p2719
atp2720
Rp2721
sS'lexsynergylimited'
p2722
g1
((lp2723
S'whois.lexsynergy.com'
p2724
atp2725
Rp2726
sS'dropcatchcom556llc'
p2727
g1
((lp2728
S'whois.namebright.com'
p2729
atp2730
Rp2731
sS'belmontdomainscomllc'
p2732
g1
((lp2733
S'whois.web.com'
p2734
aS'whois.belmontdomains.com'
p2735
atp2736
Rp2737
sS'name108inc'
p2738
g1
((lp2739
S'whois.sunmounta.in'
p2740
atp2741
Rp2742
sS'intersolvedflcominc'
p2743
g1
((lp2744
S'whois.pheenix.com'
p2745
atp2746
Rp2747
sS'chengduwestdimensiondigitaltechnologycoltd'
p2748
g1
((lp2749
S'whois.west263.com'
p2750
atp2751
Rp2752
sS'domainnamebridgeinc'
p2753
g1
((lp2754
S'whois.domainnamebridge.com'
p2755
atp2756
Rp2757
sS'everyonesinternetllcdbasoftlayer'
p2758
g1
((lp2759
S'whois.softlayer.com'
p2760
atp2761
Rp2762
sS'pheenix83llc'
p2763
g1
((lp2764
S'whois.pheenix.com'
p2765
atp2766
Rp2767
sS'dotaraicoltd'
p2768
g1
((lp2769
S'whois.dotarai.com'
p2770
atp2771
Rp2772
sS'nicstelekomunikasyonticltdsti'
p2773
g1
((lp2774
S'whois.nicproxy.com'
p2775
atp2776
Rp2777
sS'dropcatchcom875llc'
p2778
g1
((lp2779
S'whois.namebright.com'
p2780
atp2781
Rp2782
sS'registercominc'
p2783
g1
((lp2784
S'whois.register.com'
p2785
atp2786
Rp2787
sS'registrardirectllc'
p2788
g1
((lp2789
S'whois.namebright.com'
p2790
atp2791
Rp2792
sS'hangzhouebusinessservicescoltd'
p2793
g1
((lp2794
S'whois.22.cn'
p2795
atp2796
Rp2797
sS'dropcatchcom853llc'
p2798
g1
((lp2799
S'whois.namebright.com'
p2800
atp2801
Rp2802
sS'dropcatchcom549llc'
p2803
g1
((lp2804
S'whois.namebright.com'
p2805
atp2806
Rp2807
sS'dropcatchcom430llc'
p2808
g1
((lp2809
S'whois.namebright.com'
p2810
atp2811
Rp2812
sS'dropcatchcom619llc'
p2813
g1
((lp2814
S'whois.namebright.com'
p2815
atp2816
Rp2817
sS'goserveyourdomaincomllc'
p2818
g1
((lp2819
S'whois.web.com'
p2820
aS'whois.goserveyourdomain.com'
p2821
atp2822
Rp2823
sS'dropcatchcom550llc'
p2824
g1
((lp2825
S'whois.namebright.com'
p2826
atp2827
Rp2828
sS'enom393incorporated'
p2829
g1
((lp2830
S'whois.web.com'
p2831
aS'whois.enom393.com'
p2832
atp2833
Rp2834
sS'corehubsrl'
p2835
g1
((lp2836
S'whois.corehub.net'
p2837
atp2838
Rp2839
sS'tuvaludomainsllc'
p2840
g1
((lp2841
S'whois2.domain.com'
p2842
atp2843
Rp2844
sS'godomaingocomllc'
p2845
g1
((lp2846
S'whois.web.com'
p2847
aS'whois.godomaingo.com'
p2848
atp2849
Rp2850
sS'nic1inc'
p2851
g1
((lp2852
S'whois.myorderbox.com'
p2853
atp2854
Rp2855
sS'bluerazordomainsllc'
p2856
g1
((lp2857
S'whois.bluerazor.com'
p2858
atp2859
Rp2860
sS'notsofamousnamescomllc'
p2861
g1
((lp2862
S'whois.web.com'
p2863
aS'whois.notsofamousnames.com'
p2864
atp2865
Rp2866
sS'cloudflareinc'
p2867
g1
((lp2868
S'whois.cloudflare.com'
p2869
atp2870
Rp2871
sS'dropcatchcom558llc'
p2872
g1
((lp2873
S'whois.namebright.com'
p2874
atp2875
Rp2876
sS'dropcatchcom386llc'
p2877
g1
((lp2878
S'whois.namebright.com'
p2879
atp2880
Rp2881
sS'ipmirrorpteltddbaipmirror'
p2882
g1
((lp2883
S'whois.ipmirror.com'
p2884
atp2885
Rp2886
sS'profilebuildercomllc'
p2887
g1
((lp2888
S'whois.profilebuilder.com'
p2889
atp2890
Rp2891
sS'core127visionconsulting'
p2892
g1
((lp2893
S'whois.corehub.net'
p2894
atp2895
Rp2896
sS'dropcatchcom599llc'
p2897
g1
((lp2898
S'whois.namebright.com'
p2899
atp2900
Rp2901
sS'vladtheimpalerllc'
p2902
g1
((lp2903
S'whois.pheenix.com'
p2904
atp2905
Rp2906
sS'dropcatchcom760llc'
p2907
g1
((lp2908
S'whois.namebright.com'
p2909
atp2910
Rp2911
sS'dropcatchcom480llc'
p2912
g1
((lp2913
S'whois.namebright.com'
p2914
atp2915
Rp2916
sS'baronofdomainscomllc'
p2917
g1
((lp2918
S'whois.web.com'
p2919
aS'whois.baronofdomains.com'
p2920
atp2921
Rp2922
sS'mvpdomainnamescomllc'
p2923
g1
((lp2924
S'whois.web.com'
p2925
aS'whois.mvpdomainnames.com'
p2926
atp2927
Rp2928
sS'entertainmentnamesincorporated'
p2929
g1
((lp2930
S'whois.web.com'
p2931
atp2932
Rp2933
sS'dropcatchcom630llc'
p2934
g1
((lp2935
S'whois.namebright.com'
p2936
atp2937
Rp2938
sS'2030138ontarioincdbanamesbeyondcomanddbagoodluckdomaincom'
p2939
g1
((lp2940
S'whois.namesbeyond.com'
p2941
atp2942
Rp2943
sS'namepalcom8009inc'
p2944
g1
((lp2945
S'whois.web.com'
p2946
atp2947
Rp2948
sS'robertelee888llc'
p2949
g1
((lp2950
S'whois.pheenix.com'
p2951
atp2952
Rp2953
sS'enom405incorporated'
p2954
g1
((lp2955
S'whois.enom405.com'
p2956
atp2957
Rp2958
sS'domainthenettechnologiesltd'
p2959
g1
((lp2960
S'whois.domainthenet.com'
p2961
atp2962
Rp2963
sS'riptidedomainsllc'
p2964
g1
((lp2965
S'whois.web.com'
p2966
aS'whois.riptidedomains.com'
p2967
atp2968
Rp2969
sS'dropcatchcom398llc'
p2970
g1
((lp2971
S'whois.namebright.com'
p2972
atp2973
Rp2974
sS'dropcatchcom905llc'
p2975
g1
((lp2976
S'whois.namebright.com'
p2977
atp2978
Rp2979
sS'dropsavecominc'
p2980
g1
((lp2981
S'whois.web.com'
p2982
atp2983
Rp2984
sS'dropcatchcom547llc'
p2985
g1
((lp2986
S'whois.namebright.com'
p2987
atp2988
Rp2989
sS'dropcatchcom372llc'
p2990
g1
((lp2991
S'whois.namebright.com'
p2992
atp2993
Rp2994
sS'midwestdomainsllc'
p2995
g1
((lp2996
S'whois.web.com'
p2997
aS'whois.midwestdomainsllc.com'
p2998
atp2999
Rp3000
sS'searchnresqinc'
p3001
g1
((lp3002
S'whois.web.com'
p3003
aS'whois.searchnresq.com'
p3004
atp3005
Rp3006
sS'domainpeopleinc'
p3007
g1
((lp3008
S'whois.domainpeople.com'
p3009
atp3010
Rp3011
sS'pheenix15llc'
p3012
g1
((lp3013
S'whois.pheenix.com'
p3014
atp3015
Rp3016
sS'sbsnamesincorporated'
p3017
g1
((lp3018
S'whois.sbsnames.com'
p3019
atp3020
Rp3021
sS'dropcatchcom754llc'
p3022
g1
((lp3023
S'whois.namebright.com'
p3024
atp3025
Rp3026
sS'core136easygigacom'
p3027
g1
((lp3028
S'whois.corehub.net'
p3029
atp3030
Rp3031
sS'dropcatchcom953llc'
p3032
g1
((lp3033
S'whois.namebright.com'
p3034
atp3035
Rp3036
sS'heavenswillllc'
p3037
g1
((lp3038
S'whois.pheenix.com'
p3039
atp3040
Rp3041
sS'dropcatchcom345llc'
p3042
g1
((lp3043
S'whois.namebright.com'
p3044
atp3045
Rp3046
sS'dropcatchcom581llc'
p3047
g1
((lp3048
S'whois.namebright.com'
p3049
atp3050
Rp3051
sS'core96globalvillagegmbh'
p3052
g1
((lp3053
S'whois.corehub.net'
p3054
atp3055
Rp3056
sS'dropcatchcom486llc'
p3057
g1
((lp3058
S'whois.namebright.com'
p3059
atp3060
Rp3061
sS'netearthoneinc'
p3062
g1
((lp3063
S'whois.advancedregistrar.com'
p3064
atp3065
Rp3066
sS'name113inc'
p3067
g1
((lp3068
S'whois.deerwood.name'
p3069
atp3070
Rp3071
sS'privatelabelinternetservicekioskincdbapliskcom'
p3072
g1
((lp3073
S'whois.plisk.com'
p3074
atp3075
Rp3076
sS'dropcatchcom703llc'
p3077
g1
((lp3078
S'whois.namebright.com'
p3079
atp3080
Rp3081
sS'dropcatchcom805llc'
p3082
g1
((lp3083
S'whois.namebright.com'
p3084
atp3085
Rp3086
sS'dropcatchcom903llc'
p3087
g1
((lp3088
S'whois.namebright.com'
p3089
atp3090
Rp3091
sS'dondominioscip'
p3092
g1
((lp3093
S'whois.scip.es'
p3094
atp3095
Rp3096
sS'dropcatchcom611llc'
p3097
g1
((lp3098
S'whois.namebright.com'
p3099
atp3100
Rp3101
sS'dropcatchcom777llc'
p3102
g1
((lp3103
S'whois.namebright.com'
p3104
atp3105
Rp3106
sS'vedacore'
p3107
g1
((lp3108
S'whois.vedacore.com'
p3109
atp3110
Rp3111
sS'glamdomainsllc'
p3112
g1
((lp3113
S'whois.namebright.com'
p3114
atp3115
Rp3116
sS'emiratestelecommunicationscorporationetisalat'
p3117
g1
((lp3118
S'whois.nic.ae'
p3119
atp3120
Rp3121
sS'dropcatchcom912llc'
p3122
g1
((lp3123
S'whois.namebright.com'
p3124
atp3125
Rp3126
sS'blockhostllc'
p3127
g1
((lp3128
S'whois.namebright.com'
p3129
atp3130
Rp3131
sS'bdlsystmessasdbaprodomaines'
p3132
g1
((lp3133
S'whois.prodomaines.com'
p3134
atp3135
Rp3136
sS'domainlocalellc'
p3137
g1
((lp3138
S'whois.web.com'
p3139
aS'whois.domainlocale.com'
p3140
atp3141
Rp3142
sS'dropcatchcom569llc'
p3143
g1
((lp3144
S'whois.namebright.com'
p3145
atp3146
Rp3147
sS'pavietnamcompanylimited'
p3148
g1
((lp3149
S'whois.pavietnam.vn'
p3150
atp3151
Rp3152
sS'eunamesoregoncomllc'
p3153
g1
((lp3154
S'whois.web.com'
p3155
aS'whois.eunamesoregon.com'
p3156
atp3157
Rp3158
sS'thomasjeffersonllc'
p3159
g1
((lp3160
S'whois.pheenix.com'
p3161
atp3162
Rp3163
sS'pheenix13llc'
p3164
g1
((lp3165
S'whois.pheenix.com'
p3166
atp3167
Rp3168
sS'dropcatchcom553llc'
p3169
g1
((lp3170
S'whois.namebright.com'
p3171
atp3172
Rp3173
sS'internettersltd'
p3174
g1
((lp3175
S'whois.internetters.co.uk'
p3176
atp3177
Rp3178
sS'pacificdomainsllc'
p3179
g1
((lp3180
S'whois.web.com'
p3181
aS'whois.pacificdomainsllc.com'
p3182
atp3183
Rp3184
sS'dropcatchcom587llc'
p3185
g1
((lp3186
S'whois.namebright.com'
p3187
atp3188
Rp3189
sS'pocketdomaincominc'
p3190
g1
((lp3191
S'whois.pocketdomain.com'
p3192
atp3193
Rp3194
sS'theregistryatinfoavenuellcdbaspiritcommunications'
p3195
g1
((lp3196
S'whois.iaregistry.com'
p3197
atp3198
Rp3199
sS'dotnamekoreacorp'
p3200
g1
((lp3201
S'whois.dotname.co.kr'
p3202
atp3203
Rp3204
sS'wideleftdomainsllc'
p3205
g1
((lp3206
S'whois.web.com'
p3207
aS'whois.wideleftdomainsllc.com'
p3208
atp3209
Rp3210
sS'enomateinc'
p3211
g1
((lp3212
S'whois.web.com'
p3213
aS'whois.enomate.com'
p3214
atp3215
Rp3216
sS'dropcatchcom527llc'
p3217
g1
((lp3218
S'whois.namebright.com'
p3219
atp3220
Rp3221
sS'dropcatchcom712llc'
p3222
g1
((lp3223
S'whois.namebright.com'
p3224
atp3225
Rp3226
sS'todayniccominc'
p3227
g1
((lp3228
S'whois.todaynic.com'
p3229
atp3230
Rp3231
sS'domainintheholecomllc'
p3232
g1
((lp3233
S'whois.web.com'
p3234
aS'whois.domaininthehole.com'
p3235
atp3236
Rp3237
sS'dropcatchcom705llc'
p3238
g1
((lp3239
S'whois.namebright.com'
p3240
atp3241
Rp3242
sS'dropcatchcom763llc'
p3243
g1
((lp3244
S'whois.namebright.com'
p3245
atp3246
Rp3247
sS'magicfridayinc'
p3248
g1
((lp3249
S'whois.magicfriday.com'
p3250
atp3251
Rp3252
sS'swhostingcommunicationstechnologiessl'
p3253
g1
((lp3254
S'whois.serveisweb.com'
p3255
atp3256
Rp3257
sS'dropcatchcom532llc'
p3258
g1
((lp3259
S'whois.namebright.com'
p3260
atp3261
Rp3262
sS'dropcatchcom617llc'
p3263
g1
((lp3264
S'whois.namebright.com'
p3265
atp3266
Rp3267
sS'dropcatchcom873llc'
p3268
g1
((lp3269
S'whois.namebright.com'
p3270
atp3271
Rp3272
sS'dropcatchcom969llc'
p3273
g1
((lp3274
S'whois.namebright.com'
p3275
atp3276
Rp3277
sS'namepalcom8021'
p3278
g1
((lp3279
S'whois.web.com'
p3280
aS'whois.namepal.com'
p3281
atp3282
Rp3283
sS'dropcatchcom713llc'
p3284
g1
((lp3285
S'whois.namebright.com'
p3286
atp3287
Rp3288
sS'plato888llc'
p3289
g1
((lp3290
S'whois.pheenix.com'
p3291
atp3292
Rp3293
sS'domainducksincdbapersonalnamescom'
p3294
g1
((lp3295
S'whois2.domain.com'
p3296
atp3297
Rp3298
sS'dropcatchcom606llc'
p3299
g1
((lp3300
S'whois.namebright.com'
p3301
atp3302
Rp3303
sS'dropcatchcom855llc'
p3304
g1
((lp3305
S'whois.namebright.com'
p3306
atp3307
Rp3308
sS'bbonline'
p3309
g1
((lp3310
S'whois.nominate.net'
p3311
atp3312
Rp3313
sS'dropcatchcom1356llc'
p3314
g1
((lp3315
S'whois.namebright.com'
p3316
atp3317
Rp3318
sS'enom445incorporated'
p3319
g1
((lp3320
S'whois.enom445.com'
p3321
atp3322
Rp3323
sS'melbourneitltd'
p3324
g1
((lp3325
S'whois.melbourneit.com'
p3326
atp3327
Rp3328
sS'domainnamehighwayllc'
p3329
g1
((lp3330
S'whois.domainnamehighway.com'
p3331
atp3332
Rp3333
sS'sicherregisterincorporated'
p3334
g1
((lp3335
S'whois.sicherregister.com'
p3336
aS'whois.web.com'
p3337
atp3338
Rp3339
sS'gabiainc'
p3340
g1
((lp3341
S'whois.gabia.com'
p3342
atp3343
Rp3344
sS'dropcatchcom787llc'
p3345
g1
((lp3346
S'whois.namebright.com'
p3347
atp3348
Rp3349
sS'tppwholesaleptyltd'
p3350
g1
((lp3351
S'whois.distributeit.com.au'
p3352
atp3353
Rp3354
sS'dropcatchcom548llc'
p3355
g1
((lp3356
S'whois.namebright.com'
p3357
atp3358
Rp3359
sS'dropcatchcom521llc'
p3360
g1
((lp3361
S'whois.namebright.com'
p3362
atp3363
Rp3364
sS'koreacentercomcoltd'
p3365
g1
((lp3366
S'whois.ssandomain.com'
p3367
atp3368
Rp3369
sS'domaingetterllc'
p3370
g1
((lp3371
S'whois.namebright.com'
p3372
atp3373
Rp3374
sS'allworldnamescomllc'
p3375
g1
((lp3376
S'whois.web.com'
p3377
aS'whois.allworldnames.com'
p3378
atp3379
Rp3380
sS'curveballdomainsllc'
p3381
g1
((lp3382
S'whois.web.com'
p3383
aS'whois.curveballdomainsllc.com'
p3384
atp3385
Rp3386
sS'domainpickupllc'
p3387
g1
((lp3388
S'whois.web.com'
p3389
aS'whois.domainpickupllc.com'
p3390
atp3391
Rp3392
sS'securagmbh'
p3393
g1
((lp3394
S'whois.secura-gmbh.de'
p3395
atp3396
Rp3397
sS'dropcatchcom884llc'
p3398
g1
((lp3399
S'whois.namebright.com'
p3400
atp3401
Rp3402
sS'dropcatchcom529llc'
p3403
g1
((lp3404
S'whois.namebright.com'
p3405
atp3406
Rp3407
sS'dropcatchcom355llc'
p3408
g1
((lp3409
S'whois.namebright.com'
p3410
atp3411
Rp3412
sS'dropcatchcom1027llc'
p3413
g1
((lp3414
S'whois.namebright.com'
p3415
atp3416
Rp3417
sS'dropcatchcom967llc'
p3418
g1
((lp3419
S'whois.namebright.com'
p3420
atp3421
Rp3422
sS'pairnetworksincdbapairnic'
p3423
g1
((lp3424
S'whois.pairnic.com'
p3425
atp3426
Rp3427
sS'vitalwerksinternetsolutionsllcnoipcom'
p3428
g1
((lp3429
S'whois.no-ip.com'
p3430
atp3431
Rp3432
sS'dropcatchcom810llc'
p3433
g1
((lp3434
S'whois.namebright.com'
p3435
atp3436
Rp3437
sS'oldworldaliasescomllc'
p3438
g1
((lp3439
S'whois.web.com'
p3440
aS'whois.oldworldaliases.com'
p3441
atp3442
Rp3443
sS'easydnstechnologiesinc'
p3444
g1
((lp3445
S'whois.easydns.com'
p3446
atp3447
Rp3448
sS'rethemhostingllcspecializinginddosmitigationandattackresilience'
p3449
g1
((lp3450
S'whois.rethemhosting.net'
p3451
atp3452
Rp3453
sS'insanenamesllc'
p3454
g1
((lp3455
S'whois.namebright.com'
p3456
atp3457
Rp3458
sS'namesecurecom'
p3459
g1
((lp3460
S'whois.namesecure.com'
p3461
atp3462
Rp3463
sS'core104domainefrfrenchconnexion'
p3464
g1
((lp3465
S'whois.corehub.net'
p3466
atp3467
Rp3468
sS'imperialregistrationsinc'
p3469
g1
((lp3470
S'whois.ireg.net'
p3471
atp3472
Rp3473
sS'dropcatchcom818llc'
p3474
g1
((lp3475
S'whois.namebright.com'
p3476
atp3477
Rp3478
sS'nicregllc'
p3479
g1
((lp3480
S'whois.nicreg.com'
p3481
atp3482
Rp3483
sS'estrategiaswebsitesl'
p3484
g1
((lp3485
S'whois.extranetdeclientes.com'
p3486
atp3487
Rp3488
sS'infocomnetworkltd'
p3489
g1
((lp3490
S'whois.tradeindia.com'
p3491
atp3492
Rp3493
sS'namebakellc'
p3494
g1
((lp3495
S'whois.namebright.com'
p3496
atp3497
Rp3498
sS'dropcatchcom998llc'
p3499
g1
((lp3500
S'whois.namebright.com'
p3501
atp3502
Rp3503
sS'bestdropnamesllc'
p3504
g1
((lp3505
S'whois.web.com'
p3506
aS'whois.bestdropnamesllc.com'
p3507
atp3508
Rp3509
sS'tigertechnologiesllc'
p3510
g1
((lp3511
S'whois.tigertech.net'
p3512
atp3513
Rp3514
sS'dotallianceinc'
p3515
g1
((lp3516
S'whois.dotalliance.com'
p3517
atp3518
Rp3519
sS'dropcatchcom752llc'
p3520
g1
((lp3521
S'whois.namebright.com'
p3522
atp3523
Rp3524
sS'domainextremellc'
p3525
g1
((lp3526
S'whois.namebright.com'
p3527
atp3528
Rp3529
sS'dropcatchcom373llc'
p3530
g1
((lp3531
S'whois.namebright.com'
p3532
atp3533
Rp3534
sS'ourdomainslimited'
p3535
g1
((lp3536
S'whois.ourdomains.com'
p3537
atp3538
Rp3539
sS'dropcatchcom748llc'
p3540
g1
((lp3541
S'whois.namebright.com'
p3542
atp3543
Rp3544
sS'west263internationallimited'
p3545
g1
((lp3546
S'whois.hkdns.hk'
p3547
atp3548
Rp3549
sS'pinkelephantdomainsllc'
p3550
g1
((lp3551
S'whois.web.com'
p3552
aS'whois.pinkelephantdomains.com'
p3553
atp3554
Rp3555
sS'nameturnllc'
p3556
g1
((lp3557
S'whois.namebright.com'
p3558
atp3559
Rp3560
sS'ripcurldomainsllc'
p3561
g1
((lp3562
S'whois.web.com'
p3563
aS'whois.ripcurldomains.com'
p3564
atp3565
Rp3566
sS'dropcatchcom882llc'
p3567
g1
((lp3568
S'whois.namebright.com'
p3569
atp3570
Rp3571
sS'domdrillcominc'
p3572
g1
((lp3573
S'whois.domdrill.com'
p3574
atp3575
Rp3576
sS'dropcatchcom492llc'
p3577
g1
((lp3578
S'whois.namebright.com'
p3579
atp3580
Rp3581
sS'drophubcominc'
p3582
g1
((lp3583
S'whois.web.com'
p3584
aS'whois.namepal.com'
p3585
atp3586
Rp3587
sS'dropcatchcom1029llc'
p3588
g1
((lp3589
S'whois.namebright.com'
p3590
atp3591
Rp3592
sS'abovecomptyltd'
p3593
g1
((lp3594
S'whois.above.com'
p3595
atp3596
Rp3597
sS'dropcatchcom961llc'
p3598
g1
((lp3599
S'whois.namebright.com'
p3600
atp3601
Rp3602
sS'netim'
p3603
g1
((lp3604
S'whois.netim.com'
p3605
atp3606
Rp3607
sS'evoplusltd'
p3608
g1
((lp3609
S'whois.evonames.com'
p3610
atp3611
Rp3612
sS'hostlaneinc'
p3613
g1
((lp3614
S'whois2.domain.com'
p3615
atp3616
Rp3617
sS'registrarmanagerinc'
p3618
g1
((lp3619
S'whois.registrarmanager.com'
p3620
atp3621
Rp3622
sS'dropcatchcom1019llc'
p3623
g1
((lp3624
S'whois.namebright.com'
p3625
atp3626
Rp3627
sS'dropcatchcom686llc'
p3628
g1
((lp3629
S'whois.namebright.com'
p3630
atp3631
Rp3632
sS'enom451incorporated'
p3633
g1
((lp3634
S'whois.enom451.com'
p3635
atp3636
Rp3637
sS'matbaocorporation'
p3638
g1
((lp3639
S'whois.matbao.net'
p3640
atp3641
Rp3642
sS'dropcatchcom453llc'
p3643
g1
((lp3644
S'whois.namebright.com'
p3645
atp3646
Rp3647
sS'dropcatchcom955llc'
p3648
g1
((lp3649
S'whois.namebright.com'
p3650
atp3651
Rp3652
sS'domainingorollc'
p3653
g1
((lp3654
S'whois.web.com'
p3655
aS'whois.domainingoro.com'
p3656
atp3657
Rp3658
sS'domainsofthedaynetllc'
p3659
g1
((lp3660
S'whois.web.com'
p3661
aS'whois.domainsoftheday.net'
p3662
atp3663
Rp3664
sS'pheenix90llc'
p3665
g1
((lp3666
S'whois.pheenix.com'
p3667
atp3668
Rp3669
sS'dropcatchcom394llc'
p3670
g1
((lp3671
S'whois.namebright.com'
p3672
atp3673
Rp3674
sS'enom453incorporated'
p3675
g1
((lp3676
S'whois.enom453.com'
p3677
atp3678
Rp3679
sS'dnsnetinternetservicegmbh'
p3680
g1
((lp3681
S'whois.dns-net.de'
p3682
atp3683
Rp3684
sS'tucowsdomainsinc'
p3685
g1
((lp3686
S'whois.tucows.com'
p3687
atp3688
Rp3689
sS'uberglobale1ptyltd'
p3690
g1
((lp3691
S'whois.myobnet.com'
p3692
atp3693
Rp3694
sS'domainaheadllc'
p3695
g1
((lp3696
S'whois.namebright.com'
p3697
atp3698
Rp3699
sS'jscregistrarr01'
p3700
g1
((lp3701
S'whois.r01.ru'
p3702
atp3703
Rp3704
sS'youdamaincomllc'
p3705
g1
((lp3706
S'whois.web.com'
p3707
aS'whois.youdamain.com'
p3708
atp3709
Rp3710
sS'enom1036inc'
p3711
g1
((lp3712
S'whois.enom1036.com'
p3713
atp3714
Rp3715
sS'dropcatchcom917llc'
p3716
g1
((lp3717
S'whois.namebright.com'
p3718
atp3719
Rp3720
sS'nhanhoasoftwarecompanyltd'
p3721
g1
((lp3722
S'whois.nhanhoa.com'
p3723
atp3724
Rp3725
sS'dropcatchcom522llc'
p3726
g1
((lp3727
S'whois.namebright.com'
p3728
atp3729
Rp3730
sS'pararescuedomainscomllc'
p3731
g1
((lp3732
S'whois.web.com'
p3733
aS'whois.pararescuedomains.com'
p3734
atp3735
Rp3736
sS'dropcatchcom803llc'
p3737
g1
((lp3738
S'whois.namebright.com'
p3739
atp3740
Rp3741
sS'advancedinternettechnologiesinc'
p3742
g1
((lp3743
S'whois.aitdomains.com'
p3744
atp3745
Rp3746
sS'launchpadcominc'
p3747
g1
((lp3748
S'whois.launchpad.com'
p3749
atp3750
Rp3751
sS'northnamesinc'
p3752
g1
((lp3753
S'whois.web.com'
p3754
aS'whois.namepal.com'
p3755
atp3756
Rp3757
sS'dropcatchcom1017llc'
p3758
g1
((lp3759
S'whois.namebright.com'
p3760
atp3761
Rp3762
sS'dropcatchcom731llc'
p3763
g1
((lp3764
S'whois.namebright.com'
p3765
atp3766
Rp3767
sS'totalwebsolutionslimitedtradingastotalregistrations'
p3768
g1
((lp3769
S'whois.totalregistrations.com'
p3770
atp3771
Rp3772
sS'dropcatchcom562llc'
p3773
g1
((lp3774
S'whois.namebright.com'
p3775
atp3776
Rp3777
sS'namecheapinc'
p3778
g1
((lp3779
S'whois.namecheap.com'
p3780
atp3781
Rp3782
sS'core41teliasonerasverigeab'
p3783
g1
((lp3784
S'whois.corehub.net'
p3785
atp3786
Rp3787
sS'enom654inc'
p3788
g1
((lp3789
S'whois.enom654.com'
p3790
aS'whois.web.com'
p3791
atp3792
Rp3793
sS'domainnamelookupllc'
p3794
g1
((lp3795
S'whois2.domain.com'
p3796
atp3797
Rp3798
sS'dropcatchcom688llc'
p3799
g1
((lp3800
S'whois.namebright.com'
p3801
atp3802
Rp3803
sS'core137bradlerkrantzgmbhcokg'
p3804
g1
((lp3805
S'whois.corehub.net'
p3806
atp3807
Rp3808
sS'core115serverservicegmbh'
p3809
g1
((lp3810
S'whois.corehub.net'
p3811
atp3812
Rp3813
sS'cvjogjacamp'
p3814
g1
((lp3815
S'whois.resellercamp.com'
p3816
atp3817
Rp3818
sS'dropcatchcom828llc'
p3819
g1
((lp3820
S'whois.namebright.com'
p3821
atp3822
Rp3823
sS'gochinadomainsllc'
p3824
g1
((lp3825
S'whois.gochinadomains.com'
p3826
atp3827
Rp3828
sS'pheenix52llc'
p3829
g1
((lp3830
S'whois.pheenix.com'
p3831
atp3832
Rp3833
sS'dropcatchcom455llc'
p3834
g1
((lp3835
S'whois.namebright.com'
p3836
atp3837
Rp3838
sS'soldierofonedomainscomllc'
p3839
g1
((lp3840
S'whois.web.com'
p3841
aS'whois.soldierofonedomains.com'
p3842
atp3843
Rp3844
sS'lemonsharkdomainsllc'
p3845
g1
((lp3846
S'whois.web.com'
p3847
aS'whois.lemonsharkdomains.com'
p3848
atp3849
Rp3850
sS'domainlifestylellc'
p3851
g1
((lp3852
S'whois.web.com'
p3853
aS'whois.domainlifestlye.com'
p3854
atp3855
Rp3856
sS'dropcatchcom1000llc'
p3857
g1
((lp3858
S'whois.namebright.com'
p3859
atp3860
Rp3861
sS'dropcatchcom655llc'
p3862
g1
((lp3863
S'whois.namebright.com'
p3864
atp3865
Rp3866
sS'dropcatchcom945llc'
p3867
g1
((lp3868
S'whois.namebright.com'
p3869
atp3870
Rp3871
sS'dropcatchcom375llc'
p3872
g1
((lp3873
S'whois.namebright.com'
p3874
atp3875
Rp3876
sS'coolrivernamesllc'
p3877
g1
((lp3878
S'whois.web.com'
p3879
aS'whois.coolrivernames.com'
p3880
atp3881
Rp3882
sS'dropcatchcom671llc'
p3883
g1
((lp3884
S'whois.namebright.com'
p3885
atp3886
Rp3887
sS'dropcatchcom516llc'
p3888
g1
((lp3889
S'whois.namebright.com'
p3890
atp3891
Rp3892
sS'dropcatchcom494llc'
p3893
g1
((lp3894
S'whois.namebright.com'
p3895
atp3896
Rp3897
sS'greenzonedomainsinc'
p3898
g1
((lp3899
S'whois.web.com'
p3900
aS'whois.namepal.com'
p3901
atp3902
Rp3903
sS'dropcatchcom603llc'
p3904
g1
((lp3905
S'whois.namebright.com'
p3906
atp3907
Rp3908
sS'registercainc'
p3909
g1
((lp3910
S'whois.register.ca'
p3911
atp3912
Rp3913
sS'encircainc'
p3914
g1
((lp3915
S'whois.encirca.com'
p3916
atp3917
Rp3918
sS'dropcatchcom413llc'
p3919
g1
((lp3920
S'whois.namebright.com'
p3921
atp3922
Rp3923
sS'draftpickdomainsllc'
p3924
g1
((lp3925
S'whois.web.com'
p3926
aS'whois.draftpickdomainsllc.com'
p3927
atp3928
Rp3929
sS'epagdomainservicesgmbh'
p3930
g1
((lp3931
S'whois.enterprice.net'
p3932
atp3933
Rp3934
sS'ulfberhtllc'
p3935
g1
((lp3936
S'whois.pheenix.com'
p3937
atp3938
Rp3939
sS'internetworxltdcokg'
p3940
g1
((lp3941
S'whois.domrobot.com'
p3942
atp3943
Rp3944
sS'tirupatidomainsandhostingprivatelimited'
p3945
g1
((lp3946
S'whois.tirupatidomains.in'
p3947
atp3948
Rp3949
sS'dropcatchcom962llc'
p3950
g1
((lp3951
S'whois.namebright.com'
p3952
atp3953
Rp3954
sS'dropcatchcom1021llc'
p3955
g1
((lp3956
S'whois.namebright.com'
p3957
atp3958
Rp3959
sS'dropcatchcom826llc'
p3960
g1
((lp3961
S'whois.namebright.com'
p3962
atp3963
Rp3964
sS'dropcatchcom793llc'
p3965
g1
((lp3966
S'whois.namebright.com'
p3967
atp3968
Rp3969
sS'biglizarddomainscomllc'
p3970
g1
((lp3971
S'whois.web.com'
p3972
aS'whois.biglizarddomains.com'
p3973
atp3974
Rp3975
sS'allaccessdomainsllc'
p3976
g1
((lp3977
S'whois2.domain.com'
p3978
atp3979
Rp3980
sS'dropcatchcom708llc'
p3981
g1
((lp3982
S'whois.namebright.com'
p3983
atp3984
Rp3985
sS'dropcatchcom464llc'
p3986
g1
((lp3987
S'whois.namebright.com'
p3988
atp3989
Rp3990
sS'squidsailerdomainscomllc'
p3991
g1
((lp3992
S'whois.web.com'
p3993
aS'whois.squidsailerdomains.com'
p3994
atp3995
Rp3996
sS'pheenix24llc'
p3997
g1
((lp3998
S'whois.pheenix.com'
p3999
atp4000
Rp4001
sS'dropcatchcom926llc'
p4002
g1
((lp4003
S'whois.namebright.com'
p4004
atp4005
Rp4006
sS'pheenix36llc'
p4007
g1
((lp4008
S'whois.pheenix.com'
p4009
atp4010
Rp4011
sS'dropcatchcom1043llc'
p4012
g1
((lp4013
S'whois.namebright.com'
p4014
atp4015
Rp4016
sS'dropcatchcom653llc'
p4017
g1
((lp4018
S'whois.namebright.com'
p4019
atp4020
Rp4021
sS'arsysinternetsldbaniclinecom'
p4022
g1
((lp4023
S'whois.nicline.com'
p4024
atp4025
Rp4026
sS'domainbulkregistrationllc'
p4027
g1
((lp4028
S'whois2.domain.com'
p4029
atp4030
Rp4031
sS'dropcatchcom531llc'
p4032
g1
((lp4033
S'whois.namebright.com'
p4034
atp4035
Rp4036
sS'pheenix72llc'
p4037
g1
((lp4038
S'whois.pheenix.com'
p4039
atp4040
Rp4041
sS'purenicjapaninc'
p4042
g1
((lp4043
S'whois.purenic.com'
p4044
atp4045
Rp4046
sS'namesnapperllc'
p4047
g1
((lp4048
S'whois.web.com'
p4049
aS'whois.namesnapperllc.com'
p4050
atp4051
Rp4052
sS'dropcatchcom706llc'
p4053
g1
((lp4054
S'whois.namebright.com'
p4055
atp4056
Rp4057
sS'pheenix20llc'
p4058
g1
((lp4059
S'whois.pheenix.com'
p4060
atp4061
Rp4062
sS'shenzheninternetworksonlinetechnologycoltd62com'
p4063
g1
((lp4064
S'whois.62.net'
p4065
atp4066
Rp4067
sS'pheenix45llc'
p4068
g1
((lp4069
S'whois.pheenix.com'
p4070
atp4071
Rp4072
sS'paknicprivatelimited'
p4073
g1
((lp4074
S'whois.paknic.com'
p4075
atp4076
Rp4077
sS'dropcatchcom518llc'
p4078
g1
((lp4079
S'whois.namebright.com'
p4080
atp4081
Rp4082
sS'namepalcom8027'
p4083
g1
((lp4084
S'whois.web.com'
p4085
aS'whois.namepal.com'
p4086
atp4087
Rp4088
sS'namepalcom8026'
p4089
g1
((lp4090
S'whois.web.com'
p4091
aS'whois.namepal.com'
p4092
atp4093
Rp4094
sS'namepalcom8025'
p4095
g1
((lp4096
S'whois.web.com'
p4097
aS'whois.namepal.com'
p4098
atp4099
Rp4100
sS'namepalcom8024'
p4101
g1
((lp4102
S'whois.web.com'
p4103
aS'whois.namepal.com'
p4104
atp4105
Rp4106
sS'namepalcom8023'
p4107
g1
((lp4108
S'whois.web.com'
p4109
aS'whois.namepal.com'
p4110
atp4111
Rp4112
sS'namepalcom8022'
p4113
g1
((lp4114
S'whois.paimi.com'
p4115
aS'whois.namepal.com'
p4116
atp4117
Rp4118
sS'dropcatchcom589llc'
p4119
g1
((lp4120
S'whois.namebright.com'
p4121
atp4122
Rp4123
sS'namepalcom8020'
p4124
g1
((lp4125
S'whois.paimi.com'
p4126
aS'whois.name.cc'
p4127
aS'whois.namepal.com'
p4128
atp4129
Rp4130
sS'namepalcom8028'
p4131
g1
((lp4132
S'whois.web.com'
p4133
aS'whois.namepal.com'
p4134
atp4135
Rp4136
sS'williamtheconquerorllc'
p4137
g1
((lp4138
S'whois.pheenix.com'
p4139
atp4140
Rp4141
sS'dropcatchcom914llc'
p4142
g1
((lp4143
S'whois.namebright.com'
p4144
atp4145
Rp4146
sS'enom463incorporated'
p4147
g1
((lp4148
S'whois.web.com'
p4149
aS'whois.enom463.com'
p4150
atp4151
Rp4152
sS'dropcatchcom395llc'
p4153
g1
((lp4154
S'whois.namebright.com'
p4155
atp4156
Rp4157
sS'dropcatchcom820llc'
p4158
g1
((lp4159
S'whois.namebright.com'
p4160
atp4161
Rp4162
sS'enom395incorporated'
p4163
g1
((lp4164
S'whois.enom395.com'
p4165
atp4166
Rp4167
sS'enamecollc'
p4168
g1
((lp4169
S'whois2.domain.com'
p4170
atp4171
Rp4172
sS'dropcatchcom524llc'
p4173
g1
((lp4174
S'whois.namebright.com'
p4175
atp4176
Rp4177
sS'dropcatchcom848llc'
p4178
g1
((lp4179
S'whois.namebright.com'
p4180
atp4181
Rp4182
sS'dropcatchcom902llc'
p4183
g1
((lp4184
S'whois.namebright.com'
p4185
atp4186
Rp4187
sS'namesourcellc'
p4188
g1
((lp4189
S'whois.web.com'
p4190
aS'whois.namesourcellc.com'
p4191
atp4192
Rp4193
sS'dropcatchcom1006llc'
p4194
g1
((lp4195
S'whois.namebright.com'
p4196
atp4197
Rp4198
sS'pheenix22llc'
p4199
g1
((lp4200
S'whois.pheenix.com'
p4201
atp4202
Rp4203
sS'diggitydotllc'
p4204
g1
((lp4205
S'whois2.domain.com'
p4206
atp4207
Rp4208
sS'dropcatchcom817llc'
p4209
g1
((lp4210
S'whois.namebright.com'
p4211
atp4212
Rp4213
sS'lakeodomainscomllc'
p4214
g1
((lp4215
S'whois.web.com'
p4216
aS'whois.lakeodomains.com'
p4217
atp4218
Rp4219
sS'perseus888llc'
p4220
g1
((lp4221
S'whois.pheenix.com'
p4222
atp4223
Rp4224
sS'dropcatchcom446llc'
p4225
g1
((lp4226
S'whois.namebright.com'
p4227
atp4228
Rp4229
sS'dynamicnetworkservicesinc'
p4230
g1
((lp4231
S'whois.dyndns.com'
p4232
atp4233
Rp4234
sS'dropcatchcom456llc'
p4235
g1
((lp4236
S'whois.namebright.com'
p4237
atp4238
Rp4239
sS'mailinhllc'
p4240
g1
((lp4241
S'whois.pheenix.com'
p4242
atp4243
Rp4244
sS'namepalcom8025inc'
p4245
g1
((lp4246
S'whois.web.com'
p4247
atp4248
Rp4249
sS'georgespattonllc'
p4250
g1
((lp4251
S'whois.pheenix.com'
p4252
atp4253
Rp4254
sS'dropcatchcom737llc'
p4255
g1
((lp4256
S'whois.namebright.com'
p4257
atp4258
Rp4259
sS'enomnzinc'
p4260
g1
((lp4261
S'whois.web.com'
p4262
atp4263
Rp4264
sS'registercom'
p4265
g1
((lp4266
S'whois.squidsailerdomains.com'
p4267
aS'whois.bonzaidomains.com'
p4268
aS'whois.deepdivedomains.com'
p4269
aS'whois.whitealligatordomains.com'
p4270
aS'whois.majorleaguedomains.com'
p4271
aS'whois.leatherneckdomains.com'
p4272
aS'whois.hangtendomains.com'
p4273
aS'whois.pinkelephantdomains.com'
p4274
aS'whois.srsplus.com'
p4275
aS'whois.domainalacarte.com'
p4276
aS'whois.domainoriginal.com'
p4277
aS'whois.straight8domains.com'
p4278
aS'whois.eagleeyedomains.com'
p4279
aS'whois.neworderdomains.com'
p4280
aS'whois.finegraindomains.com'
p4281
aS'whois.freedivedomains.com'
p4282
aS'whois.domaincollage.com'
p4283
aS'whois.freespiritdomains.com'
p4284
aS'whois.rallycrydomains.com'
p4285
aS'whois.domainnameroot.com'
p4286
aS'whois.namesourcedomains.com'
p4287
aS'whois.cloudbreakdomains.com'
p4288
aS'whois.domainnameorigin.com'
p4289
aS'whois.cloudninedomains.com'
p4290
aS'whois.coolrivernames.com'
p4291
aS'whois.magnoliadomains.com'
p4292
aS'whois.wildbunchdomains.com'
p4293
aS'whois.sugarcubedomains.com'
p4294
aS'whois.eztimesdomains.com'
p4295
aS'whois.yourdomaincasa.com'
p4296
aS'whois.soaringeagledomains.com'
p4297
aS'whois.coolbreezedomains.com'
p4298
aS'whois.wildzebradomains.com'
p4299
aS'whois.noteworthydomains.com'
p4300
aS'whois.alethiadomains.com'
p4301
atp4302
Rp4303
sS'kuwaitnetgeneraltradingco'
p4304
g1
((lp4305
S'whois.kuwaitnet.net'
p4306
atp4307
Rp4308
sS'dropcatchcom687llc'
p4309
g1
((lp4310
S'whois.namebright.com'
p4311
atp4312
Rp4313
sS'dropcatchcom971llc'
p4314
g1
((lp4315
S'whois.namebright.com'
p4316
atp4317
Rp4318
sS'dropcatchcom500llc'
p4319
g1
((lp4320
S'whois.namebright.com'
p4321
atp4322
Rp4323
sS'dropcatchcom400llc'
p4324
g1
((lp4325
S'whois.namebright.com'
p4326
atp4327
Rp4328
sS'dropcatchcom1031llc'
p4329
g1
((lp4330
S'whois.namebright.com'
p4331
atp4332
Rp4333
sS'enom423incorporated'
p4334
g1
((lp4335
S'whois.web.com'
p4336
atp4337
Rp4338
sS'kheweulcomsa'
p4339
g1
((lp4340
S'whois.kheweul.org'
p4341
atp4342
Rp4343
sS'dropcatchcom600llc'
p4344
g1
((lp4345
S'whois.namebright.com'
p4346
atp4347
Rp4348
sS'netdormincdbadnsexitcom'
p4349
g1
((lp4350
S'whois.netdorm.com'
p4351
atp4352
Rp4353
sS'dropcatchcom408llc'
p4354
g1
((lp4355
S'whois.namebright.com'
p4356
atp4357
Rp4358
sS'namesherellc'
p4359
g1
((lp4360
S'whois.namebright.com'
p4361
atp4362
Rp4363
sS'123reglimited'
p4364
g1
((lp4365
S'whois.123-reg.co.uk'
p4366
atp4367
Rp4368
sS'houseofdomainsllc'
p4369
g1
((lp4370
S'whois.web.com'
p4371
aS'whois.housofdomains.com'
p4372
atp4373
Rp4374
sS'namecominc'
p4375
g1
((lp4376
S'whois.name.com'
p4377
atp4378
Rp4379
sS'columbiadomainsllc'
p4380
g1
((lp4381
S'whois2.domain.com'
p4382
atp4383
Rp4384
sS'domainsonlycominc'
p4385
g1
((lp4386
S'whois.domainsonly.com'
p4387
atp4388
Rp4389
sS'namenellycorporation'
p4390
g1
((lp4391
S'whois.web.com'
p4392
aS'whois.namenelly.com'
p4393
atp4394
Rp4395
sS'dropcatchcom362llc'
p4396
g1
((lp4397
S'whois.namebright.com'
p4398
atp4399
Rp4400
sS'dropcatchcom571llc'
p4401
g1
((lp4402
S'whois.namebright.com'
p4403
atp4404
Rp4405
sS'dropcatchcom616llc'
p4406
g1
((lp4407
S'whois.namebright.com'
p4408
atp4409
Rp4410
sS'blacknightinternetsolutionsltd'
p4411
g1
((lp4412
S'whois.blacknight.com'
p4413
atp4414
Rp4415
sS'presidentialdomainsllc'
p4416
g1
((lp4417
S'whois.namebright.com'
p4418
atp4419
Rp4420
sS'dropcatchcom993llc'
p4421
g1
((lp4422
S'whois.namebright.com'
p4423
atp4424
Rp4425
sS'core79axoneservicesdeveloppementsa'
p4426
g1
((lp4427
S'whois.corehub.net'
p4428
atp4429
Rp4430
sS'dropcatchcom546llc'
p4431
g1
((lp4432
S'whois.namebright.com'
p4433
atp4434
Rp4435
sS'sirlancelotdulacllc'
p4436
g1
((lp4437
S'whois.pheenix.com'
p4438
atp4439
Rp4440
sS'nameselitellc'
p4441
g1
((lp4442
S'whois.web.com'
p4443
aS'whois.nameselite.com'
p4444
atp4445
Rp4446
sS'domainarmadacomllc'
p4447
g1
((lp4448
S'whois.web.com'
p4449
aS'whois.domainarmada.com'
p4450
atp4451
Rp4452
sS'dropcatchcom658llc'
p4453
g1
((lp4454
S'whois.namebright.com'
p4455
atp4456
Rp4457
sS'name117inc'
p4458
g1
((lp4459
S'whois.hostnameservices.net'
p4460
atp4461
Rp4462
sS'dropcatchcom572llc'
p4463
g1
((lp4464
S'whois.namebright.com'
p4465
atp4466
Rp4467
sS'dropcatchcom472llc'
p4468
g1
((lp4469
S'whois.namebright.com'
p4470
atp4471
Rp4472
sS'dropcatchcom746llc'
p4473
g1
((lp4474
S'whois.namebright.com'
p4475
atp4476
Rp4477
sS'name115inc'
p4478
g1
((lp4479
S'whois.domainregservices.com'
p4480
atp4481
Rp4482
sS'dropcatchcom943llc'
p4483
g1
((lp4484
S'whois.namebright.com'
p4485
atp4486
Rp4487
sS'websitesourceinc'
p4488
g1
((lp4489
S'whois.websitesource.com'
p4490
atp4491
Rp4492
sS'dropcatchcom996llc'
p4493
g1
((lp4494
S'whois.namebright.com'
p4495
atp4496
Rp4497
sS'tantranllc'
p4498
g1
((lp4499
S'whois.pheenix.com'
p4500
atp4501
Rp4502
sS'dropcatchcom406llc'
p4503
g1
((lp4504
S'whois.namebright.com'
p4505
atp4506
Rp4507
sS'namepalcom8004inc'
p4508
g1
((lp4509
S'whois.web.com'
p4510
atp4511
Rp4512
sS'domainsnapllc'
p4513
g1
((lp4514
S'whois.pheenix.com'
p4515
atp4516
Rp4517
sS'enom449incorporated'
p4518
g1
((lp4519
S'whois.enom449.com'
p4520
atp4521
Rp4522
sS'jumbonameinc'
p4523
g1
((lp4524
S'whois.jumboname.com'
p4525
atp4526
Rp4527
sS'dropcatchcom510llc'
p4528
g1
((lp4529
S'whois.namebright.com'
p4530
atp4531
Rp4532
sS'dropcatchcom1011llc'
p4533
g1
((lp4534
S'whois.namebright.com'
p4535
atp4536
Rp4537
sS'dropweekcominc'
p4538
g1
((lp4539
S'whois.namepal.com'
p4540
atp4541
Rp4542
sS'dropcatchcom618llc'
p4543
g1
((lp4544
S'whois.namebright.com'
p4545
atp4546
Rp4547
sS'dropcatchcom840llc'
p4548
g1
((lp4549
S'whois.namebright.com'
p4550
atp4551
Rp4552
sS'namesinmotioninc'
p4553
g1
((lp4554
S'whois.namesinmotion.com'
p4555
atp4556
Rp4557
sS'deschutesdomainscomllc'
p4558
g1
((lp4559
S'whois.deschutesdomains.com'
p4560
aS'whois.web.com'
p4561
atp4562
Rp4563
sS'akkyunadivisiondenicmexico'
p4564
g1
((lp4565
S'whois.akky.mx'
p4566
atp4567
Rp4568
sS'toptierdomainsllc'
p4569
g1
((lp4570
S'whois.web.com'
p4571
aS'whois.toptierdomainsllc.com'
p4572
atp4573
Rp4574
sS'gmointernetinc'
p4575
g1
((lp4576
S'whois.discount-domain.com'
p4577
atp4578
Rp4579
sS'gozerdomainscomllc'
p4580
g1
((lp4581
S'whois.web.com'
p4582
aS'whois.gozerdomains.com'
p4583
atp4584
Rp4585
sS'dropcatchminingllc'
p4586
g1
((lp4587
S'whois.dropcatchminingllc.com'
p4588
aS'whois.web.com'
p4589
atp4590
Rp4591
sS'cloudbreakdomainsllc'
p4592
g1
((lp4593
S'whois.web.com'
p4594
aS'whois.cloudbreakdomains.com'
p4595
atp4596
Rp4597
sS'alicesregistryinc'
p4598
g1
((lp4599
S'whois.alices-registry.com'
p4600
atp4601
Rp4602
sS'enom1013inc'
p4603
g1
((lp4604
S'whois.enom1013.com'
p4605
atp4606
Rp4607
sS'beijingsanfrontinformationtechnologycoltd'
p4608
g1
((lp4609
S'whois.sfn.cn'
p4610
atp4611
Rp4612
sS'enom625inc'
p4613
g1
((lp4614
S'whois.625domains.com'
p4615
atp4616
Rp4617
sS'namesourcedomainsllc'
p4618
g1
((lp4619
S'whois.web.com'
p4620
aS'whois.namesourcedomains.com'
p4621
atp4622
Rp4623
sS'gonameflcominc'
p4624
g1
((lp4625
S'whois.pheenix.com'
p4626
atp4627
Rp4628
sS'topleveldomainsllc'
p4629
g1
((lp4630
S'whois.web.com'
p4631
aS'whois.topleveldomainsllc.com'
p4632
atp4633
Rp4634
sS'eurodnssa'
p4635
g1
((lp4636
S'whois.eurodns.com'
p4637
atp4638
Rp4639
sS'deepwaterdomainsllc'
p4640
g1
((lp4641
S'whois.web.com'
p4642
aS'whois.deepwaterdomainsllc.com'
p4643
atp4644
Rp4645
sS'dootallinc'
p4646
g1
((lp4647
S'whois.virtualregistrar.com'
p4648
atp4649
Rp4650
sS'pheenix86llc'
p4651
g1
((lp4652
S'whois.pheenix.com'
p4653
atp4654
Rp4655
sS'dropcatchcom984llc'
p4656
g1
((lp4657
S'whois.namebright.com'
p4658
atp4659
Rp4660
sS'dropcatchcom669llc'
p4661
g1
((lp4662
S'whois.namebright.com'
p4663
atp4664
Rp4665
sS'dropcatchcom681llc'
p4666
g1
((lp4667
S'whois.namebright.com'
p4668
atp4669
Rp4670
sS'uk2limited'
p4671
g1
((lp4672
S'whois.hostingservicesinc.net'
p4673
atp4674
Rp4675
sS'dropcatchcom990llc'
p4676
g1
((lp4677
S'whois.namebright.com'
p4678
atp4679
Rp4680
sS'dropcatchcom584llc'
p4681
g1
((lp4682
S'whois.namebright.com'
p4683
atp4684
Rp4685
sS'shenzheninternetworksonlinecoltd'
p4686
g1
((lp4687
S'whois.62.net'
p4688
atp4689
Rp4690
sS'dropcatchcom680llc'
p4691
g1
((lp4692
S'whois.namebright.com'
p4693
atp4694
Rp4695
sS'puritynamescom'
p4696
g1
((lp4697
S'whois.puritynames.com'
p4698
atp4699
Rp4700
sS'pheenix10llc'
p4701
g1
((lp4702
S'whois.pheenix.com'
p4703
atp4704
Rp4705
sS'core709gpisoftware'
p4706
g1
((lp4707
S'whois.corehub.net'
p4708
atp4709
Rp4710
sS'dropcatchcom755llc'
p4711
g1
((lp4712
S'whois.namebright.com'
p4713
atp4714
Rp4715
sS'nicstelekomunikasyonticaretltdsti'
p4716
g1
((lp4717
S'whois.nicproxy.com'
p4718
atp4719
Rp4720
sS'dropcatchcom846llc'
p4721
g1
((lp4722
S'whois.namebright.com'
p4723
atp4724
Rp4725
sS'enominc'
p4726
g1
((lp4727
S'whois.enom.com'
p4728
atp4729
Rp4730
sS'discountdomainsltd'
p4731
g1
((lp4732
S'whois.discountdomainsuk.com'
p4733
atp4734
Rp4735
sS'tldregistrarsolutionsltd'
p4736
g1
((lp4737
S'whois.tldregistrarsolutions.com'
p4738
atp4739
Rp4740
sS'leatherneckdomainscomllc'
p4741
g1
((lp4742
S'whois.web.com'
p4743
aS'whois.leatherneckdomains.com'
p4744
atp4745
Rp4746
sS'dropcatchcom608llc'
p4747
g1
((lp4748
S'whois.namebright.com'
p4749
atp4750
Rp4751
sS'instantnamesllc'
p4752
g1
((lp4753
S'whois.instantnames.com'
p4754
atp4755
Rp4756
sS'dropcatchcom447llc'
p4757
g1
((lp4758
S'whois.namebright.com'
p4759
atp4760
Rp4761
sS'nanjingimperiosustechnologycoltd'
p4762
g1
((lp4763
S'whois.domainerschoice.com'
p4764
atp4765
Rp4766
sS'namepanthercomllc'
p4767
g1
((lp4768
S'whois.web.com'
p4769
aS'whois.namepanther.com'
p4770
atp4771
Rp4772
sS'namecatchzonellc'
p4773
g1
((lp4774
S'whois.web.com'
p4775
aS'whois.namecatchzonellc.com'
p4776
atp4777
Rp4778
sS'24x7domainsllc'
p4779
g1
((lp4780
S'whois2.domain.com'
p4781
atp4782
Rp4783
sS'shanghaimeichengtechnologyinformationdevelopmentcoltd'
p4784
g1
((lp4785
S'grs-whois.cndns.com'
p4786
atp4787
Rp4788
sS'eimsshenzhenculturetechnologycoltd'
p4789
g1
((lp4790
S'whois.190.com'
p4791
atp4792
Rp4793
sS'uk2groupltd'
p4794
g1
((lp4795
S'whois.hostingservicesinc.net'
p4796
atp4797
Rp4798
sS'pheenix80llc'
p4799
g1
((lp4800
S'whois.pheenix.com'
p4801
atp4802
Rp4803
sS'name112inc'
p4804
g1
((lp4805
S'whois.cirs.us'
p4806
atp4807
Rp4808
sS'swordfishdomainsllc'
p4809
g1
((lp4810
S'whois.web.com'
p4811
aS'whois.swordfishdomainsllc.com'
p4812
atp4813
Rp4814
sS'chengduflydigitaltechnologycoltd'
p4815
g1
((lp4816
S'whois.sudu.cn'
p4817
atp4818
Rp4819
sS'dropcatchcom794llc'
p4820
g1
((lp4821
S'whois.namebright.com'
p4822
atp4823
Rp4824
sS'zincdomainnamesllc'
p4825
g1
((lp4826
S'whois.web.com'
p4827
aS'whois.zincdomainnamesllc.com'
p4828
atp4829
Rp4830
sS'flancrestdomainscomllc'
p4831
g1
((lp4832
S'whois.web.com'
p4833
aS'whois.flancrestdomains.com'
p4834
atp4835
Rp4836
sS'sugarcubedomainsllc'
p4837
g1
((lp4838
S'whois.web.com'
p4839
aS'whois.sugarcubedomains.com'
p4840
atp4841
Rp4842
sS'bdlsystemessasdbaprodomaines'
p4843
g1
((lp4844
S'whois.prodomaines.com'
p4845
atp4846
Rp4847
sS'keyregistrarinc'
p4848
g1
((lp4849
S'whois.keyregistrar.com'
p4850
atp4851
Rp4852
sS'nomiqltddbacomlaude'
p4853
g1
((lp4854
S'whois.comlaude.com'
p4855
atp4856
Rp4857
sS'dropcatchcom776llc'
p4858
g1
((lp4859
S'whois.namebright.com'
p4860
atp4861
Rp4862
sS'name116inc'
p4863
g1
((lp4864
S'whois.freestyleholdings.com'
p4865
atp4866
Rp4867
sS'dropcatchcom812llc'
p4868
g1
((lp4869
S'whois.namebright.com'
p4870
atp4871
Rp4872
sS'dropcatchcom952llc'
p4873
g1
((lp4874
S'whois.namebright.com'
p4875
atp4876
Rp4877
sS'iserveyourdomaincomllc'
p4878
g1
((lp4879
S'whois.web.com'
p4880
aS'whois.iserveyourdomain.com'
p4881
atp4882
Rp4883
sS'demyslimited'
p4884
g1
((lp4885
S'whois.demys.com'
p4886
atp4887
Rp4888
sS'dropcatchcom405llc'
p4889
g1
((lp4890
S'whois.namebright.com'
p4891
atp4892
Rp4893
sS'heavydomainsnetllc'
p4894
g1
((lp4895
S'whois.web.com'
p4896
aS'whois.heavydomains.net'
p4897
atp4898
Rp4899
sS'dropcatchcom700llc'
p4900
g1
((lp4901
S'whois.namebright.com'
p4902
atp4903
Rp4904
sS'netimsarl'
p4905
g1
((lp4906
S'whois.netim.com'
p4907
atp4908
Rp4909
sS'domainrakernetllc'
p4910
g1
((lp4911
S'whois.web.com'
p4912
aS'whois.domainraker.net'
p4913
atp4914
Rp4915
sS'dropcatchcom866llc'
p4916
g1
((lp4917
S'whois.namebright.com'
p4918
atp4919
Rp4920
sS'zonecastinginc'
p4921
g1
((lp4922
S'whois.zonecasting.com'
p4923
atp4924
Rp4925
sS'namejoltcomllc'
p4926
g1
((lp4927
S'whois.namebright.com'
p4928
atp4929
Rp4930
sS'thedomainsllc'
p4931
g1
((lp4932
S'whois.web.com'
p4933
aS'whois.thedomainsllc.com'
p4934
atp4935
Rp4936
sS'dropcatchcom674llc'
p4937
g1
((lp4938
S'whois.namebright.com'
p4939
atp4940
Rp4941
sS'dropcatchcom667llc'
p4942
g1
((lp4943
S'whois.namebright.com'
p4944
atp4945
Rp4946
sS'dropcatchcom850llc'
p4947
g1
((lp4948
S'whois.namebright.com'
p4949
atp4950
Rp4951
sS'namethreadcorporation'
p4952
g1
((lp4953
S'whois.web.com'
p4954
atp4955
Rp4956
sS'cloudplumllc'
p4957
g1
((lp4958
S'whois.22.cn'
p4959
atp4960
Rp4961
sS'dropcatchcom1442llc'
p4962
g1
((lp4963
S'whois.namebright.com'
p4964
atp4965
Rp4966
sS'nameiconllc'
p4967
g1
((lp4968
S'whois.web.com'
p4969
aS'whois.nameiconllc.com'
p4970
atp4971
Rp4972
sS'dropcatchcom858llc'
p4973
g1
((lp4974
S'whois.namebright.com'
p4975
atp4976
Rp4977
sS'dropcatchcom1009llc'
p4978
g1
((lp4979
S'whois.namebright.com'
p4980
atp4981
Rp4982
sS'dropcatchcom593llc'
p4983
g1
((lp4984
S'whois.namebright.com'
p4985
atp4986
Rp4987
sS'arthurpendragonllc'
p4988
g1
((lp4989
S'whois.pheenix.com'
p4990
atp4991
Rp4992
sS'totallydomainllc'
p4993
g1
((lp4994
S'whois.namebright.com'
p4995
atp4996
Rp4997
sS'silverdomainnamesllc'
p4998
g1
((lp4999
S'whois.web.com'
p5000
aS'whois.silverdomainnamesllc.com'
p5001
atp5002
Rp5003
sS'xinnettechnologycorporation'
p5004
g1
((lp5005
S'whois.paycenter.com.cn'
p5006
atp5007
Rp5008
sS'geniouscommunicationssarlau'
p5009
g1
((lp5010
S'whois.genious.net'
p5011
atp5012
Rp5013
sS'annuletinc'
p5014
g1
((lp5015
S'whois.annulet.com'
p5016
atp5017
Rp5018
sS'eunamefloodcomllc'
p5019
g1
((lp5020
S'whois.web.com'
p5021
aS'whois.eunameflood.com'
p5022
atp5023
Rp5024
sS'dropcatchcom1248llc'
p5025
g1
((lp5026
S'whois.namebright.com'
p5027
atp5028
Rp5029
sS'dropcatchcom792llc'
p5030
g1
((lp5031
S'whois.namebright.com'
p5032
atp5033
Rp5034
sS'webairinternetdevelopment'
p5035
g1
((lp5036
S'whois.webair.com'
p5037
atp5038
Rp5039
sS'pheenix63llc'
p5040
g1
((lp5041
S'whois.pheenix.com'
p5042
atp5043
Rp5044
sS'dropcatchcom506llc'
p5045
g1
((lp5046
S'whois.namebright.com'
p5047
atp5048
Rp5049
sS'nameccinc'
p5050
g1
((lp5051
S'whois.name.cc'
p5052
atp5053
Rp5054
sS'namecroccomllc'
p5055
g1
((lp5056
S'whois.web.com'
p5057
aS'whois.namecroc.com'
p5058
atp5059
Rp5060
sS'dropcatchcom753llc'
p5061
g1
((lp5062
S'whois.namebright.com'
p5063
atp5064
Rp5065
sS'tucowsinc'
p5066
g1
((lp5067
S'whois.tucows.com'
p5068
atp5069
Rp5070
sS'enom1033inc'
p5071
g1
((lp5072
S'whois.web.com'
p5073
aS'whois.enom1033.com'
p5074
atp5075
Rp5076
sS'dropcatchcom954llc'
p5077
g1
((lp5078
S'whois.namebright.com'
p5079
atp5080
Rp5081
sS'gandisas'
p5082
g1
((lp5083
S'whois.gandi.net'
p5084
atp5085
Rp5086
sS'markbarkerincorporated'
p5087
g1
((lp5088
S'whois.web.com'
p5089
aS'whois.markbark.com'
p5090
atp5091
Rp5092
sS'inwxgmbhcokg'
p5093
g1
((lp5094
S'whois.domrobot.com'
p5095
atp5096
Rp5097
sS'dropcatchcom883llc'
p5098
g1
((lp5099
S'whois.namebright.com'
p5100
atp5101
Rp5102
sS'moonshotdomainsllc'
p5103
g1
((lp5104
S'whois.moonshotdomains.com'
p5105
aS'whois.web.com'
p5106
atp5107
Rp5108
sS'dropcatchcom418llc'
p5109
g1
((lp5110
S'whois.namebright.com'
p5111
atp5112
Rp5113
sS'pheenix88llc'
p5114
g1
((lp5115
S'whois.pheenix.com'
p5116
atp5117
Rp5118
sS'enom415incorporated'
p5119
g1
((lp5120
S'whois.web.com'
p5121
aS'whois.enom415.com'
p5122
atp5123
Rp5124
sS'dropcatchcom845llc'
p5125
g1
((lp5126
S'whois.namebright.com'
p5127
atp5128
Rp5129
sS'cyandomainsinc'
p5130
g1
((lp5131
S'whois.cyandomains.com'
p5132
atp5133
Rp5134
sS'dropcatchcom696llc'
p5135
g1
((lp5136
S'whois.namebright.com'
p5137
atp5138
Rp5139
sS'dropcatchcom781llc'
p5140
g1
((lp5141
S'whois.namebright.com'
p5142
atp5143
Rp5144
sS'ptardhglobalindonesia'
p5145
g1
((lp5146
S'whois.resellerid.com'
p5147
atp5148
Rp5149
sS'dropcatchcom809llc'
p5150
g1
((lp5151
S'whois.namebright.com'
p5152
atp5153
Rp5154
sS'domainlocalllc'
p5155
g1
((lp5156
S'whois.namebright.com'
p5157
atp5158
Rp5159
sS'mymanagerinc'
p5160
g1
((lp5161
S'whois.epik.com'
p5162
atp5163
Rp5164
sS'domainamaniacomllc'
p5165
g1
((lp5166
S'whois.web.com'
p5167
aS'whois.domainamania.com'
p5168
atp5169
Rp5170
sS'domainhoodllc'
p5171
g1
((lp5172
S'whois.namebright.com'
p5173
atp5174
Rp5175
sS'namepalcom8007'
p5176
g1
((lp5177
S'whois.web.com'
p5178
aS'whois.namepal.com'
p5179
atp5180
Rp5181
sS'dropcatchcom740llc'
p5182
g1
((lp5183
S'whois.namebright.com'
p5184
atp5185
Rp5186
sS'dropcatchcom868llc'
p5187
g1
((lp5188
S'whois.namebright.com'
p5189
atp5190
Rp5191
sS'domainsiteinc'
p5192
g1
((lp5193
S'whois.domainsite.com'
p5194
atp5195
Rp5196
sS'dropcatchcom365llc'
p5197
g1
((lp5198
S'whois.namebright.com'
p5199
atp5200
Rp5201
sS'twtspa'
p5202
g1
((lp5203
S'whois.twt.it'
p5204
atp5205
Rp5206
sS'intersolvedtxcominc'
p5207
g1
((lp5208
S'whois.pheenix.com'
p5209
atp5210
Rp5211
sS'dropcatchcom1367llc'
p5212
g1
((lp5213
S'whois.namebright.com'
p5214
atp5215
Rp5216
sS'lwssarl'
p5217
g1
((lp5218
S'whois.lws.net'
p5219
atp5220
Rp5221
sS'tradewindsnamesllc'
p5222
g1
((lp5223
S'whois.web.com'
p5224
aS'whois.tradewindsnames.com'
p5225
atp5226
Rp5227
sS'dropcatchcom982llc'
p5228
g1
((lp5229
S'whois.namebright.com'
p5230
atp5231
Rp5232
sS'freefalldomainsllc'
p5233
g1
((lp5234
S'whois.freefalldomainsllc.com'
p5235
aS'whois.web.com'
p5236
atp5237
Rp5238
sS'dropcatchcom563llc'
p5239
g1
((lp5240
S'whois.namebright.com'
p5241
atp5242
Rp5243
sS'dropcatchcom1321llc'
p5244
g1
((lp5245
S'whois.namebright.com'
p5246
atp5247
Rp5248
sS'dropcatchcom811llc'
p5249
g1
((lp5250
S'whois.namebright.com'
p5251
atp5252
Rp5253
sS'enom447incorporated'
p5254
g1
((lp5255
S'whois.enom447.com'
p5256
atp5257
Rp5258
sS'juliuscaesarllc'
p5259
g1
((lp5260
S'whois.pheenix.com'
p5261
atp5262
Rp5263
sS'hooyooinformationtechnologycoltd'
p5264
g1
((lp5265
S'whois.cn.hooyoo.com'
p5266
atp5267
Rp5268
sS'hazeldomainsinc'
p5269
g1
((lp5270
S'whois.hazeldomains.com'
p5271
atp5272
Rp5273
sS'privacypostinc'
p5274
g1
((lp5275
S'whois2.domain.com'
p5276
atp5277
Rp5278
sS'nordnet'
p5279
g1
((lp5280
S'whois.nordnet.net'
p5281
atp5282
Rp5283
sS'arcticnamesinc'
p5284
g1
((lp5285
S'whois.arcticnames.com'
p5286
atp5287
Rp5288
sS'dropcatchcom732llc'
p5289
g1
((lp5290
S'whois.namebright.com'
p5291
atp5292
Rp5293
sS'dropcatchcom403llc'
p5294
g1
((lp5295
S'whois.namebright.com'
p5296
atp5297
Rp5298
sS'dropcatchcom821llc'
p5299
g1
((lp5300
S'whois.namebright.com'
p5301
atp5302
Rp5303
sS'enom1040inc'
p5304
g1
((lp5305
S'whois.enom.com'
p5306
atp5307
Rp5308
sS'asiadomainsincorporated'
p5309
g1
((lp5310
S'whois.web.com'
p5311
atp5312
Rp5313
sS'enom1035inc'
p5314
g1
((lp5315
S'whois.web.com'
p5316
aS'whois.enom1035.com'
p5317
atp5318
Rp5319
sS'pheenix92llc'
p5320
g1
((lp5321
S'whois.pheenix.com'
p5322
atp5323
Rp5324
sS'dropcatchcom689llc'
p5325
g1
((lp5326
S'whois.namebright.com'
p5327
atp5328
Rp5329
sS'uberaustraliae1ptyltd'
p5330
g1
((lp5331
S'whois.myobnet.com'
p5332
atp5333
Rp5334
sS'onlinedataservicesjointstockcompany'
p5335
g1
((lp5336
S'com.whois.ods.vn'
p5337
atp5338
Rp5339
sS'dropcatchcom1037llc'
p5340
g1
((lp5341
S'whois.namebright.com'
p5342
atp5343
Rp5344
sS'dropcatchcom799llc'
p5345
g1
((lp5346
S'whois.namebright.com'
p5347
atp5348
Rp5349
sS'dropcatchcom935llc'
p5350
g1
((lp5351
S'whois.namebright.com'
p5352
atp5353
Rp5354
sS'dropcatchcom363llc'
p5355
g1
((lp5356
S'whois.namebright.com'
p5357
atp5358
Rp5359
sS'pdrltddbapublicdomainregistrycomwhoisserver'
p5360
g1
((lp5361
S'whois.joker.com'
p5362
atp5363
Rp5364
sS'cloudseedllc'
p5365
g1
((lp5366
S'whois.22.cn'
p5367
atp5368
Rp5369
sS'dropcatchcom749llc'
p5370
g1
((lp5371
S'whois.namebright.com'
p5372
atp5373
Rp5374
sS'zhengzhouzitiannetworktechnologycoltd'
p5375
g1
((lp5376
S'whois.zitian.cn'
p5377
atp5378
Rp5379
sS'dropjumpcominc'
p5380
g1
((lp5381
S'whois.web.com'
p5382
aS'whois.namepal.com'
p5383
atp5384
Rp5385
sS'dropcatchcom672llc'
p5386
g1
((lp5387
S'whois.namebright.com'
p5388
atp5389
Rp5390
sS'pheenix33llc'
p5391
g1
((lp5392
S'whois.pheenix.com'
p5393
atp5394
Rp5395
sS'dropcatchcom423llc'
p5396
g1
((lp5397
S'whois.namebright.com'
p5398
atp5399
Rp5400
sS'dropcatchcom1039llc'
p5401
g1
((lp5402
S'whois.namebright.com'
p5403
atp5404
Rp5405
sS'mpsinfotecnicslimited'
p5406
g1
((lp5407
S'whois.signdomains.com'
p5408
atp5409
Rp5410
sS'poseidon888llc'
p5411
g1
((lp5412
S'whois.pheenix.com'
p5413
atp5414
Rp5415
sS'sourceddomainsllc'
p5416
g1
((lp5417
S'whois.web.com'
p5418
aS'whois.sourceddomains.com'
p5419
atp5420
Rp5421
sS'dropcatchcom565llc'
p5422
g1
((lp5423
S'whois.namebright.com'
p5424
atp5425
Rp5426
sS'ownidentityinc'
p5427
g1
((lp5428
S'whois.ownidentity.com'
p5429
atp5430
Rp5431
sS'easystreetdomainsllc'
p5432
g1
((lp5433
S'whois.web.com'
p5434
aS'whois.easystreetdomain.com'
p5435
atp5436
Rp5437
sS'zoneofdomainsllc'
p5438
g1
((lp5439
S'whois.web.com'
p5440
aS'whois.zoneofdomainsllc.com'
p5441
atp5442
Rp5443
sS'dropcatchcom725llc'
p5444
g1
((lp5445
S'whois.namebright.com'
p5446
atp5447
Rp5448
sS'domainsetcllc'
p5449
g1
((lp5450
S'whois.web.com'
p5451
aS'whois.domainsetcllc.com'
p5452
atp5453
Rp5454
sS'0101internetinc'
p5455
g1
((lp5456
S'whois.0101domain.com'
p5457
atp5458
Rp5459
sS'pheenix55llc'
p5460
g1
((lp5461
S'whois.pheenix.com'
p5462
atp5463
Rp5464
sS'guangdongnaisinikeinformationtechnologycoltd'
p5465
g1
((lp5466
S'whois.iisp.com'
p5467
atp5468
Rp5469
sS'discountdomainsukltd'
p5470
g1
((lp5471
S'whois.discountdomainsuk.com'
p5472
atp5473
Rp5474
sS'synergywholesaleptyltd'
p5475
g1
((lp5476
S'whois.synergywholesale.com'
p5477
atp5478
Rp5479
sS'dropcatchcom434llc'
p5480
g1
((lp5481
S'whois.namebright.com'
p5482
atp5483
Rp5484
sS'dropcatchcom392llc'
p5485
g1
((lp5486
S'whois.namebright.com'
p5487
atp5488
Rp5489
sS'101domaingrsltd'
p5490
g1
((lp5491
S'whois.101domain.com'
p5492
atp5493
Rp5494
sS'dropcatchcom711llc'
p5495
g1
((lp5496
S'whois.namebright.com'
p5497
atp5498
Rp5499
sS'dropcatchcom739llc'
p5500
g1
((lp5501
S'whois.namebright.com'
p5502
atp5503
Rp5504
sS'dropcatchcom530llc'
p5505
g1
((lp5506
S'whois.namebright.com'
p5507
atp5508
Rp5509
sS'dropcatchcom896llc'
p5510
g1
((lp5511
S'whois.namebright.com'
p5512
atp5513
Rp5514
sS'dropcatchcom465llc'
p5515
g1
((lp5516
S'whois.namebright.com'
p5517
atp5518
Rp5519
sS'advaloremdomainsllc'
p5520
g1
((lp5521
S'whois.web.com'
p5522
aS'whois.advaloremdomains.com'
p5523
atp5524
Rp5525
sS'enomteninc'
p5526
g1
((lp5527
S'whois.enomten.com'
p5528
atp5529
Rp5530
sS'pheenix73llc'
p5531
g1
((lp5532
S'whois.pheenix.com'
p5533
atp5534
Rp5535
sS'dropcatchcom838llc'
p5536
g1
((lp5537
S'whois.namebright.com'
p5538
atp5539
Rp5540
sS'dropcatchcom770llc'
p5541
g1
((lp5542
S'whois.namebright.com'
p5543
atp5544
Rp5545
sS'dropcatchcom621llc'
p5546
g1
((lp5547
S'whois.namebright.com'
p5548
atp5549
Rp5550
sS'domainsofvaluecomllc'
p5551
g1
((lp5552
S'whois.web.com'
p5553
aS'whois.domainsofvalue.com'
p5554
atp5555
Rp5556
sS'dropcatchcom860llc'
p5557
g1
((lp5558
S'whois.namebright.com'
p5559
atp5560
Rp5561
sS'cjscregistrarr01'
p5562
g1
((lp5563
S'whois.r01.ru'
p5564
atp5565
Rp5566
sS'jarheaddomainscomllc'
p5567
g1
((lp5568
S'whois.web.com'
p5569
aS'whois.jarheaddomains.com'
p5570
atp5571
Rp5572
sS'dropextracominc'
p5573
g1
((lp5574
S'whois.web.com'
p5575
aS'whois.namepal.com'
p5576
atp5577
Rp5578
sS'omni888llc'
p5579
g1
((lp5580
S'whois.pheenix.com'
p5581
atp5582
Rp5583
sS'dropcatchcom893llc'
p5584
g1
((lp5585
S'whois.namebright.com'
p5586
atp5587
Rp5588
sS'everyonesinternetltddbasoftlayer'
p5589
g1
((lp5590
S'whois.softlayer.com'
p5591
atp5592
Rp5593
sS'core118regicanet'
p5594
g1
((lp5595
S'whois.corehub.net'
p5596
atp5597
Rp5598
sS'core50mediafusioninc'
p5599
g1
((lp5600
S'whois.corehub.net'
p5601
atp5602
Rp5603
sS'sitenamecomllc'
p5604
g1
((lp5605
S'whois.communigal.net'
p5606
atp5607
Rp5608
sS'dropcatchcom723llc'
p5609
g1
((lp5610
S'whois.namebright.com'
p5611
atp5612
Rp5613
sS'dropcatchcom944llc'
p5614
g1
((lp5615
S'whois.namebright.com'
p5616
atp5617
Rp5618
sS'domainplacellc'
p5619
g1
((lp5620
S'whois.web.com'
p5621
aS'whois.domainplacellc.com'
p5622
atp5623
Rp5624
sS'masterofmydomainsnetllc'
p5625
g1
((lp5626
S'whois.web.com'
p5627
aS'whois.masterofmydomains.net'
p5628
atp5629
Rp5630
sS'soyouwantadomaincomllc'
p5631
g1
((lp5632
S'whois.web.com'
p5633
aS'whois.soyouwantadomain.com'
p5634
atp5635
Rp5636
sS'noticeddomainsllc'
p5637
g1
((lp5638
S'whois.namebright.com'
p5639
atp5640
Rp5641
sS'dropcatchcom819llc'
p5642
g1
((lp5643
S'whois.namebright.com'
p5644
atp5645
Rp5646
sS'dropcatchcom536llc'
p5647
g1
((lp5648
S'whois.namebright.com'
p5649
atp5650
Rp5651
sS'10dencehispahardsl'
p5652
g1
((lp5653
S'whois.cdmon.com'
p5654
atp5655
Rp5656
sS'dropcatchcom660llc'
p5657
g1
((lp5658
S'whois.namebright.com'
p5659
atp5660
Rp5661
sS'oiinternetsa'
p5662
g1
((lp5663
S'whois.oiinternet.com.br'
p5664
atp5665
Rp5666
sS'dropcatchcom374llc'
p5667
g1
((lp5668
S'whois.namebright.com'
p5669
atp5670
Rp5671
sS'maximusllc'
p5672
g1
((lp5673
S'whois.pheenix.com'
p5674
atp5675
Rp5676
sS'domregltd'
p5677
g1
((lp5678
S'whois.libris.com'
p5679
atp5680
Rp5681
sS'willamettenamescomllc'
p5682
g1
((lp5683
S'whois.web.com'
p5684
aS'whois.willamettenames.com'
p5685
atp5686
Rp5687
sS'beartrapdomainscomllc'
p5688
g1
((lp5689
S'whois.web.com'
p5690
aS'whois.beartrapdomains.com'
p5691
atp5692
Rp5693
sS'finegraindomainsllc'
p5694
g1
((lp5695
S'whois.web.com'
p5696
aS'whois.finegraindomains.com'
p5697
atp5698
Rp5699
sS'dropcatchcom970llc'
p5700
g1
((lp5701
S'whois.namebright.com'
p5702
atp5703
Rp5704
sS'nictradeinternetidentidyproviderab'
p5705
g1
((lp5706
S'whois.nictrade.se'
p5707
atp5708
Rp5709
sS'dropcatchcom895llc'
p5710
g1
((lp5711
S'whois.namebright.com'
p5712
atp5713
Rp5714
sS'domainregistrationservicesincdbadotearthcom'
p5715
g1
((lp5716
S'whois.dotearth.com'
p5717
atp5718
Rp5719
sS'bizcncominc'
p5720
g1
((lp5721
S'whois.bizcn.com'
p5722
atp5723
Rp5724
sS'namelingcomllc'
p5725
g1
((lp5726
S'whois.namebright.com'
p5727
atp5728
Rp5729
sS'dropcatchcom410llc'
p5730
g1
((lp5731
S'whois.namebright.com'
p5732
atp5733
Rp5734
sS'scipioafricanusllc'
p5735
g1
((lp5736
S'whois.pheenix.com'
p5737
atp5738
Rp5739
sS'bighouseservicesinc'
p5740
g1
((lp5741
S'whois.web.com'
p5742
atp5743
Rp5744
sS'hercules888llc'
p5745
g1
((lp5746
S'whois.pheenix.com'
p5747
atp5748
Rp5749
sS'dropcatchcom898llc'
p5750
g1
((lp5751
S'whois.namebright.com'
p5752
atp5753
Rp5754
sS'domaingoldzonellc'
p5755
g1
((lp5756
S'whois.web.com'
p5757
aS'whois.domaingoldzonellc.com'
p5758
atp5759
Rp5760
sS'dropcatchcom1001llc'
p5761
g1
((lp5762
S'whois.namebright.com'
p5763
atp5764
Rp5765
sS'dropcatchcom578llc'
p5766
g1
((lp5767
S'whois.namebright.com'
p5768
atp5769
Rp5770
sS'dropcatchcom836llc'
p5771
g1
((lp5772
S'whois.namebright.com'
p5773
atp5774
Rp5775
sS'xiamenchinasourceinternetservicecoltd'
p5776
g1
((lp5777
S'whois.cnolnic.com'
p5778
atp5779
Rp5780
sS'bouncepassdomainsllc'
p5781
g1
((lp5782
S'whois.bouncepassdomainsllc.com'
p5783
aS'whois.web.com'
p5784
atp5785
Rp5786
sS'dropcatchcom699llc'
p5787
g1
((lp5788
S'whois.namebright.com'
p5789
atp5790
Rp5791
sS'paragoninternetgroupltdtaparagonnames'
p5792
g1
((lp5793
S'whois.paragonnames.net'
p5794
atp5795
Rp5796
sS'dropcatchcom380llc'
p5797
g1
((lp5798
S'whois.namebright.com'
p5799
atp5800
Rp5801
sS'dropcatchcom976llc'
p5802
g1
((lp5803
S'whois.namebright.com'
p5804
atp5805
Rp5806
sS'dropcatchcom788llc'
p5807
g1
((lp5808
S'whois.namebright.com'
p5809
atp5810
Rp5811
sS'zeus888llc'
p5812
g1
((lp5813
S'whois.pheenix.com'
p5814
atp5815
Rp5816
sS'thirdroundnamesllc'
p5817
g1
((lp5818
S'whois.web.com'
p5819
aS'whois.thirdroundnamesllc.com'
p5820
atp5821
Rp5822
sS'dropcatchcom691llc'
p5823
g1
((lp5824
S'whois.namebright.com'
p5825
atp5826
Rp5827
sS'dropcatchcom778llc'
p5828
g1
((lp5829
S'whois.namebright.com'
p5830
atp5831
Rp5832
sS'dropcatchcom766llc'
p5833
g1
((lp5834
S'whois.namebright.com'
p5835
atp5836
Rp5837
sS'dropcatchcom942llc'
p5838
g1
((lp5839
S'whois.namebright.com'
p5840
atp5841
Rp5842
sS'frenchconnexiondbadomainefr'
p5843
g1
((lp5844
S'whois.french-connexion.com'
p5845
atp5846
Rp5847
sS'pheenix2llc'
p5848
g1
((lp5849
S'whois.pheenix.com'
p5850
atp5851
Rp5852
sS'powercarrierinc'
p5853
g1
((lp5854
S'whois.powercarrier.com'
p5855
atp5856
Rp5857
sS'dropcatchcom728llc'
p5858
g1
((lp5859
S'whois.namebright.com'
p5860
atp5861
Rp5862
sS'magnoliadomainsllc'
p5863
g1
((lp5864
S'whois.web.com'
p5865
aS'whois.magnoliadomains.com'
p5866
atp5867
Rp5868
sS'namesexpressllc'
p5869
g1
((lp5870
S'whois.web.com'
p5871
aS'whois.namesexpressllc.com'
p5872
atp5873
Rp5874
sS'visualnamesllc'
p5875
g1
((lp5876
S'whois.namebright.com'
p5877
atp5878
Rp5879
sS'dropcatchcom511llc'
p5880
g1
((lp5881
S'whois.namebright.com'
p5882
atp5883
Rp5884
sS'namegrabllc'
p5885
g1
((lp5886
S'whois.web.com'
p5887
aS'whois.namegrabllc.com'
p5888
atp5889
Rp5890
sS'iconicnamesllc'
p5891
g1
((lp5892
S'whois.web.com'
p5893
aS'whois.iconicnamesllc.com'
p5894
atp5895
Rp5896
sS'oregoneucomllc'
p5897
g1
((lp5898
S'whois.web.com'
p5899
aS'whois.oregoneu.com'
p5900
atp5901
Rp5902
sS'namesayllc'
p5903
g1
((lp5904
S'whois.namebright.com'
p5905
atp5906
Rp5907
sS'pheenix75llc'
p5908
g1
((lp5909
S'whois.pheenix.com'
p5910
atp5911
Rp5912
sS'domainsovereignscomllc'
p5913
g1
((lp5914
S'whois.web.com'
p5915
aS'whois.domainsovereigns.com'
p5916
atp5917
Rp5918
sS'snoqulamiedomainscomllc'
p5919
g1
((lp5920
S'whois.web.com'
p5921
aS'whois.snoqulamiedomains.com'
p5922
atp5923
Rp5924
sS'kinxcoltd'
p5925
g1
((lp5926
S'whois.gabia.com'
p5927
atp5928
Rp5929
sS'registeritspa'
p5930
g1
((lp5931
S'whois.register.it'
p5932
atp5933
Rp5934
sS'dropcatchcom475llc'
p5935
g1
((lp5936
S'whois.namebright.com'
p5937
atp5938
Rp5939
sS'dropcatchcom933llc'
p5940
g1
((lp5941
S'whois.namebright.com'
p5942
atp5943
Rp5944
sS'dotnamedllc'
p5945
g1
((lp5946
S'whois.namebright.com'
p5947
atp5948
Rp5949
sS'findyouadomaincomllc'
p5950
g1
((lp5951
S'whois.web.com'
p5952
aS'whois.findyouadomain.com'
p5953
atp5954
Rp5955
sS'domainsoforiginllc'
p5956
g1
((lp5957
S'whois.web.com'
p5958
aS'whois.domainsoforigin.com'
p5959
atp5960
Rp5961
sS'urlsolutionsinc'
p5962
g1
((lp5963
S'whois.pananames.com'
p5964
atp5965
Rp5966
sS'enom652inc'
p5967
g1
((lp5968
S'whois.web.com'
p5969
aS'whois.enom652.com'
p5970
atp5971
Rp5972
sS'domainsnapperllc'
p5973
g1
((lp5974
S'whois.web.com'
p5975
aS'whois.domainsnapperllc.com'
p5976
atp5977
Rp5978
sS'dropcatchcom697llc'
p5979
g1
((lp5980
S'whois.namebright.com'
p5981
atp5982
Rp5983
sS'beijingwangzuntechnologycoltd'
p5984
g1
((lp5985
S'whois.namemax.cn'
p5986
atp5987
Rp5988
sS'enomforinc'
p5989
g1
((lp5990
S'whois.enomfor.com'
p5991
atp5992
Rp5993
sS'openttldbv'
p5994
g1
((lp5995
S'whois.freenom.com'
p5996
atp5997
Rp5998
sS'domainestaaquillc'
p5999
g1
((lp6000
S'whois.web.com'
p6001
aS'whois.domainestaaqui.com'
p6002
atp6003
Rp6004
sS'dropcatchcom425llc'
p6005
g1
((lp6006
S'whois.namebright.com'
p6007
atp6008
Rp6009
sS'pheenix94llc'
p6010
g1
((lp6011
S'whois.pheenix.com'
p6012
atp6013
Rp6014
sS'layupdomainsllc'
p6015
g1
((lp6016
S'whois.web.com'
p6017
aS'whois.layupdomainsllc.com'
p6018
atp6019
Rp6020
sS'dropweekcom'
p6021
g1
((lp6022
S'whois.web.com'
p6023
aS'whois.namepal.com'
p6024
atp6025
Rp6026
sS'centerofukrainianinternetnames'
p6027
g1
((lp6028
S'whois.ukrnames.com'
p6029
atp6030
Rp6031
sS'alldomainsllc'
p6032
g1
((lp6033
S'whois.web.com'
p6034
aS'whois.alldomainsllc.com'
p6035
aS'whois2.domain.com'
p6036
atp6037
Rp6038
sS'melbourneitltddbainternetnamesworldwide'
p6039
g1
((lp6040
S'whois.melbourneit.com'
p6041
atp6042
Rp6043
sS'namesprosolutionsinc'
p6044
g1
((lp6045
S'whois.namespro.ca'
p6046
atp6047
Rp6048
sS'dropcatchcom829llc'
p6049
g1
((lp6050
S'whois.namebright.com'
p6051
atp6052
Rp6053
sS'dropcatchcom659llc'
p6054
g1
((lp6055
S'whois.namebright.com'
p6056
atp6057
Rp6058
sS'shinjirumscsdnbhd'
p6059
g1
((lp6060
S'whois.ilovewww.com'
p6061
atp6062
Rp6063
sS'interdominiosinc'
p6064
g1
((lp6065
S'whois.interdominios.com'
p6066
atp6067
Rp6068
sS'pheenix30llc'
p6069
g1
((lp6070
S'whois.pheenix.com'
p6071
atp6072
Rp6073
sS'dropcatchcom544llc'
p6074
g1
((lp6075
S'whois.namebright.com'
p6076
atp6077
Rp6078
sS'udamaincomllc'
p6079
g1
((lp6080
S'whois.web.com'
p6081
aS'whois.udamain.com'
p6082
atp6083
Rp6084
sS'name114inc'
p6085
g1
((lp6086
S'whois.dharanadomains.com'
p6087
atp6088
Rp6089
sS'domainjamboreellc'
p6090
g1
((lp6091
S'whois.domainjamboreellc.com'
p6092
atp6093
Rp6094
sS'enom672inc'
p6095
g1
((lp6096
S'whois.web.com'
p6097
aS'whois.enom672.com'
p6098
atp6099
Rp6100
sS'eneticaptyltd'
p6101
g1
((lp6102
S'whois.enetica.com.au'
p6103
atp6104
Rp6105
sS'threadwisecominc'
p6106
g1
((lp6107
S'whois.pheenix.com'
p6108
atp6109
Rp6110
sS'dropcatchcom795llc'
p6111
g1
((lp6112
S'whois.namebright.com'
p6113
atp6114
Rp6115
sS'pheenix38llc'
p6116
g1
((lp6117
S'whois.pheenix.com'
p6118
atp6119
Rp6120
sS'goldminedomainsllc'
p6121
g1
((lp6122
S'whois.web.com'
p6123
aS'whois.goldminedomainsllc.com'
p6124
atp6125
Rp6126
sS'dropcatchcom473llc'
p6127
g1
((lp6128
S'whois.namebright.com'
p6129
atp6130
Rp6131
sS'core53bestregistrarcom'
p6132
g1
((lp6133
S'whois.corehub.net'
p6134
atp6135
Rp6136
sS'domaincriticsllc'
p6137
g1
((lp6138
S'whois.namebright.com'
p6139
atp6140
Rp6141
sS'dropcatchcom704llc'
p6142
g1
((lp6143
S'whois.namebright.com'
p6144
atp6145
Rp6146
sS'karlvonclausewitzllc'
p6147
g1
((lp6148
S'whois.pheenix.com'
p6149
atp6150
Rp6151
sS'dropcatchcom627llc'
p6152
g1
((lp6153
S'whois.namebright.com'
p6154
atp6155
Rp6156
sS'registrygategmbh'
p6157
g1
((lp6158
S'whois.registrygate.com'
p6159
atp6160
Rp6161
sS'dropcatchcom995llc'
p6162
g1
((lp6163
S'whois.namebright.com'
p6164
atp6165
Rp6166
sS'gocanadadomainsllc'
p6167
g1
((lp6168
S'whois.gocanadadomains.com'
p6169
atp6170
Rp6171
sS'domainyeticomllc'
p6172
g1
((lp6173
S'whois.web.com'
p6174
aS'whois.domainyeti.com'
p6175
atp6176
Rp6177
sS'dropcatchcom628llc'
p6178
g1
((lp6179
S'whois.namebright.com'
p6180
atp6181
Rp6182
sS'pheenix1llc'
p6183
g1
((lp6184
S'whois.pheenix.com'
p6185
atp6186
Rp6187
sS'amazonregistrarinc'
p6188
g1
((lp6189
S'whois.registrar.amazon.com'
p6190
atp6191
Rp6192
sS'dropcatchcom989llc'
p6193
g1
((lp6194
S'whois.namebright.com'
p6195
atp6196
Rp6197
sS'cloudsharkllc'
p6198
g1
((lp6199
S'whois.22.cn'
p6200
atp6201
Rp6202
sS'dropcatchcom570llc'
p6203
g1
((lp6204
S'whois.namebright.com'
p6205
atp6206
Rp6207
sS'nameconnectionspotllc'
p6208
g1
((lp6209
S'whois.web.com'
p6210
aS'whois.nameconnectionspotllc.com'
p6211
atp6212
Rp6213
sS'dropcatchcom665llc'
p6214
g1
((lp6215
S'whois.namebright.com'
p6216
atp6217
Rp6218
sS'dropcatchcom747llc'
p6219
g1
((lp6220
S'whois.namebright.com'
p6221
atp6222
Rp6223
sS'eagleeyedomainsllc'
p6224
g1
((lp6225
S'whois.eagleeyedomains.com'
p6226
aS'whois.web.com'
p6227
atp6228
Rp6229
sS'kagoyajapaninc'
p6230
g1
((lp6231
S'whois.kagoya.net'
p6232
atp6233
Rp6234
sS'dropcatchcom677llc'
p6235
g1
((lp6236
S'whois.namebright.com'
p6237
atp6238
Rp6239
sS'dropcatchcom1007llc'
p6240
g1
((lp6241
S'whois.namebright.com'
p6242
atp6243
Rp6244
sS'dropcatchcom859llc'
p6245
g1
((lp6246
S'whois.namebright.com'
p6247
atp6248
Rp6249
sS'nictradeinternetidentityproviderab'
p6250
g1
((lp6251
S'whois.nictrade.se'
p6252
atp6253
Rp6254
sS'dropcatchcom900llc'
p6255
g1
((lp6256
S'whois.namebright.com'
p6257
atp6258
Rp6259
sS'enom1inc'
p6260
g1
((lp6261
S'whois.enom1.com'
p6262
atp6263
Rp6264
sS'mobilenameservicesinc'
p6265
g1
((lp6266
S'whois.mobilenameservices.com'
p6267
atp6268
Rp6269
sS'domaincostclub'
p6270
g1
((lp6271
S'whois.website.ws'
p6272
atp6273
Rp6274
sS'zoomregistrarllc'
p6275
g1
((lp6276
S'whois.namebright.com'
p6277
atp6278
Rp6279
sS'dancueinc'
p6280
g1
((lp6281
S'whois.web.com'
p6282
aS'whois.namepal.com'
p6283
atp6284
Rp6285
sS'dropcatchcom1071llc'
p6286
g1
((lp6287
S'whois.namebright.com'
p6288
atp6289
Rp6290
sS'name107inc'
p6291
g1
((lp6292
S'whois.webinfinityinc.com'
p6293
atp6294
Rp6295
sS'oldtowndomainscomllc'
p6296
g1
((lp6297
S'whois.web.com'
p6298
aS'whois.oldtowndomains.com'
p6299
atp6300
Rp6301
sS'dropcatchcom921llc'
p6302
g1
((lp6303
S'whois.namebright.com'
p6304
atp6305
Rp6306
sS'dropcatchcom633llc'
p6307
g1
((lp6308
S'whois.namebright.com'
p6309
atp6310
Rp6311
sS'dropcatchcom870llc'
p6312
g1
((lp6313
S'whois.namebright.com'
p6314
atp6315
Rp6316
sS'dropcatchcom720llc'
p6317
g1
((lp6318
S'whois.namebright.com'
p6319
atp6320
Rp6321
sS'tradestarterinc'
p6322
g1
((lp6323
S'whois.tradestarter.com'
p6324
atp6325
Rp6326
sS'zigzagnamescomllc'
p6327
g1
((lp6328
S'whois.web.com'
p6329
aS'whois.zigzagnames.com'
p6330
atp6331
Rp6332
sS'dynadot5llc'
p6333
g1
((lp6334
S'whois.dynadot5.com'
p6335
atp6336
Rp6337
sS'pheenix23llc'
p6338
g1
((lp6339
S'whois.pheenix.com'
p6340
atp6341
Rp6342
sS'trunkoztechnologiespvtltddbaownregistrarcom'
p6343
g1
((lp6344
S'whois.ownregistrar.com'
p6345
atp6346
Rp6347
sS'dropcatchcom741llc'
p6348
g1
((lp6349
S'whois.namebright.com'
p6350
atp6351
Rp6352
sS'greendestinyllc'
p6353
g1
((lp6354
S'whois.pheenix.com'
p6355
atp6356
Rp6357
sS'easyspaceltd'
p6358
g1
((lp6359
S'whois.easyspace.com'
p6360
atp6361
Rp6362
sS'domainsoverboardcomllc'
p6363
g1
((lp6364
S'whois.web.com'
p6365
aS'whois.domainsoverboard.com'
p6366
atp6367
Rp6368
sS'dropcatchcom1048llc'
p6369
g1
((lp6370
S'whois.namebright.com'
p6371
atp6372
Rp6373
sS'dropcatchcom646llc'
p6374
g1
((lp6375
S'whois.namebright.com'
p6376
atp6377
Rp6378
sS'dropcatchcom668llc'
p6379
g1
((lp6380
S'whois.namebright.com'
p6381
atp6382
Rp6383
sS'instinctsolutionsinc'
p6384
g1
((lp6385
S'whois.instinctsolutions.com'
p6386
atp6387
Rp6388
sS'papakiltd'
p6389
g1
((lp6390
S'whois.papaki.gr'
p6391
atp6392
Rp6393
sS'slowputtdomainsllc'
p6394
g1
((lp6395
S'whois.web.com'
p6396
aS'whois.slowputtdomainsllc.com'
p6397
atp6398
Rp6399
sS'goaustraliadomainsllc'
p6400
g1
((lp6401
S'whois.goaustraliadomains.com'
p6402
atp6403
Rp6404
sS'dropcatchcom679llc'
p6405
g1
((lp6406
S'whois.namebright.com'
p6407
atp6408
Rp6409
sS'brdomainincdbanamegearco'
p6410
g1
((lp6411
S'whois.namegear.co'
p6412
atp6413
Rp6414
sS'domainstreetdirectcomllc'
p6415
g1
((lp6416
S'whois.web.com'
p6417
aS'whois.domainstreetdirect.com'
p6418
atp6419
Rp6420
sS'networking4allbv'
p6421
g1
((lp6422
S'whois.networking4all.com'
p6423
atp6424
Rp6425
sS'decentdomainsllc'
p6426
g1
((lp6427
S'whois2.domain.com'
p6428
atp6429
Rp6430
sS'dropcatchcom614llc'
p6431
g1
((lp6432
S'whois.namebright.com'
p6433
atp6434
Rp6435
sS'domainclipdomainsinc'
p6436
g1
((lp6437
S'whois.domainclip.com'
p6438
atp6439
Rp6440
sS'pronamedllc'
p6441
g1
((lp6442
S'whois.namebright.com'
p6443
atp6444
Rp6445
sS'dropcatchcom364llc'
p6446
g1
((lp6447
S'whois.namebright.com'
p6448
atp6449
Rp6450
sS'dropcatchcom831llc'
p6451
g1
((lp6452
S'whois.namebright.com'
p6453
atp6454
Rp6455
sS'dropcatchcom780llc'
p6456
g1
((lp6457
S'whois.namebright.com'
p6458
atp6459
Rp6460
sS'domainnamedrivewayinc'
p6461
g1
((lp6462
S'whois.domainnamedriveway.com'
p6463
atp6464
Rp6465
sS'cciregsa'
p6466
g1
((lp6467
S'whois.ccireg.com'
p6468
atp6469
Rp6470
sS'enom437incorporated'
p6471
g1
((lp6472
S'whois.enom437.com'
p6473
atp6474
Rp6475
sS'dropcatchcom470llc'
p6476
g1
((lp6477
S'whois.namebright.com'
p6478
atp6479
Rp6480
sS'sibernameinternetandsoftwaretechnologiesinc'
p6481
g1
((lp6482
S'whois.sibername.com'
p6483
atp6484
Rp6485
sS'dropcatchcom869llc'
p6486
g1
((lp6487
S'whois.namebright.com'
p6488
atp6489
Rp6490
sS'onlinesas'
p6491
g1
((lp6492
S'whois.bookmyname.com'
p6493
atp6494
Rp6495
sS'thenameitcorporationdbanameservicesnet'
p6496
g1
((lp6497
S'whois.aitdomains.com'
p6498
atp6499
Rp6500
sS'gradeadomainnamescomllc'
p6501
g1
((lp6502
S'whois.web.com'
p6503
aS'whois.gradeadomainnames.com'
p6504
atp6505
Rp6506
sS'xiamendianmeinetworktechnologycoltd'
p6507
g1
((lp6508
S'whois.dianmei.co'
p6509
atp6510
Rp6511
sS'crystalcoalinc'
p6512
g1
((lp6513
S'whois.crystalcoal.com'
p6514
atp6515
Rp6516
sS'dropcatchcom648llc'
p6517
g1
((lp6518
S'whois.namebright.com'
p6519
atp6520
Rp6521
sS'inlanddomainsllc'
p6522
g1
((lp6523
S'whois.web.com'
p6524
aS'whois.inlanddomainsllc.com'
p6525
atp6526
Rp6527
sS'virtualregistrarinc'
p6528
g1
((lp6529
S'whois.virtualregistrar.com'
p6530
atp6531
Rp6532
sS'domaincreekllc'
p6533
g1
((lp6534
S'whois.namebright.com'
p6535
atp6536
Rp6537
sS'alantronbilisimltdsti'
p6538
g1
((lp6539
S'whois.alantron.com'
p6540
atp6541
Rp6542
sS'dropcatchcom981llc'
p6543
g1
((lp6544
S'whois.namebright.com'
p6545
atp6546
Rp6547
sS'solucionescorporativasipsl'
p6548
g1
((lp6549
S'whois.scip.es'
p6550
atp6551
Rp6552
sS'core111nameshield'
p6553
g1
((lp6554
S'whois.corehub.net'
p6555
atp6556
Rp6557
sS'dropcatchcom640llc'
p6558
g1
((lp6559
S'whois.namebright.com'
p6560
atp6561
Rp6562
sS'dropcatchcom867llc'
p6563
g1
((lp6564
S'whois.namebright.com'
p6565
atp6566
Rp6567
sS'dropcatchcom666llc'
p6568
g1
((lp6569
S'whois.namebright.com'
p6570
atp6571
Rp6572
sS'dropfallcominc'
p6573
g1
((lp6574
S'whois.web.com'
p6575
atp6576
Rp6577
sS'dropcatchcom415llc'
p6578
g1
((lp6579
S'whois.namebright.com'
p6580
atp6581
Rp6582
sS'1internetservicesinternationalincdba1isi'
p6583
g1
((lp6584
S'whois.1isi.com'
p6585
atp6586
Rp6587
sS'dropcatchcom592llc'
p6588
g1
((lp6589
S'whois.namebright.com'
p6590
atp6591
Rp6592
sS'dropcatchcom388llc'
p6593
g1
((lp6594
S'whois.namebright.com'
p6595
atp6596
Rp6597
sS'enom656inc'
p6598
g1
((lp6599
S'whois.enom656.com'
p6600
atp6601
Rp6602
sS'625domainsnetworkincdbamy3com'
p6603
g1
((lp6604
S'whois.625domains.com'
p6605
atp6606
Rp6607
sS'webairinternetdevelopmentinc'
p6608
g1
((lp6609
S'whois.webair.com'
p6610
atp6611
Rp6612
sS'dynadot3llc'
p6613
g1
((lp6614
S'whois.dynadot3.com'
p6615
atp6616
Rp6617
sS'namesaplentyllc'
p6618
g1
((lp6619
S'whois.web.com'
p6620
aS'whois.namesaplentyllc.com'
p6621
atp6622
Rp6623
sS'odysseus888llc'
p6624
g1
((lp6625
S'whois.pheenix.com'
p6626
atp6627
Rp6628
sS'namebay'
p6629
g1
((lp6630
S'whois.namebay.com'
p6631
atp6632
Rp6633
sS'haveanamellc'
p6634
g1
((lp6635
S'whois.haveaname.com'
p6636
atp6637
Rp6638
sS'pheenix7llc'
p6639
g1
((lp6640
S'whois.pheenix.com'
p6641
atp6642
Rp6643
sS'pheenix9llc'
p6644
g1
((lp6645
S'whois.pheenix.com'
p6646
atp6647
Rp6648
sS'dropcatchcom768llc'
p6649
g1
((lp6650
S'whois.namebright.com'
p6651
atp6652
Rp6653
sS'swedishdomainsab'
p6654
g1
((lp6655
S'whois.svenskadomaner.se'
p6656
atp6657
Rp6658
sS'epikinc'
p6659
g1
((lp6660
S'whois.epik.com'
p6661
atp6662
Rp6663
sS'oldtymedomainsllc'
p6664
g1
((lp6665
S'whois.web.com'
p6666
aS'whois.oldetymedomains.com'
p6667
atp6668
Rp6669
sS'dropcatchcom929llc'
p6670
g1
((lp6671
S'whois.namebright.com'
p6672
atp6673
Rp6674
sS'dropcatchcom978llc'
p6675
g1
((lp6676
S'whois.namebright.com'
p6677
atp6678
Rp6679
sS'dropcatchcom911llc'
p6680
g1
((lp6681
S'whois.namebright.com'
p6682
atp6683
Rp6684
sS'dropcatchcom808llc'
p6685
g1
((lp6686
S'whois.namebright.com'
p6687
atp6688
Rp6689
sS'enom1009inc'
p6690
g1
((lp6691
S'whois.web.com'
p6692
aS'whois.enom1009.com'
p6693
atp6694
Rp6695
sS'dropcatchcom576llc'
p6696
g1
((lp6697
S'whois.namebright.com'
p6698
atp6699
Rp6700
sS'netistrarltd'
p6701
g1
((lp6702
S'whois.netistrar.com'
p6703
atp6704
Rp6705
sS'dropcatchcom564llc'
p6706
g1
((lp6707
S'whois.namebright.com'
p6708
atp6709
Rp6710
sS'namescoutcom'
p6711
g1
((lp6712
S'whois.namescout.com'
p6713
atp6714
Rp6715
sS'name109inc'
p6716
g1
((lp6717
S'whois.onlinenameservices.com'
p6718
atp6719
Rp6720
sS'dropcatchcom594llc'
p6721
g1
((lp6722
S'whois.namebright.com'
p6723
atp6724
Rp6725
sS'columbianamescomllc'
p6726
g1
((lp6727
S'whois.columbianames.com'
p6728
aS'whois.web.com'
p6729
atp6730
Rp6731
sS'dropcatchcom346llc'
p6732
g1
((lp6733
S'whois.namebright.com'
p6734
atp6735
Rp6736
sS'joanofarcllc'
p6737
g1
((lp6738
S'whois.pheenix.com'
p6739
atp6740
Rp6741
sS'pheenix37llc'
p6742
g1
((lp6743
S'whois.pheenix.com'
p6744
atp6745
Rp6746
sS'dropcatchcom393llc'
p6747
g1
((lp6748
S'whois.namebright.com'
p6749
atp6750
Rp6751
sS'dropcatchcom520llc'
p6752
g1
((lp6753
S'whois.namebright.com'
p6754
atp6755
Rp6756
sS'pheenix68llc'
p6757
g1
((lp6758
S'whois.pheenix.com'
p6759
atp6760
Rp6761
sS'dropcatchcom485llc'
p6762
g1
((lp6763
S'whois.namebright.com'
p6764
atp6765
Rp6766
sS'11internetse'
p6767
g1
((lp6768
S'whois.1and1.com'
p6769
atp6770
Rp6771
sS'pheenix64llc'
p6772
g1
((lp6773
S'whois.pheenix.com'
p6774
atp6775
Rp6776
sS'enom381incorporated'
p6777
g1
((lp6778
S'whois.web.com'
p6779
aS'whois.enom381.com'
p6780
atp6781
Rp6782
sS'dropcatchcom771llc'
p6783
g1
((lp6784
S'whois.namebright.com'
p6785
atp6786
Rp6787
sS'theregistrarserviceinc'
p6788
g1
((lp6789
S'whois.theregistrarservice.com'
p6790
atp6791
Rp6792
sS'cloudcityllc'
p6793
g1
((lp6794
S'whois.22.cn'
p6795
atp6796
Rp6797
sS'dropcatchcom635llc'
p6798
g1
((lp6799
S'whois.namebright.com'
p6800
atp6801
Rp6802
sS'isorokuyamamotollc'
p6803
g1
((lp6804
S'whois.pheenix.com'
p6805
atp6806
Rp6807
sS'yourdomainkinginc'
p6808
g1
((lp6809
S'whois.yourdomainking.com'
p6810
atp6811
Rp6812
sS'protocolinternettechnologylimitedtahostingireland'
p6813
g1
((lp6814
S'whois.hostingireland.ie'
p6815
atp6816
Rp6817
sS'dropcatchcom605llc'
p6818
g1
((lp6819
S'whois.namebright.com'
p6820
atp6821
Rp6822
sS'hannibalbarcallc'
p6823
g1
((lp6824
S'whois.pheenix.com'
p6825
atp6826
Rp6827
sS'dropcatchcom861llc'
p6828
g1
((lp6829
S'whois.namebright.com'
p6830
atp6831
Rp6832
sS'dropcatchcom734llc'
p6833
g1
((lp6834
S'whois.namebright.com'
p6835
atp6836
Rp6837
sS'lionsharedomainsllc'
p6838
g1
((lp6839
S'whois.web.com'
p6840
atp6841
Rp6842
sS'fiduciallclatvijasparstavnieciba'
p6843
g1
((lp6844
S'whois.fiducia.lv'
p6845
atp6846
Rp6847
sS'monikeronlineservicesllc'
p6848
g1
((lp6849
S'whois.moniker.com'
p6850
atp6851
Rp6852
sS'dropcatchcom555llc'
p6853
g1
((lp6854
S'whois.namebright.com'
p6855
atp6856
Rp6857
sS'dncholdingsinc'
p6858
g1
((lp6859
S'whois.directnic.com'
p6860
atp6861
Rp6862
sS'22netinc'
p6863
g1
((lp6864
S'whois.22.cn'
p6865
atp6866
Rp6867
sS'aristotle888llc'
p6868
g1
((lp6869
S'whois.pheenix.com'
p6870
atp6871
Rp6872
sS'dropcatchcom973llc'
p6873
g1
((lp6874
S'whois.namebright.com'
p6875
atp6876
Rp6877
sS'dotholdinginc'
p6878
g1
((lp6879
S'whois.dotology.com'
p6880
atp6881
Rp6882
sS'safebrandssas'
p6883
g1
((lp6884
S'whois.mailclub.net'
p6885
atp6886
Rp6887
sS'slamdunkdomainsllc'
p6888
g1
((lp6889
S'whois.web.com'
p6890
aS'whois.slamdunkdomainsllc.com'
p6891
atp6892
Rp6893
sS'enom1034inc'
p6894
g1
((lp6895
S'whois.web.com'
p6896
aS'whois.enom1034.com'
p6897
atp6898
Rp6899
sS'enom443incorporated'
p6900
g1
((lp6901
S'whois.web.com'
p6902
aS'whois.enom443.com'
p6903
atp6904
Rp6905
sS'tagidomains'
p6906
g1
((lp6907
S'whois.tag-domains.com'
p6908
atp6909
Rp6910
sS'addresscreationllc'
p6911
g1
((lp6912
S'whois2.domain.com'
p6913
atp6914
Rp6915
sS'gransysrodbasubregcz'
p6916
g1
((lp6917
S'whois.regtons.com'
p6918
atp6919
Rp6920
sS'dropcatchcom759llc'
p6921
g1
((lp6922
S'whois.namebright.com'
p6923
atp6924
Rp6925
sS'netowlinc'
p6926
g1
((lp6927
S'whois.star-domain.jp'
p6928
atp6929
Rp6930
sS'domainprimecomllc'
p6931
g1
((lp6932
S'whois.namebright.com'
p6933
atp6934
Rp6935
sS'dropcatchcom876llc'
p6936
g1
((lp6937
S'whois.namebright.com'
p6938
atp6939
Rp6940
sS'enom373incorporated'
p6941
g1
((lp6942
S'whois.enom373.com'
p6943
atp6944
Rp6945
sS'1hostgermanyinc'
p6946
g1
((lp6947
S'whois.web.com'
p6948
aS'whois.1hostgermany.com'
p6949
atp6950
Rp6951
sS'dropcatchcom1022llc'
p6952
g1
((lp6953
S'whois.namebright.com'
p6954
atp6955
Rp6956
sS'atlanticdomainsllc'
p6957
g1
((lp6958
S'whois.web.com'
p6959
aS'whois.atlanticdomainsllc.com'
p6960
atp6961
Rp6962
sS'whiteglovedomainsincorporated'
p6963
g1
((lp6964
S'whois.whiteglovedomains.com'
p6965
atp6966
Rp6967
sS'dropcatchcom960llc'
p6968
g1
((lp6969
S'whois.namebright.com'
p6970
atp6971
Rp6972
sS'sitefrenzycomllc'
p6973
g1
((lp6974
S'whois.sitefrenzy.com'
p6975
aS'whois.web.com'
p6976
atp6977
Rp6978
sS'dropcatchcom879llc'
p6979
g1
((lp6980
S'whois.namebright.com'
p6981
atp6982
Rp6983
sS'pheenix26llc'
p6984
g1
((lp6985
S'whois.pheenix.com'
p6986
atp6987
Rp6988
sS'dropcatchcom710llc'
p6989
g1
((lp6990
S'whois.namebright.com'
p6991
atp6992
Rp6993
sS'dropcatchcom348llc'
p6994
g1
((lp6995
S'whois.namebright.com'
p6996
atp6997
Rp6998
sS'diamatrixcc'
p6999
g1
((lp7000
S'whois.domains.co.za'
p7001
atp7002
Rp7003
sS'dropcatchcom834llc'
p7004
g1
((lp7005
S'whois.namebright.com'
p7006
atp7007
Rp7008
sS'dropcatchcom934llc'
p7009
g1
((lp7010
S'whois.namebright.com'
p7011
atp7012
Rp7013
sS'whitealligatordomainsllc'
p7014
g1
((lp7015
S'whois.web.com'
p7016
aS'whois.whitealligatordomains.com'
p7017
atp7018
Rp7019
sS'dropcatchcom726llc'
p7020
g1
((lp7021
S'whois.namebright.com'
p7022
atp7023
Rp7024
sS'hostingukrainellc'
p7025
g1
((lp7026
S'whois.ukraine.com.ua'
p7027
atp7028
Rp7029
sS'hichinazhichengtechnologyltd'
p7030
g1
((lp7031
S'grs-whois.hichina.com'
p7032
atp7033
Rp7034
sS'whtcoltd'
p7035
g1
((lp7036
S'whois.gabia.com'
p7037
atp7038
Rp7039
sS'dropcatchcom881llc'
p7040
g1
((lp7041
S'whois.namebright.com'
p7042
atp7043
Rp7044
sS'domaincampingllc'
p7045
g1
((lp7046
S'whois2.domain.com'
p7047
atp7048
Rp7049
sS'namestrategiesllc'
p7050
g1
((lp7051
S'whois.namebright.com'
p7052
atp7053
Rp7054
sS'1hostcanadainc'
p7055
g1
((lp7056
S'whois.web.com'
p7057
aS'whois.1hostcanada.com'
p7058
atp7059
Rp7060
sS'pheenix60llc'
p7061
g1
((lp7062
S'whois.pheenix.com'
p7063
atp7064
Rp7065
sS'core28netwizardsinc'
p7066
g1
((lp7067
S'whois.corehub.net'
p7068
atp7069
Rp7070
sS'dropcatchcom467llc'
p7071
g1
((lp7072
S'whois.namebright.com'
p7073
atp7074
Rp7075
sS'dropcatchcom501llc'
p7076
g1
((lp7077
S'whois.namebright.com'
p7078
atp7079
Rp7080
sS'ignitelainc'
p7081
g1
((lp7082
S'whois.pheenix.com'
p7083
atp7084
Rp7085
sS'interlakenamescomllc'
p7086
g1
((lp7087
S'whois.web.com'
p7088
aS'whois.interlakenames.com'
p7089
atp7090
Rp7091
sS'inamescoltd'
p7092
g1
((lp7093
S'whois.inames.co.kr'
p7094
atp7095
Rp7096
sS'dropcatchcom483llc'
p7097
g1
((lp7098
S'whois.namebright.com'
p7099
atp7100
Rp7101
sS'dropcatchcom690llc'
p7102
g1
((lp7103
S'whois.namebright.com'
p7104
atp7105
Rp7106
sS'internetinvestltddbaimenaua'
p7107
g1
((lp7108
S'whois.imena.ua'
p7109
atp7110
Rp7111
sS'ilaitab'
p7112
g1
((lp7113
S'whois.ilait.com'
p7114
atp7115
Rp7116
sS'southnamesinc'
p7117
g1
((lp7118
S'whois.web.com'
p7119
aS'whois.namepal.com'
p7120
atp7121
Rp7122
sS'adomainofyourowncomllc'
p7123
g1
((lp7124
S'whois.web.com'
p7125
aS'whois.adomainofyourown.com'
p7126
atp7127
Rp7128
sS'domainagogollc'
p7129
g1
((lp7130
S'whois2.domain.com'
p7131
atp7132
Rp7133
sS'httpnetinternetgmbh'
p7134
g1
((lp7135
S'whois.http.net'
p7136
atp7137
Rp7138
sS'volusioninc'
p7139
g1
((lp7140
S'whois.volusion.com'
p7141
atp7142
Rp7143
sS'dropcatchcom800llc'
p7144
g1
((lp7145
S'whois.namebright.com'
p7146
atp7147
Rp7148
sS'dropcatchcom987llc'
p7149
g1
((lp7150
S'whois.namebright.com'
p7151
atp7152
Rp7153
sS'afterdarkdomainsincorporated'
p7154
g1
((lp7155
S'whois.afterdarkdomainsincorporated.com'
p7156
atp7157
Rp7158
sS'dropcatchcom509llc'
p7159
g1
((lp7160
S'whois.namebright.com'
p7161
atp7162
Rp7163
sS'rankusainc'
p7164
g1
((lp7165
S'whois.rankusa.com'
p7166
atp7167
Rp7168
sS'dropcatchcom890llc'
p7169
g1
((lp7170
S'whois.namebright.com'
p7171
atp7172
Rp7173
sS'gonamehicominc'
p7174
g1
((lp7175
S'whois.pheenix.com'
p7176
atp7177
Rp7178
sS'vautronrechenzentrumag'
p7179
g1
((lp7180
S'whois.antagus.de'
p7181
atp7182
Rp7183
sS'domusenterprisesllcdbadomus'
p7184
g1
((lp7185
S'whois.domus-llc.com'
p7186
atp7187
Rp7188
sS'namesalacartecomllc'
p7189
g1
((lp7190
S'whois.web.com'
p7191
aS'whois.namesalacarte.com'
p7192
atp7193
Rp7194
sS'dropcatchcom435llc'
p7195
g1
((lp7196
S'whois.namebright.com'
p7197
atp7198
Rp7199
sS'dropcatchcom779llc'
p7200
g1
((lp7201
S'whois.namebright.com'
p7202
atp7203
Rp7204
sS'dropcatchcom932llc'
p7205
g1
((lp7206
S'whois.namebright.com'
p7207
atp7208
Rp7209
sS'peterthegreatllc'
p7210
g1
((lp7211
S'whois.pheenix.com'
p7212
atp7213
Rp7214
sS'dropcatchcom620llc'
p7215
g1
((lp7216
S'whois.namebright.com'
p7217
atp7218
Rp7219
sS'dropcatchcom839llc'
p7220
g1
((lp7221
S'whois.namebright.com'
p7222
atp7223
Rp7224
sS'domainefr'
p7225
g1
((lp7226
S'whois.french-connexion.com'
p7227
atp7228
Rp7229
sS'dropcatchcom507llc'
p7230
g1
((lp7231
S'whois.namebright.com'
p7232
atp7233
Rp7234
sS'pheenix66llc'
p7235
g1
((lp7236
S'whois.pheenix.com'
p7237
atp7238
Rp7239
sS'core39knippmedienundkommunikationgmbh'
p7240
g1
((lp7241
S'whois.corehub.net'
p7242
atp7243
Rp7244
sS'hoganlovellsinternationalllp'
p7245
g1
((lp7246
S'whois.anchovy.com'
p7247
atp7248
Rp7249
sS'crononag'
p7250
g1
((lp7251
S'whois.cronon.net'
p7252
atp7253
Rp7254
sS'dropcatchcom823llc'
p7255
g1
((lp7256
S'whois.namebright.com'
p7257
atp7258
Rp7259
sS'flappydomaininc'
p7260
g1
((lp7261
S'whois.flappydomain.com'
p7262
atp7263
Rp7264
sS'namesectorllc'
p7265
g1
((lp7266
S'whois.namebright.com'
p7267
atp7268
Rp7269
sS'dropcatchcom497llc'
p7270
g1
((lp7271
S'whois.namebright.com'
p7272
atp7273
Rp7274
sS'gungagalungacorporation'
p7275
g1
((lp7276
S'whois.web.com'
p7277
atp7278
Rp7279
sS'dropcatchcom387llc'
p7280
g1
((lp7281
S'whois.namebright.com'
p7282
atp7283
Rp7284
sS'desertsanddomainsllc'
p7285
g1
((lp7286
S'whois.desertsanddomains.com'
p7287
aS'whois.web.com'
p7288
atp7289
Rp7290
sS'azdomainzllc'
p7291
g1
((lp7292
S'whois.azdomainz.com'
p7293
atp7294
Rp7295
sS'annamllc'
p7296
g1
((lp7297
S'whois.pheenix.com'
p7298
atp7299
Rp7300
sS'dropcatchcom416llc'
p7301
g1
((lp7302
S'whois.namebright.com'
p7303
atp7304
Rp7305
sS'dropcatchcom643llc'
p7306
g1
((lp7307
S'whois.namebright.com'
p7308
atp7309
Rp7310
sS'straight8domainsllc'
p7311
g1
((lp7312
S'whois.straight8domains.com'
p7313
aS'whois.web.com'
p7314
atp7315
Rp7316
sS'freedivedomainsllc'
p7317
g1
((lp7318
S'whois.web.com'
p7319
aS'whois.freedivedomains.com'
p7320
atp7321
Rp7322
sS'worldbizdomainsllc'
p7323
g1
((lp7324
S'whois.worldbizdomains.com'
p7325
atp7326
Rp7327
sS'dropcatchcom761llc'
p7328
g1
((lp7329
S'whois.namebright.com'
p7330
atp7331
Rp7332
sS'meshdigitallimited'
p7333
g1
((lp7334
S'whois.123-reg.co.uk'
p7335
aS'whois.meshdigital.com'
p7336
atp7337
Rp7338
sS'netearthoneincdbanetearth'
p7339
g1
((lp7340
S'whois.advancedregistrar.com'
p7341
atp7342
Rp7343
sS'genghiskhanllc'
p7344
g1
((lp7345
S'whois.pheenix.com'
p7346
atp7347
Rp7348
sS'pheenix32llc'
p7349
g1
((lp7350
S'whois.pheenix.com'
p7351
atp7352
Rp7353
sS'007namesinc'
p7354
g1
((lp7355
S'whois.007names.com'
p7356
atp7357
Rp7358
sS'dropcatchcom968llc'
p7359
g1
((lp7360
S'whois.namebright.com'
p7361
atp7362
Rp7363
sS'dropcatchcom626llc'
p7364
g1
((lp7365
S'whois.namebright.com'
p7366
atp7367
Rp7368
sS'unitedkingdomdomainsllc'
p7369
g1
((lp7370
S'whois2.domain.com'
p7371
atp7372
Rp7373
sS'snapsourcellc'
p7374
g1
((lp7375
S'whois.web.com'
p7376
aS'whois.snapsourcellc.com'
p7377
atp7378
Rp7379
sS'domainrougeinc'
p7380
g1
((lp7381
S'whois.web.com'
p7382
atp7383
Rp7384
sS'europeanconnectiononlinecomllc'
p7385
g1
((lp7386
S'whois.web.com'
p7387
aS'whois.europeanconnectiononline.com'
p7388
atp7389
Rp7390
sS'silverbackdomainscomllc'
p7391
g1
((lp7392
S'whois.web.com'
p7393
aS'whois.silverbackdomains.com'
p7394
atp7395
Rp7396
sS'dropcatchcom545llc'
p7397
g1
((lp7398
S'whois.namebright.com'
p7399
atp7400
Rp7401
sS'neudomainllc'
p7402
g1
((lp7403
S'whois.neudomain.com'
p7404
atp7405
Rp7406
sS'dropcatchcom837llc'
p7407
g1
((lp7408
S'whois.namebright.com'
p7409
atp7410
Rp7411
sS'dropcatchcom1034llc'
p7412
g1
((lp7413
S'whois.namebright.com'
p7414
atp7415
Rp7416
sS'enomskyinc'
p7417
g1
((lp7418
S'whois.web.com'
p7419
atp7420
Rp7421
sS'shanghaibestorayinformationstcoltd'
p7422
g1
((lp7423
S'whois.oray.com'
p7424
atp7425
Rp7426
sS'domainsecurellc'
p7427
g1
((lp7428
S'whois.domainsecurellc.com'
p7429
aS'whois.web.com'
p7430
atp7431
Rp7432
sS'kqwinc'
p7433
g1
((lp7434
S'whois.kqw.com'
p7435
atp7436
Rp7437
sS'addressonthewebllc'
p7438
g1
((lp7439
S'whois2.domain.com'
p7440
atp7441
Rp7442
sS'dropcatchcom491llc'
p7443
g1
((lp7444
S'whois.namebright.com'
p7445
atp7446
Rp7447
sS'pheenix78llc'
p7448
g1
((lp7449
S'whois.pheenix.com'
p7450
atp7451
Rp7452
sS'vertexnamescominc'
p7453
g1
((lp7454
S'whois.vertexnames.com'
p7455
atp7456
Rp7457
sS'dropcatchcom381llc'
p7458
g1
((lp7459
S'whois.namebright.com'
p7460
atp7461
Rp7462
sS'dropcatchcom789llc'
p7463
g1
((lp7464
S'whois.namebright.com'
p7465
atp7466
Rp7467
sS'enom441incorporated'
p7468
g1
((lp7469
S'whois.web.com'
p7470
aS'whois.enom441.com'
p7471
atp7472
Rp7473
sS'atakdomain'
p7474
g1
((lp7475
S'whois.atakteknoloji.com'
p7476
atp7477
Rp7478
sS'intersolvedwacominc'
p7479
g1
((lp7480
S'whois.pheenix.com'
p7481
atp7482
Rp7483
sS'dropcatchcom718llc'
p7484
g1
((lp7485
S'whois.namebright.com'
p7486
atp7487
Rp7488
sS'dropcatchcom389llc'
p7489
g1
((lp7490
S'whois.namebright.com'
p7491
atp7492
Rp7493
sS'pheenix46llc'
p7494
g1
((lp7495
S'whois.pheenix.com'
p7496
atp7497
Rp7498
sS'dropcatchcom767llc'
p7499
g1
((lp7500
S'whois.namebright.com'
p7501
atp7502
Rp7503
sS'dropcatchcom654llc'
p7504
g1
((lp7505
S'whois.namebright.com'
p7506
atp7507
Rp7508
sS'dropcatchcom856llc'
p7509
g1
((lp7510
S'whois.namebright.com'
p7511
atp7512
Rp7513
sS'dropcatchcom939llc'
p7514
g1
((lp7515
S'whois.namebright.com'
p7516
atp7517
Rp7518
sS'name111inc'
p7519
g1
((lp7520
S'whois.canyongate.biz'
p7521
atp7522
Rp7523
sS'dropcatchcom445llc'
p7524
g1
((lp7525
S'whois.namebright.com'
p7526
atp7527
Rp7528
sS'devildogdomainscomllc'
p7529
g1
((lp7530
S'whois.web.com'
p7531
aS'whois.devildogdomains.com'
p7532
atp7533
Rp7534
sS'dropcatchcom543llc'
p7535
g1
((lp7536
S'whois.namebright.com'
p7537
atp7538
Rp7539
sS'asciotechnologiesincdanmarkfilialafasciotechnologiesincusa'
p7540
g1
((lp7541
S'whois.ascio.com'
p7542
atp7543
Rp7544
sS'toppicknamesllc'
p7545
g1
((lp7546
S'whois.web.com'
p7547
aS'whois.toppicknamesllc.com'
p7548
atp7549
Rp7550
sS'pheenix65llc'
p7551
g1
((lp7552
S'whois.pheenix.com'
p7553
atp7554
Rp7555
sS'dropcatchcom1032llc'
p7556
g1
((lp7557
S'whois.namebright.com'
p7558
atp7559
Rp7560
sS'activeregistrarinc'
p7561
g1
((lp7562
S'whois.activeregistrar.com'
p7563
atp7564
Rp7565
sS'core138privianet'
p7566
g1
((lp7567
S'whois.corehub.net'
p7568
atp7569
Rp7570
sS'longdrivedomainsllc'
p7571
g1
((lp7572
S'whois.web.com'
p7573
aS'whois.longdrivedomainsllc.com'
p7574
atp7575
Rp7576
sS'dropcatchcom738llc'
p7577
g1
((lp7578
S'whois.namebright.com'
p7579
atp7580
Rp7581
sS'dattateccomsrl'
p7582
g1
((lp7583
S'whois.dattatec.com'
p7584
atp7585
Rp7586
sS'35technologycoltd'
p7587
g1
((lp7588
S'whois.35.com'
p7589
atp7590
Rp7591
sS'firstserverinc'
p7592
g1
((lp7593
S'whois.do-reg.jp'
p7594
atp7595
Rp7596
sS'domainprollc'
p7597
g1
((lp7598
S'whois2.domain.com'
p7599
atp7600
Rp7601
sS'austriadomainsllc'
p7602
g1
((lp7603
S'whois2.domain.com'
p7604
atp7605
Rp7606
sS'dropcatchcom1024llc'
p7607
g1
((lp7608
S'whois.namebright.com'
p7609
atp7610
Rp7611
sS'veritasdomainsllc'
p7612
g1
((lp7613
S'whois.veritasdomains.com'
p7614
aS'whois.web.com'
p7615
atp7616
Rp7617
sS'totalregistrations'
p7618
g1
((lp7619
S'whois.totalregistrations.com'
p7620
atp7621
Rp7622
sS'dropcatchcom716llc'
p7623
g1
((lp7624
S'whois.namebright.com'
p7625
atp7626
Rp7627
sS'guangzhouehosttechcoltd'
p7628
g1
((lp7629
S'whois.topvhost.net'
p7630
atp7631
Rp7632
sS'microbreweddomainscomllc'
p7633
g1
((lp7634
S'whois.web.com'
p7635
aS'whois.microbreweddomains.com'
p7636
atp7637
Rp7638
sS'enomgmpservicesinc'
p7639
g1
((lp7640
S'whois.enomgmpservices.com'
p7641
atp7642
Rp7643
sS'toekienterprisesco'
p7644
g1
((lp7645
S'whois.namesilo.com'
p7646
atp7647
Rp7648
sS'cloudsunllc'
p7649
g1
((lp7650
S'whois.22.cn'
p7651
atp7652
Rp7653
sS'1hostaustraliainc'
p7654
g1
((lp7655
S'whois.web.com'
p7656
aS'whois.1hostaustralia.com'
p7657
atp7658
Rp7659
sS'dropcatchcom920llc'
p7660
g1
((lp7661
S'whois.namebright.com'
p7662
atp7663
Rp7664
sS'pheenix48llc'
p7665
g1
((lp7666
S'whois.pheenix.com'
p7667
atp7668
Rp7669
sS'dropcatchcom806llc'
p7670
g1
((lp7671
S'whois.namebright.com'
p7672
atp7673
Rp7674
sS'dropcatchcom1539llc'
p7675
g1
((lp7676
S'whois.namebright.com'
p7677
atp7678
Rp7679
sS'dropcatchcom533llc'
p7680
g1
((lp7681
S'whois.namebright.com'
p7682
atp7683
Rp7684
sS'pairnicinc'
p7685
g1
((lp7686
S'whois.pairnic.com'
p7687
atp7688
Rp7689
sS'dropcatchcom814llc'
p7690
g1
((lp7691
S'whois.namebright.com'
p7692
atp7693
Rp7694
sS'astutiumlimited'
p7695
g1
((lp7696
S'whois.astutium.com'
p7697
atp7698
Rp7699
sS'dropcatchcom378llc'
p7700
g1
((lp7701
S'whois.namebright.com'
p7702
atp7703
Rp7704
sS'1hostchinainc'
p7705
g1
((lp7706
S'whois.web.com'
p7707
aS'whois.1hostchina.com'
p7708
atp7709
Rp7710
sS'dropcatchcom433llc'
p7711
g1
((lp7712
S'whois.namebright.com'
p7713
atp7714
Rp7715
sS'thenamecollc'
p7716
g1
((lp7717
S'whois.namebright.com'
p7718
atp7719
Rp7720
sS'domeneshopas'
p7721
g1
((lp7722
S'whois.domainnameshop.com'
p7723
atp7724
Rp7725
sS'nameforwardllc'
p7726
g1
((lp7727
S'whois.namebright.com'
p7728
atp7729
Rp7730
sS'core133blackpointartsinternetsolutionsgmbh'
p7731
g1
((lp7732
S'whois.corehub.net'
p7733
atp7734
Rp7735
sS'paimiinc'
p7736
g1
((lp7737
S'whois.paimi.com'
p7738
atp7739
Rp7740
sS'richardthelionheart888llc'
p7741
g1
((lp7742
S'whois.pheenix.com'
p7743
atp7744
Rp7745
sS'dropcatchcom499llc'
p7746
g1
((lp7747
S'whois.namebright.com'
p7748
atp7749
Rp7750
sS'pheenix31llc'
p7751
g1
((lp7752
S'whois.pheenix.com'
p7753
atp7754
Rp7755
sS'chocolatechipdomainsllc'
p7756
g1
((lp7757
S'whois.web.com'
p7758
aS'whois.chocolatechipdomains.com'
p7759
atp7760
Rp7761
sS'gsonsoftinc'
p7762
g1
((lp7763
S'whois.gabia.com'
p7764
atp7765
Rp7766
sS'dropcatchcom595llc'
p7767
g1
((lp7768
S'whois.namebright.com'
p7769
atp7770
Rp7771
sS'charlesdarwinllc'
p7772
g1
((lp7773
S'whois.pheenix.com'
p7774
atp7775
Rp7776
sS'enom469incorporated'
p7777
g1
((lp7778
S'whois.web.com'
p7779
atp7780
Rp7781
sS'santiamdomainscomllc'
p7782
g1
((lp7783
S'whois.web.com'
p7784
aS'whois.santiamdomains.com'
p7785
atp7786
Rp7787
sS'dropcatchcom948llc'
p7788
g1
((lp7789
S'whois.namebright.com'
p7790
atp7791
Rp7792
sS'dropcatchcom407llc'
p7793
g1
((lp7794
S'whois.namebright.com'
p7795
atp7796
Rp7797
sS'dropcatchcom849llc'
p7798
g1
((lp7799
S'whois.namebright.com'
p7800
atp7801
Rp7802
sS'softlayertechnologiesinc'
p7803
g1
((lp7804
S'whois2.softlayer.com'
p7805
atp7806
Rp7807
sS'japanregistryservicescoltd'
p7808
g1
((lp7809
S'whois2016.jprs.jp'
p7810
atp7811
Rp7812
sS'dropcatchcom382llc'
p7813
g1
((lp7814
S'whois.namebright.com'
p7815
atp7816
Rp7817
sS'dropcatchcom1012llc'
p7818
g1
((lp7819
S'whois.namebright.com'
p7820
atp7821
Rp7822
sS'core910coredirecttool'
p7823
g1
((lp7824
S'whois.corehub.net'
p7825
atp7826
Rp7827
sS'enom1014inc'
p7828
g1
((lp7829
S'whois.enom1014.com'
p7830
aS'whois.web.com'
p7831
atp7832
Rp7833
sS'enom2inc'
p7834
g1
((lp7835
S'whois.web.com'
p7836
atp7837
Rp7838
sS'bigrocksolutionslimited'
p7839
g1
((lp7840
S'whois.bigrock.com'
p7841
atp7842
Rp7843
sS'gofrancedomainsllc'
p7844
g1
((lp7845
S'whois.gofrancedomains.com'
p7846
atp7847
Rp7848
sS'dynadot9llc'
p7849
g1
((lp7850
S'whois.dynadot9.com'
p7851
atp7852
Rp7853
sS'domaininfoab'
p7854
g1
((lp7855
S'whois.domaininfo.com'
p7856
atp7857
Rp7858
sS'dropcatchcom354llc'
p7859
g1
((lp7860
S'whois.namebright.com'
p7861
atp7862
Rp7863
sS'registrationtechnologiesinc'
p7864
g1
((lp7865
S'whois.registrationtek.com'
p7866
atp7867
Rp7868
sS'dropcatchcom901llc'
p7869
g1
((lp7870
S'whois.namebright.com'
p7871
atp7872
Rp7873
sS'dropcatchcom450llc'
p7874
g1
((lp7875
S'whois.namebright.com'
p7876
atp7877
Rp7878
sS'rainydaydomainscomllc'
p7879
g1
((lp7880
S'whois.rainydaydomains.com'
p7881
aS'whois.web.com'
p7882
atp7883
Rp7884
sS'misternicllc'
p7885
g1
((lp7886
S'whois.misternic.com'
p7887
atp7888
Rp7889
sS'whatisyourdomainllc'
p7890
g1
((lp7891
S'whois.namebright.com'
p7892
atp7893
Rp7894
sS'miskcominc'
p7895
g1
((lp7896
S'whois.misk.com'
p7897
atp7898
Rp7899
sS'dropcatchcom632llc'
p7900
g1
((lp7901
S'whois.namebright.com'
p7902
atp7903
Rp7904
sS'core85kpntelecombv'
p7905
g1
((lp7906
S'whois.corehub.net'
p7907
atp7908
Rp7909
sS'dropcatchcom552llc'
p7910
g1
((lp7911
S'whois.namebright.com'
p7912
atp7913
Rp7914
sS'spartacusllc'
p7915
g1
((lp7916
S'whois.pheenix.com'
p7917
atp7918
Rp7919
sS'chinaspringboardinc'
p7920
g1
((lp7921
S'whois.biwo.com'
p7922
atp7923
Rp7924
sS'jamesmadisonllc'
p7925
g1
((lp7926
S'whois.pheenix.com'
p7927
atp7928
Rp7929
sS'globalinternet'
p7930
g1
((lp7931
S'whois.gi.net'
p7932
atp7933
Rp7934
sS'namesonthedropllc'
p7935
g1
((lp7936
S'whois.web.com'
p7937
aS'whois.namesonthedropllc.com'
p7938
atp7939
Rp7940
sS'porkbunllc'
p7941
g1
((lp7942
S'whois.porkbun.com'
p7943
atp7944
Rp7945
sS'launchpadinchostgator'
p7946
g1
((lp7947
S'whois.launchpad.com'
p7948
atp7949
Rp7950
sS'douglasmacarthurllc'
p7951
g1
((lp7952
S'whois.pheenix.com'
p7953
atp7954
Rp7955
sS'domainpickingllc'
p7956
g1
((lp7957
S'whois.namebright.com'
p7958
atp7959
Rp7960
sS'galileogalileillc'
p7961
g1
((lp7962
S'whois.pheenix.com'
p7963
atp7964
Rp7965
sS'pheenix40llc'
p7966
g1
((lp7967
S'whois.pheenix.com'
p7968
atp7969
Rp7970
sS'domaintimemachinecomllc'
p7971
g1
((lp7972
S'whois.web.com'
p7973
aS'whois.domaintimemachine.com'
p7974
atp7975
Rp7976
sS'endurance'
p7977
g1
((lp7978
S'whois2.domain.com'
p7979
atp7980
Rp7981
sS'no1registrarllc'
p7982
g1
((lp7983
S'whois.communigal.net'
p7984
atp7985
Rp7986
sS'domaingazellecomllc'
p7987
g1
((lp7988
S'whois.web.com'
p7989
aS'whois.domaingazelle.com'
p7990
atp7991
Rp7992
sS'dropcatchcom438llc'
p7993
g1
((lp7994
S'whois.namebright.com'
p7995
atp7996
Rp7997
sS'dropcatchcom847llc'
p7998
g1
((lp7999
S'whois.namebright.com'
p8000
atp8001
Rp8002
sS'dalailamallc'
p8003
g1
((lp8004
S'whois.pheenix.com'
p8005
atp8006
Rp8007
sS'portlandnamescomllc'
p8008
g1
((lp8009
S'whois.web.com'
p8010
aS'whois.portlandnames.com'
p8011
atp8012
Rp8013
sS'pheenix18llc'
p8014
g1
((lp8015
S'whois.pheenix.com'
p8016
atp8017
Rp8018
sS'gonamecominc'
p8019
g1
((lp8020
S'whois.epik.com'
p8021
atp8022
Rp8023
sS'dropcatchcom352llc'
p8024
g1
((lp8025
S'whois.namebright.com'
p8026
atp8027
Rp8028
sS'dropcatchcom928llc'
p8029
g1
((lp8030
S'whois.namebright.com'
p8031
atp8032
Rp8033
sS'dropcatchcom615llc'
p8034
g1
((lp8035
S'whois.namebright.com'
p8036
atp8037
Rp8038
sS'domainsourcellc'
p8039
g1
((lp8040
S'whois.domainsourcellc.com'
p8041
aS'whois.web.com'
p8042
atp8043
Rp8044
sS'dropcatchcom871llc'
p8045
g1
((lp8046
S'whois.namebright.com'
p8047
atp8048
Rp8049
sS'netartspzoo'
p8050
g1
((lp8051
S'whois.netart-registrar.com'
p8052
atp8053
Rp8054
sS'dropcatchcom645llc'
p8055
g1
((lp8056
S'whois.namebright.com'
p8057
atp8058
Rp8059
sS'puritynamesincorporated'
p8060
g1
((lp8061
S'whois.puritynames.com'
p8062
atp8063
Rp8064
sS'pheenix39llc'
p8065
g1
((lp8066
S'whois.pheenix.com'
p8067
atp8068
Rp8069
sS'dropcatchcom577llc'
p8070
g1
((lp8071
S'whois.namebright.com'
p8072
atp8073
Rp8074
sS'dynadot4llc'
p8075
g1
((lp8076
S'whois.dynadot4.com'
p8077
atp8078
Rp8079
sS'dynadotllc'
p8080
g1
((lp8081
S'whois.dynadot.com'
p8082
atp8083
Rp8084
sS'dropcatchcom782llc'
p8085
g1
((lp8086
S'whois.namebright.com'
p8087
atp8088
Rp8089
sS'dropcatchcom422llc'
p8090
g1
((lp8091
S'whois.namebright.com'
p8092
atp8093
Rp8094
sS'webcc'
p8095
g1
((lp8096
S'whois.webnic.cc'
p8097
atp8098
Rp8099
sS'dynadot10llc'
p8100
g1
((lp8101
S'whois.dynadot10.com'
p8102
atp8103
Rp8104
sS'realtimeregisterbv'
p8105
g1
((lp8106
S'whois.yoursrs.com'
p8107
atp8108
Rp8109
sS'globalvillagegmbh'
p8110
g1
((lp8111
S'whois.global-village.de'
p8112
atp8113
Rp8114
sS'toglodosa'
p8115
g1
((lp8116
S'whois.toglodo.com'
p8117
atp8118
Rp8119
sS'core113media4websro'
p8120
g1
((lp8121
S'whois.corehub.net'
p8122
atp8123
Rp8124
sS'nimzo70llc'
p8125
g1
((lp8126
S'whois.pheenix.com'
p8127
atp8128
Rp8129
sS'gabiacs'
p8130
g1
((lp8131
S'whois.gabia.com'
p8132
atp8133
Rp8134
sS'core51oznicgmbh'
p8135
g1
((lp8136
S'whois.corehub.net'
p8137
atp8138
Rp8139
sS'dropcatchcom919llc'
p8140
g1
((lp8141
S'whois.namebright.com'
p8142
atp8143
Rp8144
sS'enom389incorporated'
p8145
g1
((lp8146
S'whois.enom389.com'
p8147
atp8148
Rp8149
sS'dropcatchcom523llc'
p8150
g1
((lp8151
S'whois.namebright.com'
p8152
atp8153
Rp8154
sS'hangzhouduomaiecommercecoltd'
p8155
g1
((lp8156
S'whois.dn.com'
p8157
atp8158
Rp8159
sS'domaindelightsllc'
p8160
g1
((lp8161
S'whois.namebright.com'
p8162
atp8163
Rp8164
sS'deletingnamezonellc'
p8165
g1
((lp8166
S'whois.deletingnamezonellc.com'
p8167
aS'whois.web.com'
p8168
atp8169
Rp8170
sS'domeratiinc'
p8171
g1
((lp8172
S'whois.domerati.com'
p8173
atp8174
Rp8175
sS'atomicdomainnamescomllc'
p8176
g1
((lp8177
S'whois.web.com'
p8178
aS'whois.atomicdomainnames.com'
p8179
atp8180
Rp8181
sS'nameshareinc'
p8182
g1
((lp8183
S'whois-all.nameshare.com'
p8184
atp8185
Rp8186
sS'dropcatchcom916llc'
p8187
g1
((lp8188
S'whois.namebright.com'
p8189
atp8190
Rp8191
sS'dropcatchcom443llc'
p8192
g1
((lp8193
S'whois.namebright.com'
p8194
atp8195
Rp8196
sS'mahatmagandhillc'
p8197
g1
((lp8198
S'whois.pheenix.com'
p8199
atp8200
Rp8201
sS'dropcatchcom1040llc'
p8202
g1
((lp8203
S'whois.namebright.com'
p8204
atp8205
Rp8206
sS'nametellcomllc'
p8207
g1
((lp8208
S'whois.namebright.com'
p8209
atp8210
Rp8211
sS'dropcatchcom644llc'
p8212
g1
((lp8213
S'whois.namebright.com'
p8214
atp8215
Rp8216
sS'dropcatchcom634llc'
p8217
g1
((lp8218
S'whois.namebright.com'
p8219
atp8220
Rp8221
sS'dropcatchcom877llc'
p8222
g1
((lp8223
S'whois.namebright.com'
p8224
atp8225
Rp8226
sS'ethosdomainsllc'
p8227
g1
((lp8228
S'whois.web.com'
p8229
aS'whois.ethosdomains.com'
p8230
atp8231
Rp8232
sS'rebelcomcorp'
p8233
g1
((lp8234
S'whois.rebel.com'
p8235
atp8236
Rp8237
sS'tldsllcdbasrsplus'
p8238
g1
((lp8239
S'whois.srsplus.com'
p8240
atp8241
Rp8242
sS'whiterhinodomainsllc'
p8243
g1
((lp8244
S'whois.web.com'
p8245
aS'whois.whiterhinodomains.com'
p8246
atp8247
Rp8248
sS'discountdomainservicesllc'
p8249
g1
((lp8250
S'whois2.domain.com'
p8251
atp8252
Rp8253
sS'pheenix16llc'
p8254
g1
((lp8255
S'whois.pheenix.com'
p8256
atp8257
Rp8258
sS'dropcatchcom424llc'
p8259
g1
((lp8260
S'whois.namebright.com'
p8261
atp8262
Rp8263
sS'dropcatchcom582llc'
p8264
g1
((lp8265
S'whois.namebright.com'
p8266
atp8267
Rp8268
sS'thomasedisonllc'
p8269
g1
((lp8270
S'whois.pheenix.com'
p8271
atp8272
Rp8273
sS'nauguslimitedllc'
p8274
g1
((lp8275
S'whois.naugus.com'
p8276
atp8277
Rp8278
sS'domaincontextinc'
p8279
g1
((lp8280
S'whois.domaincontext.com'
p8281
atp8282
Rp8283
sS'gotodomainsllc'
p8284
g1
((lp8285
S'whois.web.com'
p8286
aS'whois.gotodomainsllc.com'
p8287
atp8288
Rp8289
sS'octopusdomainsnetllc'
p8290
g1
((lp8291
S'whois.web.com'
p8292
aS'whois.octopusdomains.net'
p8293
atp8294
Rp8295
sS'dotmedialimited'
p8296
g1
((lp8297
S'whois.dotmedia.com'
p8298
atp8299
Rp8300
sS'alexanderthegreatllc'
p8301
g1
((lp8302
S'whois.pheenix.com'
p8303
atp8304
Rp8305
sS'compuglobalhypermegacomllc'
p8306
g1
((lp8307
S'whois.web.com'
p8308
aS'whois.compuglobalhypermega.com'
p8309
atp8310
Rp8311
sS'dropcatchcom750llc'
p8312
g1
((lp8313
S'whois.namebright.com'
p8314
atp8315
Rp8316
sS'interwebadvertisingdbaprofilebuilder'
p8317
g1
((lp8318
S'whois.profilebuilder.com'
p8319
atp8320
Rp8321
sS'aimhighincdbagetyername'
p8322
g1
((lp8323
S'whois.getyername.com'
p8324
atp8325
Rp8326
sS'enom413incorporated'
p8327
g1
((lp8328
S'whois.web.com'
p8329
aS'whois.enom413.com'
p8330
atp8331
Rp8332
sS'catchdeletingnamesllc'
p8333
g1
((lp8334
S'whois.web.com'
p8335
aS'whois.catchdeletingnamesllc.com'
p8336
atp8337
Rp8338
sS'pheenix89llc'
p8339
g1
((lp8340
S'whois.pheenix.com'
p8341
atp8342
Rp8343
sS'dropcatchcom909llc'
p8344
g1
((lp8345
S'whois.namebright.com'
p8346
atp8347
Rp8348
sS'dropcatchcom880llc'
p8349
g1
((lp8350
S'whois.namebright.com'
p8351
atp8352
Rp8353
sS'dropcatchcom910llc'
p8354
g1
((lp8355
S'whois.namebright.com'
p8356
atp8357
Rp8358
sS'fastballdomainsllc'
p8359
g1
((lp8360
S'whois.web.com'
p8361
aS'whois.fastballdomainsllc.com'
p8362
atp8363
Rp8364
sS'dropcatchcom707llc'
p8365
g1
((lp8366
S'whois.namebright.com'
p8367
atp8368
Rp8369
sS'nhntechoruscorp'
p8370
g1
((lp8371
S'whois.namefull.com'
p8372
atp8373
Rp8374
sS'dropcatchcom1014llc'
p8375
g1
((lp8376
S'whois.namebright.com'
p8377
atp8378
Rp8379
sS'dropcatchcom602llc'
p8380
g1
((lp8381
S'whois.namebright.com'
p8382
atp8383
Rp8384
sS'brandnamescomsarl'
p8385
g1
((lp8386
S'whois.brandnames.com'
p8387
atp8388
Rp8389
sS'dropcatchcom963llc'
p8390
g1
((lp8391
S'whois.namebright.com'
p8392
atp8393
Rp8394
sS'enom659inc'
p8395
g1
((lp8396
S'whois.enom659.com'
p8397
atp8398
Rp8399
sS'absvenskadomner'
p8400
g1
((lp8401
S'whois.svenskadomaner.se'
p8402
atp8403
Rp8404
sS'serverplansrl'
p8405
g1
((lp8406
S'whois.serverplan.com'
p8407
atp8408
Rp8409
sS'dropcatchcom489llc'
p8410
g1
((lp8411
S'whois.namebright.com'
p8412
atp8413
Rp8414
sS'dropcatchcom769llc'
p8415
g1
((lp8416
S'whois.namebright.com'
p8417
atp8418
Rp8419
sS'dropcatchcom351llc'
p8420
g1
((lp8421
S'whois.namebright.com'
p8422
atp8423
Rp8424
sS'enoma1inc'
p8425
g1
((lp8426
S'whois.enoma1.com'
p8427
atp8428
Rp8429
sS'dropcatchcom466llc'
p8430
g1
((lp8431
S'whois.namebright.com'
p8432
atp8433
Rp8434
sS'domaingrabberllc'
p8435
g1
((lp8436
S'whois.web.com'
p8437
aS'whois.domaingrabberllc.com'
p8438
atp8439
Rp8440
sS'majorleaguedomainsllc'
p8441
g1
((lp8442
S'whois.majorleaguedomains.com'
p8443
aS'whois.web.com'
p8444
atp8445
Rp8446
sS'enom1008inc'
p8447
g1
((lp8448
S'whois.enom1008.com'
p8449
atp8450
Rp8451
sS'dynadot8llc'
p8452
g1
((lp8453
S'whois.dynadot8.com'
p8454
atp8455
Rp8456
sS'dropcatchcom1171llc'
p8457
g1
((lp8458
S'whois.namebright.com'
p8459
atp8460
Rp8461
sS'exclusivedomainfindllc'
p8462
g1
((lp8463
S'whois.web.com'
p8464
aS'whois.exclusivedomainfindllc.com'
p8465
atp8466
Rp8467
sS'dropcatchcom391llc'
p8468
g1
((lp8469
S'whois.namebright.com'
p8470
atp8471
Rp8472
sS'dropcatchcom651llc'
p8473
g1
((lp8474
S'whois.namebright.com'
p8475
atp8476
Rp8477
sS'dropcatchcom515llc'
p8478
g1
((lp8479
S'whois.namebright.com'
p8480
atp8481
Rp8482
sS'namearsenalcomllc'
p8483
g1
((lp8484
S'whois.web.com'
p8485
aS'whois.namearsenal.com'
p8486
atp8487
Rp8488
sS'topshelfdomainsllc'
p8489
g1
((lp8490
S'whois.web.com'
p8491
aS'whois.topshelfdomainsllc.com'
p8492
atp8493
Rp8494
sS'dropcatchcom756llc'
p8495
g1
((lp8496
S'whois.namebright.com'
p8497
atp8498
Rp8499
sS'brandongrayinternetservicesincdbanamejuicecom'
p8500
g1
((lp8501
S'whois.namejuice.com'
p8502
atp8503
Rp8504
sS'dropwalk'
p8505
g1
((lp8506
S'whois.namepal.com'
p8507
atp8508
Rp8509
sS'dropcatchcom907llc'
p8510
g1
((lp8511
S'whois.namebright.com'
p8512
atp8513
Rp8514
sS'liquidnetltd'
p8515
g1
((lp8516
S'whois.liquidnetlimited.com'
p8517
atp8518
Rp8519
sS'hangtendomainsllc'
p8520
g1
((lp8521
S'whois.web.com'
p8522
aS'whois.hangtendomains.com'
p8523
atp8524
Rp8525
sS'dropcatchcom709llc'
p8526
g1
((lp8527
S'whois.namebright.com'
p8528
atp8529
Rp8530
sS'dropcatchcom604llc'
p8531
g1
((lp8532
S'whois.namebright.com'
p8533
atp8534
Rp8535
sS'namesstopherellc'
p8536
g1
((lp8537
S'whois.web.com'
p8538
aS'whois.namesstopherellc.com'
p8539
atp8540
Rp8541
sS'enom661inc'
p8542
g1
((lp8543
S'whois.web.com'
p8544
aS'whois.enom661.com'
p8545
atp8546
Rp8547
sS'enomxinc'
p8548
g1
((lp8549
S'whois.enomx.com'
p8550
atp8551
Rp8552
sS'dropcatchcom554llc'
p8553
g1
((lp8554
S'whois.namebright.com'
p8555
atp8556
Rp8557
sS'nominaliainternetsl'
p8558
g1
((lp8559
S'whois.nominalia.com'
p8560
atp8561
Rp8562
sS'dropcatchcom347llc'
p8563
g1
((lp8564
S'whois.namebright.com'
p8565
atp8566
Rp8567
sS'dropcatchmarketplacellc'
p8568
g1
((lp8569
S'whois.web.com'
p8570
aS'whois.dropcatchmarketplacellc.com'
p8571
atp8572
Rp8573
sS'enom663inc'
p8574
g1
((lp8575
S'whois.enom663.com'
p8576
atp8577
Rp8578
sS'dropcatchcom460llc'
p8579
g1
((lp8580
S'whois.namebright.com'
p8581
atp8582
Rp8583
sS'tierranetincdbadomaindiscover'
p8584
g1
((lp8585
S'whois.domaindiscover.com'
p8586
atp8587
Rp8588
sS'core139teutonetnetzdienstegmbh'
p8589
g1
((lp8590
S'whois.corehub.net'
p8591
atp8592
Rp8593
sS'dropcatchcom484llc'
p8594
g1
((lp8595
S'whois.namebright.com'
p8596
atp8597
Rp8598
sS'friendsmarketinginc0101hostcom'
p8599
g1
((lp8600
S'whois.0101domain.com'
p8601
atp8602
Rp8603
sS'dinahostingsl'
p8604
g1
((lp8605
S'whois.dinahosting.com'
p8606
atp8607
Rp8608
sS'variomediaagdbapuredomaincom'
p8609
g1
((lp8610
S'whois.puredomain.com'
p8611
atp8612
Rp8613
sS'tuonomeitsrldbatuonomecom'
p8614
g1
((lp8615
S'whois.apisrs.com'
p8616
atp8617
Rp8618
sS'coolbreezedomainsllc'
p8619
g1
((lp8620
S'whois.web.com'
p8621
aS'whois.coolbreezedomains.com'
p8622
atp8623
Rp8624
sS'dropcatchcom758llc'
p8625
g1
((lp8626
S'whois.namebright.com'
p8627
atp8628
Rp8629
sS'dropcatchcom791llc'
p8630
g1
((lp8631
S'whois.namebright.com'
p8632
atp8633
Rp8634
sS'dropcatchcom417llc'
p8635
g1
((lp8636
S'whois.namebright.com'
p8637
atp8638
Rp8639
sS'zhuhainaisinikeinformationtechnologycoltd'
p8640
g1
((lp8641
S'whois.iisp.com'
p8642
atp8643
Rp8644
sS'dropcatchcom992llc'
p8645
g1
((lp8646
S'whois.namebright.com'
p8647
atp8648
Rp8649
sS'netracorpllcdbaglobalinternet'
p8650
g1
((lp8651
S'whois.gi.net'
p8652
atp8653
Rp8654
sS'domaincollagellc'
p8655
g1
((lp8656
S'whois.web.com'
p8657
aS'whois.domaincollage.com'
p8658
atp8659
Rp8660
sS'nameemperorcomllc'
p8661
g1
((lp8662
S'whois.web.com'
p8663
aS'whois.nameemperor.com'
p8664
atp8665
Rp8666
sS'dropcatchcom957llc'
p8667
g1
((lp8668
S'whois.namebright.com'
p8669
atp8670
Rp8671
sS'dropcatchcom613llc'
p8672
g1
((lp8673
S'whois.namebright.com'
p8674
atp8675
Rp8676
sS'pheenix99llc'
p8677
g1
((lp8678
S'whois.pheenix.com'
p8679
atp8680
Rp8681
sS'dropcatchcom525llc'
p8682
g1
((lp8683
S'whois.namebright.com'
p8684
atp8685
Rp8686
sS'noteworthydomainsllc'
p8687
g1
((lp8688
S'whois.web.com'
p8689
aS'whois.noteworthydomains.com'
p8690
atp8691
Rp8692
sS'nameconnectionareallc'
p8693
g1
((lp8694
S'whois.nameconnectionareallc.com'
p8695
atp8696
Rp8697
sS'dropcatchcom349llc'
p8698
g1
((lp8699
S'whois.namebright.com'
p8700
atp8701
Rp8702
sS'paintedponynamesllc'
p8703
g1
((lp8704
S'whois.paintedponynames.com'
p8705
aS'whois.web.com'
p8706
atp8707
Rp8708
sS'netzadresseatdomainservicegmbh'
p8709
g1
((lp8710
S'whois.netzadresse.at'
p8711
atp8712
Rp8713
sS'pheenix81llc'
p8714
g1
((lp8715
S'whois.pheenix.com'
p8716
atp8717
Rp8718
sS'fushitarazuincorporated'
p8719
g1
((lp8720
S'whois.web.com'
p8721
atp8722
Rp8723
sS'globaldomainsinternational'
p8724
g1
((lp8725
S'whois.website.ws'
p8726
atp8727
Rp8728
sS'dropcatchcom1023llc'
p8729
g1
((lp8730
S'whois.namebright.com'
p8731
atp8732
Rp8733
sS'threepointdomainsllc'
p8734
g1
((lp8735
S'whois.web.com'
p8736
aS'whois.threepointdomainsllc.com'
p8737
atp8738
Rp8739
sS'bbonlineltd'
p8740
g1
((lp8741
S'whois.nominate.net'
p8742
atp8743
Rp8744
sS'dropcatchcom801llc'
p8745
g1
((lp8746
S'whois.namebright.com'
p8747
atp8748
Rp8749
sS'enom371incorporated'
p8750
g1
((lp8751
S'whois.web.com'
p8752
aS'whois.enom371.com'
p8753
atp8754
Rp8755
sS'namefindsourcellc'
p8756
g1
((lp8757
S'whois.web.com'
p8758
aS'whois.namefindsourcellc.com'
p8759
atp8760
Rp8761
sS'dropcatchcom566llc'
p8762
g1
((lp8763
S'whois.namebright.com'
p8764
atp8765
Rp8766
sS'gmointernetincdbaonamaecom'
p8767
g1
((lp8768
S'whois.discount-domain.com'
p8769
atp8770
Rp8771
sS'dropcatchcom733llc'
p8772
g1
((lp8773
S'whois.namebright.com'
p8774
atp8775
Rp8776
sS'domainlandingzonellc'
p8777
g1
((lp8778
S'whois.web.com'
p8779
aS'whois.domainlandingzonellc.com'
p8780
atp8781
Rp8782
sS'achilles888llc'
p8783
g1
((lp8784
S'whois.pheenix.com'
p8785
atp8786
Rp8787
sS'planethoster'
p8788
g1
((lp8789
S'who.planethoster.net'
p8790
atp8791
Rp8792
sS'enom391incorporated'
p8793
g1
((lp8794
S'whois.enom391.com'
p8795
aS'whois.web.com'
p8796
atp8797
Rp8798
sS'ipmirrorpteltd'
p8799
g1
((lp8800
S'whois.ipmirror.com'
p8801
atp8802
Rp8803
sS'williamwallacellc'
p8804
g1
((lp8805
S'whois.pheenix.com'
p8806
atp8807
Rp8808
sS'dropcatchcom357llc'
p8809
g1
((lp8810
S'whois.namebright.com'
p8811
atp8812
Rp8813
sS'duckbilleddomainscomllc'
p8814
g1
((lp8815
S'whois.web.com'
p8816
aS'whois.duckbilleddomains.com'
p8817
atp8818
Rp8819
sS'dropcatchcom411llc'
p8820
g1
((lp8821
S'whois.namebright.com'
p8822
atp8823
Rp8824
sS'internetdomainservicebscorp'
p8825
g1
((lp8826
S'whois.internet.bs'
p8827
atp8828
Rp8829
sS'wildbillhickokllc'
p8830
g1
((lp8831
S'whois.pheenix.com'
p8832
atp8833
Rp8834
sS'domainadministrationcomllc'
p8835
g1
((lp8836
S'whois.domainadministration.com'
p8837
atp8838
Rp8839
sS'fenominalinc'
p8840
g1
((lp8841
S'whois.fenominal.com'
p8842
atp8843
Rp8844
sS'dropcatchcom1117llc'
p8845
g1
((lp8846
S'whois.namebright.com'
p8847
atp8848
Rp8849
sS'domregltddbalibriscom'
p8850
g1
((lp8851
S'whois.libris.com'
p8852
atp8853
Rp8854
sS'dropcatchcom359llc'
p8855
g1
((lp8856
S'whois.namebright.com'
p8857
atp8858
Rp8859
sS'pheenix50llc'
p8860
g1
((lp8861
S'whois.pheenix.com'
p8862
atp8863
Rp8864
sS'dynadot16llc'
p8865
g1
((lp8866
S'whois.dynadot16.com'
p8867
atp8868
Rp8869
sS'orange'
p8870
g1
((lp8871
S'whois.oleane.net'
p8872
atp8873
Rp8874
sS'namepalcom8008'
p8875
g1
((lp8876
S'whois.web.com'
p8877
aS'whois.namepal.com'
p8878
atp8879
Rp8880
sS'name106inc'
p8881
g1
((lp8882
S'whois.webtechnames.com'
p8883
atp8884
Rp8885
sS'uniregistrarcorp'
p8886
g1
((lp8887
S'whois.uniregistrar.com'
p8888
atp8889
Rp8890
sS'eztimesdomainsllc'
p8891
g1
((lp8892
S'whois.web.com'
p8893
aS'whois.eztimesdomains.com'
p8894
atp8895
Rp8896
sS'domainhysteriacomllc'
p8897
g1
((lp8898
S'whois.web.com'
p8899
aS'whois.domainhysteria.com'
p8900
atp8901
Rp8902
sS'latizonellc'
p8903
g1
((lp8904
S'whois.pheenix.com'
p8905
atp8906
Rp8907
sS'neensrl'
p8908
g1
((lp8909
S'whois.neen.it'
p8910
atp8911
Rp8912
sS'dropcatchcom764llc'
p8913
g1
((lp8914
S'whois.namebright.com'
p8915
atp8916
Rp8917
sS'dropcatchcom377llc'
p8918
g1
((lp8919
S'whois.namebright.com'
p8920
atp8921
Rp8922
sS'asiaregisterinc'
p8923
g1
((lp8924
S'whois.asiaregister.com'
p8925
atp8926
Rp8927
sS'dropcatchcom1025llc'
p8928
g1
((lp8929
S'whois.namebright.com'
p8930
atp8931
Rp8932
sS'dropcatchcom822llc'
p8933
g1
((lp8934
S'whois.namebright.com'
p8935
atp8936
Rp8937
sS'dropcatchcom965llc'
p8938
g1
((lp8939
S'whois.namebright.com'
p8940
atp8941
Rp8942
sS'luckyelephantdomainsllc'
p8943
g1
((lp8944
S'whois.web.com'
p8945
aS'whois.luckyelephantdomains.com'
p8946
atp8947
Rp8948
sS'dropcatchcom542llc'
p8949
g1
((lp8950
S'whois.namebright.com'
p8951
atp8952
Rp8953
sS'core123ingenitgmbhcokg'
p8954
g1
((lp8955
S'whois.corehub.net'
p8956
atp8957
Rp8958
sS'domainnamenetworkptyltd'
p8959
g1
((lp8960
S'whois.ename.com'
p8961
atp8962
Rp8963
sS'ovhsas'
p8964
g1
((lp8965
S'whois.ovh.com'
p8966
atp8967
Rp8968
sS'enom1038inc'
p8969
g1
((lp8970
S'whois.web.com'
p8971
aS'whois.enom1038.com'
p8972
atp8973
Rp8974
sS'dropcatchcom959llc'
p8975
g1
((lp8976
S'whois.namebright.com'
p8977
atp8978
Rp8979
sS'sharkweekdomainsllc'
p8980
g1
((lp8981
S'whois.web.com'
p8982
aS'whois.sharkweekdomainsllc.com'
p8983
atp8984
Rp8985
sS'theregistryatinfoavenue'
p8986
g1
((lp8987
S'whois.iaregistry.com'
p8988
atp8989
Rp8990
sS'dropcatchcom360llc'
p8991
g1
((lp8992
S'whois.namebright.com'
p8993
atp8994
Rp8995
sS'1800websitellc'
p8996
g1
((lp8997
S'whois2.domain.com'
p8998
atp8999
Rp9000
sS'dropcatchcom951llc'
p9001
g1
((lp9002
S'whois.namebright.com'
p9003
atp9004
Rp9005
sS'dropcatchcom701llc'
p9006
g1
((lp9007
S'whois.namebright.com'
p9008
atp9009
Rp9010
sS'dropcatchcom585llc'
p9011
g1
((lp9012
S'whois.namebright.com'
p9013
atp9014
Rp9015
sS'blisternetincorporated'
p9016
g1
((lp9017
S'whois.web.com'
p9018
aS'whois.blisternet.net'
p9019
atp9020
Rp9021
sS'dagnabitincorporated'
p9022
g1
((lp9023
S'whois.web.com'
p9024
aS'whois.dagnabit.biz'
p9025
atp9026
Rp9027
sS'austriandomainsllc'
p9028
g1
((lp9029
S'whois2.domain.com'
p9030
atp9031
Rp9032
sS'dropcatchcom851llc'
p9033
g1
((lp9034
S'whois.namebright.com'
p9035
atp9036
Rp9037
sS'webwerksindiapvtltddbazenregistrycom'
p9038
g1
((lp9039
S'whois.zenregistry.com'
p9040
atp9041
Rp9042
sS'pheenix49llc'
p9043
g1
((lp9044
S'whois.pheenix.com'
p9045
atp9046
Rp9047
sS'freshbreweddomainscomllc'
p9048
g1
((lp9049
S'whois.web.com'
p9050
aS'whois.freshbreweddomains.com'
p9051
atp9052
Rp9053
sS'dropcatchcom717llc'
p9054
g1
((lp9055
S'whois.namebright.com'
p9056
atp9057
Rp9058
sS'bottledomainsinc'
p9059
g1
((lp9060
S'whois.bottledomains.com'
p9061
atp9062
Rp9063
sS'eurotrashnamescomllc'
p9064
g1
((lp9065
S'whois.web.com'
p9066
aS'whois.eurotrashnames.com'
p9067
atp9068
Rp9069
sS'domainnamerootllc'
p9070
g1
((lp9071
S'whois.web.com'
p9072
aS'whois.domainnameroot.com'
p9073
atp9074
Rp9075
sS'dropcatchcom807llc'
p9076
g1
((lp9077
S'whois.namebright.com'
p9078
atp9079
Rp9080
sS'titus888llc'
p9081
g1
((lp9082
S'whois.pheenix.com'
p9083
atp9084
Rp9085
sS'enom439incorporated'
p9086
g1
((lp9087
S'whois.enom439.com'
p9088
atp9089
Rp9090
sS'netestatellc'
p9091
g1
((lp9092
S'whois.netestate.com'
p9093
atp9094
Rp9095
sS'dropcatchcom719llc'
p9096
g1
((lp9097
S'whois.namebright.com'
p9098
atp9099
Rp9100
sS'ulyssessgrantllc'
p9101
g1
((lp9102
S'whois.pheenix.com'
p9103
atp9104
Rp9105
sS'dropcatchcom379llc'
p9106
g1
((lp9107
S'whois.namebright.com'
p9108
atp9109
Rp9110
sS'dropcatchcom432llc'
p9111
g1
((lp9112
S'whois.namebright.com'
p9113
atp9114
Rp9115
sS'blueangeldomainsllc'
p9116
g1
((lp9117
S'whois.web.com'
p9118
aS'whois.blueangeldomainsllc.com'
p9119
atp9120
Rp9121
sS'dropcatchcom1296llc'
p9122
g1
((lp9123
S'whois.namebright.com'
p9124
atp9125
Rp9126
sS'ripcorddomainsllc'
p9127
g1
((lp9128
S'whois.web.com'
p9129
aS'whois.ripcorddomains.com'
p9130
atp9131
Rp9132
sS'dropcatchcom482llc'
p9133
g1
((lp9134
S'whois.namebright.com'
p9135
atp9136
Rp9137
sS'pheenix47llc'
p9138
g1
((lp9139
S'whois.pheenix.com'
p9140
atp9141
Rp9142
sS'guangzhoumingyanginformationtechnologycoltd'
p9143
g1
((lp9144
S'whois.hupo.com'
p9145
atp9146
Rp9147
sS'enom431incorporated'
p9148
g1
((lp9149
S'whois.enom431.com'
p9150
atp9151
Rp9152
sS'kingdomainsincorporated'
p9153
g1
((lp9154
S'whois.king-domains.com'
p9155
atp9156
Rp9157
sS'pheenix3llc'
p9158
g1
((lp9159
S'whois.pheenix.com'
p9160
atp9161
Rp9162
sS'dropcatchcom773llc'
p9163
g1
((lp9164
S'whois.namebright.com'
p9165
atp9166
Rp9167
sS'gonametncominc'
p9168
g1
((lp9169
S'whois.pheenix.com'
p9170
atp9171
Rp9172
sS'entornodigitalsa'
p9173
g1
((lp9174
S'whois.entorno.com'
p9175
atp9176
Rp9177
sS'domaincatcherllc'
p9178
g1
((lp9179
S'whois.web.com'
p9180
aS'whois.domaincatcherllc.com'
p9181
atp9182
Rp9183
sS'meganamesllc'
p9184
g1
((lp9185
S'whois.meganamesllc.com'
p9186
aS'whois.web.com'
p9187
atp9188
Rp9189
sS'registernvdbaregistereu'
p9190
g1
((lp9191
S'whois.register.eu'
p9192
atp9193
Rp9194
sS'995discountdomainsllc'
p9195
g1
((lp9196
S'whois2.domain.com'
p9197
atp9198
Rp9199
sS'dropcatchcom404llc'
p9200
g1
((lp9201
S'whois.namebright.com'
p9202
atp9203
Rp9204
sS'funpeasmediaventuresllcdbadomainprocessorcom'
p9205
g1
((lp9206
S'whois.domainprocessor.com'
p9207
atp9208
Rp9209
sS'thirdfloordnscomllc'
p9210
g1
((lp9211
S'whois.web.com'
p9212
aS'whois.thirdfloordns.com'
p9213
atp9214
Rp9215
sS'circleofdomainsllc'
p9216
g1
((lp9217
S'whois.web.com'
p9218
aS'whois.circleofdomainsllc.com'
p9219
atp9220
Rp9221
sS'joyeusellc'
p9222
g1
((lp9223
S'whois.pheenix.com'
p9224
atp9225
Rp9226
sS'dropcatchcom1004llc'
p9227
g1
((lp9228
S'whois.namebright.com'
p9229
atp9230
Rp9231
sS'chinanettechnologysuzhoucoltd'
p9232
g1
((lp9233
S'whois.chinanet.cc'
p9234
atp9235
Rp9236
sS'dropcatchcom557llc'
p9237
g1
((lp9238
S'whois.namebright.com'
p9239
atp9240
Rp9241
sS'dropcatchcom512llc'
p9242
g1
((lp9243
S'whois.namebright.com'
p9244
atp9245
Rp9246
sS'dropcatchcom975llc'
p9247
g1
((lp9248
S'whois.namebright.com'
p9249
atp9250
Rp9251
sS'planetdomainptyltd'
p9252
g1
((lp9253
S'whois.planetdomain.com'
p9254
atp9255
Rp9256
sS'dropcatchcom813llc'
p9257
g1
((lp9258
S'whois.namebright.com'
p9259
atp9260
Rp9261
sS'dropcatchcom1163llc'
p9262
g1
((lp9263
S'whois.namebright.com'
p9264
atp9265
Rp9266
sS'neonicoy'
p9267
g1
((lp9268
S'whois.neonic.com'
p9269
atp9270
Rp9271
sS'constantinethegreatllc'
p9272
g1
((lp9273
S'whois.pheenix.com'
p9274
atp9275
Rp9276
sS'namevolcanocomllc'
p9277
g1
((lp9278
S'whois.web.com'
p9279
aS'whois.namevolcano.com'
p9280
atp9281
Rp9282
sS'matbaotradingservicecompanylimiteddbamatbao'
p9283
g1
((lp9284
S'whois.matbao.net'
p9285
atp9286
Rp9287
sS'domainsofcoursecomllc'
p9288
g1
((lp9289
S'whois.web.com'
p9290
aS'whois.domainsofcourse.com'
p9291
atp9292
Rp9293
sS'euturbocomllc'
p9294
g1
((lp9295
S'whois.web.com'
p9296
aS'whois.euturbo.com'
p9297
atp9298
Rp9299
sS'namemasterrcgmbh'
p9300
g1
((lp9301
S'whois.namemaster.de'
p9302
atp9303
Rp9304
sS'seymourdomainsllc'
p9305
g1
((lp9306
S'whois.seymourdomains.com'
p9307
atp9308
Rp9309
sS'allearthdomainscomllc'
p9310
g1
((lp9311
S'whois.web.com'
p9312
aS'whois.allearthdomains.com'
p9313
atp9314
Rp9315
sS'hangzhoudianshanginternettechnologycoltd'
p9316
g1
((lp9317
S'whois.eb.com.cn'
p9318
atp9319
Rp9320
sS'namepalcom8016inc'
p9321
g1
((lp9322
S'whois.web.com'
p9323
atp9324
Rp9325
sS'leonardodavincillc'
p9326
g1
((lp9327
S'whois.pheenix.com'
p9328
atp9329
Rp9330
sS'dropfall'
p9331
g1
((lp9332
S'whois.namepal.com'
p9333
atp9334
Rp9335
sS'dropcatchcom505llc'
p9336
g1
((lp9337
S'whois.namebright.com'
p9338
atp9339
Rp9340
sS'domainshypecominc'
p9341
g1
((lp9342
S'whois.domainshype.com'
p9343
atp9344
Rp9345
sS'dropcatchcom947llc'
p9346
g1
((lp9347
S'whois.namebright.com'
p9348
atp9349
Rp9350
sS'platinumregistrarinc'
p9351
g1
((lp9352
S'whois.platinumregistrar.com'
p9353
atp9354
Rp9355
sS'agrinooninc'
p9356
g1
((lp9357
S'whois.paimi.com'
p9358
atp9359
Rp9360
sS'acquirednamesllc'
p9361
g1
((lp9362
S'whois.namebright.com'
p9363
atp9364
Rp9365
sS'catchdomainsllc'
p9366
g1
((lp9367
S'whois.web.com'
p9368
aS'whois.catchdomainsllc.com'
p9369
atp9370
Rp9371
sS'attilathehunllc'
p9372
g1
((lp9373
S'whois.pheenix.com'
p9374
atp9375
Rp9376
sS'core126distma'
p9377
g1
((lp9378
S'whois.corehub.net'
p9379
atp9380
Rp9381
sS'commerceislandinc'
p9382
g1
((lp9383
S'whois.commerceisland.com'
p9384
atp9385
Rp9386
sS'dropcatchcom514llc'
p9387
g1
((lp9388
S'whois.namebright.com'
p9389
atp9390
Rp9391
sS'promopeopleinc'
p9392
g1
((lp9393
S'whois.promopeople.com'
p9394
atp9395
Rp9396
sS'dropcatchcom815llc'
p9397
g1
((lp9398
S'whois.namebright.com'
p9399
atp9400
Rp9401
sS'crazydomainsfzllc'
p9402
g1
((lp9403
S'whois.crazydomains.com'
p9404
atp9405
Rp9406
sS'hangzhouaimingnetworkcoltd'
p9407
g1
((lp9408
S'whois.22.cn'
p9409
atp9410
Rp9411
sS'dropcatchcom844llc'
p9412
g1
((lp9413
S'whois.namebright.com'
p9414
atp9415
Rp9416
sS'pheenix58llc'
p9417
g1
((lp9418
S'whois.pheenix.com'
p9419
atp9420
Rp9421
sS'dropcatchcom1140llc'
p9422
g1
((lp9423
S'whois.namebright.com'
p9424
atp9425
Rp9426
sS'marcariacominternationalinc'
p9427
g1
((lp9428
S'whois-generic.marcaria.com'
p9429
atp9430
Rp9431
sS'dropcatchingnamesllc'
p9432
g1
((lp9433
S'whois.web.com'
p9434
aS'whois.dropcatchingnamesllc.com'
p9435
atp9436
Rp9437
sS'dropcatchcom918llc'
p9438
g1
((lp9439
S'whois.namebright.com'
p9440
atp9441
Rp9442
sS'pheenix41llc'
p9443
g1
((lp9444
S'whois.pheenix.com'
p9445
atp9446
Rp9447
sS'dropcatchcom783llc'
p9448
g1
((lp9449
S'whois.namebright.com'
p9450
atp9451
Rp9452
sS'mainreginc'
p9453
g1
((lp9454
S'whois.mainreg.com'
p9455
atp9456
Rp9457
sS'dropcatchcom1013llc'
p9458
g1
((lp9459
S'whois.namebright.com'
p9460
atp9461
Rp9462
sS'theseus888llc'
p9463
g1
((lp9464
S'whois.pheenix.com'
p9465
atp9466
Rp9467
sS'webbusinessllc'
p9468
g1
((lp9469
S'whois.webbusiness.biz'
p9470
atp9471
Rp9472
sS'oregonurlscomllc'
p9473
g1
((lp9474
S'whois.web.com'
p9475
aS'whois.oregonurls.com'
p9476
atp9477
Rp9478
sS'uniteddomainsag'
p9479
g1
((lp9480
S'whois.udag.net'
p9481
atp9482
Rp9483
sS'v12domainsllc'
p9484
g1
((lp9485
S'whois.web.com'
p9486
aS'whois.v12domains.com'
p9487
atp9488
Rp9489
sS'domainguardiansinc'
p9490
g1
((lp9491
S'whois.domainguardians.com'
p9492
atp9493
Rp9494
sS'dropcatchcom949llc'
p9495
g1
((lp9496
S'whois.namebright.com'
p9497
atp9498
Rp9499
sS'pheenix56llc'
p9500
g1
((lp9501
S'whois.pheenix.com'
p9502
atp9503
Rp9504
sS'domainnamerouteinc'
p9505
g1
((lp9506
S'whois.tname.com'
p9507
atp9508
Rp9509
sS'dnspodinc'
p9510
g1
((lp9511
S'whois.dnspod.com'
p9512
atp9513
Rp9514
sS'acenstechnologiesslu'
p9515
g1
((lp9516
S'whois.interdomain.net'
p9517
atp9518
Rp9519
sS'ultraregistrarinc'
p9520
g1
((lp9521
S'whois.ultraregistrar.com'
p9522
atp9523
Rp9524
sS'dropwalkcominc'
p9525
g1
((lp9526
S'whois.web.com'
p9527
aS'whois.namepal.com'
p9528
atp9529
Rp9530
sS'hruntingllc'
p9531
g1
((lp9532
S'whois.pheenix.com'
p9533
atp9534
Rp9535
sS'domainregistrycominc'
p9536
g1
((lp9537
S'nswhois.domainregistry.com'
p9538
atp9539
Rp9540
sS'dropcatchcom824llc'
p9541
g1
((lp9542
S'whois.namebright.com'
p9543
atp9544
Rp9545
sS'delinkgmbh'
p9546
g1
((lp9547
S'whois.rrpproxy.net'
p9548
atp9549
Rp9550
sS'dropcatchcom538llc'
p9551
g1
((lp9552
S'whois.namebright.com'
p9553
atp9554
Rp9555
sS'dropcatchcom498llc'
p9556
g1
((lp9557
S'whois.namebright.com'
p9558
atp9559
Rp9560
sS'name105inc'
p9561
g1
((lp9562
S'whois.alohanic.com'
p9563
atp9564
Rp9565
sS'dropcatchcom1041llc'
p9566
g1
((lp9567
S'whois.namebright.com'
p9568
atp9569
Rp9570
sS'beijingzhongwannetworktechnologycoltd'
p9571
g1
((lp9572
S'whois.zw.cn'
p9573
atp9574
Rp9575
sS'dropcatchcom371llc'
p9576
g1
((lp9577
S'whois.namebright.com'
p9578
atp9579
Rp9580
sS'dropcatchcom451llc'
p9581
g1
((lp9582
S'whois.namebright.com'
p9583
atp9584
Rp9585
sS'burnsidedomainscomllc'
p9586
g1
((lp9587
S'whois.web.com'
p9588
aS'whois.burnsidedomains.com'
p9589
atp9590
Rp9591
sS'domainnameblvdinc'
p9592
g1
((lp9593
S'whois.domainnameblvd.com'
p9594
atp9595
Rp9596
sS'pheenix14llc'
p9597
g1
((lp9598
S'whois.pheenix.com'
p9599
atp9600
Rp9601
sS'dropcatchcom683llc'
p9602
g1
((lp9603
S'whois.namebright.com'
p9604
atp9605
Rp9606
sS'dropcatchcom580llc'
p9607
g1
((lp9608
S'whois.namebright.com'
p9609
atp9610
Rp9611
sS'dropcatchcom785llc'
p9612
g1
((lp9613
S'whois.namebright.com'
p9614
atp9615
Rp9616
sS'cloudninedomainllc'
p9617
g1
((lp9618
S'whois.web.com'
p9619
aS'whois.cloudninedomains.com'
p9620
atp9621
Rp9622
sS'jiangsubangningsciencetechnologycoltd'
p9623
g1
((lp9624
S'whois.55hl.com'
p9625
atp9626
Rp9627
sS'dropcatchcom490llc'
p9628
g1
((lp9629
S'whois.namebright.com'
p9630
atp9631
Rp9632
sS'dropcatchcom994llc'
p9633
g1
((lp9634
S'whois.namebright.com'
p9635
atp9636
Rp9637
sS'pearlnamingservicecomllc'
p9638
g1
((lp9639
S'whois.web.com'
p9640
aS'whois.pearlnamingservice.com'
p9641
atp9642
Rp9643
sS'domainitinc'
p9644
g1
((lp9645
S'whois.domainit.com'
p9646
atp9647
Rp9648
sS'dreamhost'
p9649
g1
((lp9650
S'whois.dreamhost.com'
p9651
atp9652
Rp9653
sS'dropcatchcom694llc'
p9654
g1
((lp9655
S'whois.namebright.com'
p9656
atp9657
Rp9658
sS'aquariusdomainsllc'
p9659
g1
((lp9660
S'whois.web.com'
p9661
aS'whois.aquariusdomains.com'
p9662
atp9663
Rp9664
sS'dropcatchcom966llc'
p9665
g1
((lp9666
S'whois.namebright.com'
p9667
atp9668
Rp9669
sS'domainernamesllc'
p9670
g1
((lp9671
S'whois.web.com'
p9672
aS'whois.domainernamesllc.com'
p9673
atp9674
Rp9675
sS'catincdbanamezerocom'
p9676
g1
((lp9677
S'whois2.domain.com'
p9678
atp9679
Rp9680
sS'freeparkingdomainregistrarsinc'
p9681
g1
((lp9682
S'whois.freeparking.co.uk'
p9683
atp9684
Rp9685
sS'dropcatchcom897llc'
p9686
g1
((lp9687
S'whois.namebright.com'
p9688
atp9689
Rp9690
sS'privatedomainsincorporated'
p9691
g1
((lp9692
S'whois.web.com'
p9693
aS'whois.privatedomains.biz'
p9694
atp9695
Rp9696
sS'dropcatchcom402llc'
p9697
g1
((lp9698
S'whois.namebright.com'
p9699
atp9700
Rp9701
sS'napoleonbonapartellc'
p9702
g1
((lp9703
S'whois.pheenix.com'
p9704
atp9705
Rp9706
sS'baracudadomainsllc'
p9707
g1
((lp9708
S'whois.web.com'
p9709
aS'whois.barracudadomains.com'
p9710
atp9711
Rp9712
sS'sitenameltd'
p9713
g1
((lp9714
S'whois.communigal.net'
p9715
atp9716
Rp9717
sS'pdrltddbapublicdomainregistrycom'
p9718
g1
((lp9719
S'whois.publicdomainregistry.com'
p9720
atp9721
Rp9722
sS'georgewashington888llc'
p9723
g1
((lp9724
S'whois.pheenix.com'
p9725
atp9726
Rp9727
sS'linedrivedomainsllc'
p9728
g1
((lp9729
S'whois.web.com'
p9730
aS'whois.linedrivedomains.com'
p9731
atp9732
Rp9733
sS'dropcatchcom913llc'
p9734
g1
((lp9735
S'whois.namebright.com'
p9736
atp9737
Rp9738
sS'dropcatchcom1015llc'
p9739
g1
((lp9740
S'whois.namebright.com'
p9741
atp9742
Rp9743
sS'tecnocraticacentrodedatossl'
p9744
g1
((lp9745
S'whois.extranetdeclientes.com'
p9746
atp9747
Rp9748
sS'dropcatchcom390llc'
p9749
g1
((lp9750
S'whois.namebright.com'
p9751
atp9752
Rp9753
sS'dropcatchcom526llc'
p9754
g1
((lp9755
S'whois.namebright.com'
p9756
atp9757
Rp9758
sS'dropcatchcom449llc'
p9759
g1
((lp9760
S'whois.namebright.com'
p9761
atp9762
Rp9763
sS'enom429incorporated'
p9764
g1
((lp9765
S'whois.enom429.com'
p9766
atp9767
Rp9768
sS'dropcatchcom676llc'
p9769
g1
((lp9770
S'whois.namebright.com'
p9771
atp9772
Rp9773
sS'dandomainas'
p9774
g1
((lp9775
S'whois.dandomain.dk'
p9776
atp9777
Rp9778
sS'pheenix19llc'
p9779
g1
((lp9780
S'whois.pheenix.com'
p9781
atp9782
Rp9783
sS'storkregistryinc'
p9784
g1
((lp9785
S'whois.storkregistry.com'
p9786
atp9787
Rp9788
sS'dropcatchcom702llc'
p9789
g1
((lp9790
S'whois.namebright.com'
p9791
atp9792
Rp9793
sS'dropcatchcom478llc'
p9794
g1
((lp9795
S'whois.namebright.com'
p9796
atp9797
Rp9798
sS'enduranceretail'
p9799
g1
((lp9800
S'whois.launchpad.com'
p9801
atp9802
Rp9803
sS'dropcatchcom597llc'
p9804
g1
((lp9805
S'whois.namebright.com'
p9806
atp9807
Rp9808
sS'dropcatchcom888llc'
p9809
g1
((lp9810
S'whois.namebright.com'
p9811
atp9812
Rp9813
sS'xiamennawangtechnologycoltd'
p9814
g1
((lp9815
S'whois.nawang.cn'
p9816
atp9817
Rp9818
sS'core165ispprointernet'
p9819
g1
((lp9820
S'whois.corehub.net'
p9821
atp9822
Rp9823
sS'echodomainllc'
p9824
g1
((lp9825
S'whois.namebright.com'
p9826
atp9827
Rp9828
sS'dropcatchcom899llc'
p9829
g1
((lp9830
S'whois.namebright.com'
p9831
atp9832
Rp9833
sS'dropcatchcom857llc'
p9834
g1
((lp9835
S'whois.namebright.com'
p9836
atp9837
Rp9838
sS'dropcatchcom649llc'
p9839
g1
((lp9840
S'whois.namebright.com'
p9841
atp9842
Rp9843
sS'enom662inc'
p9844
g1
((lp9845
S'whois.enom662.com'
p9846
atp9847
Rp9848
sS'yourdomaincasallc'
p9849
g1
((lp9850
S'whois.web.com'
p9851
aS'whois.yourdomaincasa.com'
p9852
atp9853
Rp9854
sS'dropcatchcom1002llc'
p9855
g1
((lp9856
S'whois.namebright.com'
p9857
atp9858
Rp9859
sS'magnatedomainsllc'
p9860
g1
((lp9861
S'whois.web.com'
p9862
aS'whois.magnatedomains.com'
p9863
atp9864
Rp9865
sS'hawthornedomainscomllc'
p9866
g1
((lp9867
S'whois.web.com'
p9868
aS'whois.hawthornedomains.com'
p9869
atp9870
Rp9871
sS'guangzhoudomainsinc'
p9872
g1
((lp9873
S'whois.guangzhoudomains.com'
p9874
atp9875
Rp9876
sS'gkgnetinc'
p9877
g1
((lp9878
S'whois.gkg.net'
p9879
atp9880
Rp9881
sS'dropcatchcom906llc'
p9882
g1
((lp9883
S'whois.namebright.com'
p9884
atp9885
Rp9886
sS'domainsuccessllc'
p9887
g1
((lp9888
S'whois.web.com'
p9889
aS'whois.domainsuccessllc.com'
p9890
atp9891
Rp9892
sS'dropcatchcom865llc'
p9893
g1
((lp9894
S'whois.namebright.com'
p9895
atp9896
Rp9897
sS'core95olmllc'
p9898
g1
((lp9899
S'whois.corehub.net'
p9900
atp9901
Rp9902
sS'dropcatchcom504llc'
p9903
g1
((lp9904
S'whois.namebright.com'
p9905
atp9906
Rp9907
sS'aprilseainformationtechnologycorporation'
p9908
g1
((lp9909
S'whois.maprilis.com.vn'
p9910
atp9911
Rp9912
sS'name118inc'
p9913
g1
((lp9914
S'whois.internetcap.us'
p9915
atp9916
Rp9917
sS'dropcatchcom832llc'
p9918
g1
((lp9919
S'whois.namebright.com'
p9920
atp9921
Rp9922
sS'dropcatchcom607llc'
p9923
g1
((lp9924
S'whois.namebright.com'
p9925
atp9926
Rp9927
sS'beijinginnovativelinkagetechnologyltddbadnscomcn'
p9928
g1
((lp9929
S'whois.dns.com.cn'
p9930
atp9931
Rp9932
sS'dropcatchcom842llc'
p9933
g1
((lp9934
S'whois.namebright.com'
p9935
atp9936
Rp9937
sS'dropcatchcom396llc'
p9938
g1
((lp9939
S'whois.namebright.com'
p9940
atp9941
Rp9942
sS'dropcatchcom459llc'
p9943
g1
((lp9944
S'whois.namebright.com'
p9945
atp9946
Rp9947
sS'dropcatchcom908llc'
p9948
g1
((lp9949
S'whois.namebright.com'
p9950
atp9951
Rp9952
sS'dropcatchcom583llc'
p9953
g1
((lp9954
S'whois.namebright.com'
p9955
atp9956
Rp9957
sS'dropcatchcom461llc'
p9958
g1
((lp9959
S'whois.namebright.com'
p9960
atp9961
Rp9962
sS'powernamersinc'
p9963
g1
((lp9964
S'whois.powernamers.com'
p9965
atp9966
Rp9967
sS'dropcatchcom751llc'
p9968
g1
((lp9969
S'whois.namebright.com'
p9970
atp9971
Rp9972
sS'protondomainscomllc'
p9973
g1
((lp9974
S'whois.web.com'
p9975
aS'whois.protondomains.com'
p9976
atp9977
Rp9978
sS'dropcatchcom798llc'
p9979
g1
((lp9980
S'whois.namebright.com'
p9981
atp9982
Rp9983
sS'core153ispserviceeg'
p9984
g1
((lp9985
S'whois.corehub.net'
p9986
atp9987
Rp9988
sS'pheenix17llc'
p9989
g1
((lp9990
S'whois.pheenix.com'
p9991
atp9992
Rp9993
sS'bonzaidomainsllc'
p9994
g1
((lp9995
S'whois.web.com'
p9996
aS'whois.bonzaidomains.com'
p9997
atp9998
Rp9999
sS'extendnamesinc'
p10000
g1
((lp10001
S'whois.extendnames.com'
p10002
atp10003
Rp10004
sS'fastdomaininc'
p10005
g1
((lp10006
S'whois.fastdomain.com'
p10007
atp10008
Rp10009
sS'dropcatchcom886llc'
p10010
g1
((lp10011
S'whois.namebright.com'
p10012
atp10013
Rp10014
sS'synergywholesale'
p10015
g1
((lp10016
S'whois.synergywholesale.com'
p10017
atp10018
Rp10019
sS'tecnologiadesarrolloymercadosderldecv'
p10020
g1
((lp10021
S'whois.2imagen.net'
p10022
atp10023
Rp10024
sS'web4africainc'
p10025
g1
((lp10026
S'whois.web4africa.net'
p10027
atp10028
Rp10029
sS'domainit'
p10030
g1
((lp10031
S'whois.domainit.com'
p10032
atp10033
Rp10034
sS'dropcatchcom922llc'
p10035
g1
((lp10036
S'whois.namebright.com'
p10037
atp10038
Rp10039
sS'dropcatchcom535llc'
p10040
g1
((lp10041
S'whois.namebright.com'
p10042
atp10043
Rp10044
sS'dropcatchcom652llc'
p10045
g1
((lp10046
S'whois.namebright.com'
p10047
atp10048
Rp10049
sS'dropcatchcom742llc'
p10050
g1
((lp10051
S'whois.namebright.com'
p10052
atp10053
Rp10054
sS'universalregistrationservicesincdbanewdentitycom'
p10055
g1
((lp10056
S'whois2.domain.com'
p10057
atp10058
Rp10059
sS'winnamesllc'
p10060
g1
((lp10061
S'whois.web.com'
p10062
aS'whois.winnamesllc.com'
p10063
atp10064
Rp10065
sS'hosteursarl'
p10066
g1
((lp10067
S'whois.hosteur.com'
p10068
atp10069
Rp10070
sS'dropcatchcom567llc'
p10071
g1
((lp10072
S'whois.namebright.com'
p10073
atp10074
Rp10075
sS'dropcatchcom612llc'
p10076
g1
((lp10077
S'whois.namebright.com'
p10078
atp10079
Rp10080
sS'resellerservicesinc'
p10081
g1
((lp10082
S'whois.resellserv.com'
p10083
atp10084
Rp10085
sS'finduanamecomllc'
p10086
g1
((lp10087
S'whois.web.com'
p10088
aS'whois.finduaname.com'
p10089
atp10090
Rp10091
sS'dotrollkft'
p10092
g1
((lp10093
S'whois.dotroll.com'
p10094
atp10095
Rp10096
sS'hetzneronlinegmbh'
p10097
g1
((lp10098
S'whois.your-server.de'
p10099
atp10100
Rp10101
sS'dropcatchcom977llc'
p10102
g1
((lp10103
S'whois.namebright.com'
p10104
atp10105
Rp10106
sS'dropcatchcom657llc'
p10107
g1
((lp10108
S'whois.namebright.com'
p10109
atp10110
Rp10111
sS'domainnameinc'
p10112
g1
((lp10113
S'whois.domainname.com'
p10114
atp10115
Rp10116
sS'turncommerceincdbanamebrightcom'
p10117
g1
((lp10118
S'whois.namebright.com'
p10119
atp10120
Rp10121
sS'eastenddomainsllc'
p10122
g1
((lp10123
S'whois.eastenddomainsllc.com'
p10124
aS'whois.web.com'
p10125
atp10126
Rp10127
sS'dropcatchcom980llc'
p10128
g1
((lp10129
S'whois.namebright.com'
p10130
atp10131
Rp10132
sS'dropcatchcom476llc'
p10133
g1
((lp10134
S'whois.namebright.com'
p10135
atp10136
Rp10137
sS'traveldomainsincorporated'
p10138
g1
((lp10139
S'whois.web.com'
p10140
atp10141
Rp10142
sS'wixiincorporated'
p10143
g1
((lp10144
S'whois.joinup.jp'
p10145
atp10146
Rp10147
sS'pheenix76llc'
p10148
g1
((lp10149
S'whois.pheenix.com'
p10150
atp10151
Rp10152
sS'godaddycomllc'
p10153
g1
((lp10154
S'whois.godaddy.com'
p10155
atp10156
Rp10157
sS'dropcatchcom854llc'
p10158
g1
((lp10159
S'whois.namebright.com'
p10160
atp10161
Rp10162
sS'core122speedboneinternetconnectivitygmbh'
p10163
g1
((lp10164
S'whois.corehub.net'
p10165
atp10166
Rp10167
sS'theregistrarcompanybv'
p10168
g1
((lp10169
S'whois.theregistrarcompany.com'
p10170
atp10171
Rp10172
sS'reclaimdomains'
p10173
g1
((lp10174
S'whois.namebright.com'
p10175
atp10176
Rp10177
sS'webcommercecommunicationslimiteddbawebniccc'
p10178
g1
((lp10179
S'whois.webnic.cc'
p10180
atp10181
Rp10182
sS'namechildllc'
p10183
g1
((lp10184
S'whois.namebright.com'
p10185
atp10186
Rp10187
sS'omnisnetworkllc'
p10188
g1
((lp10189
S'whois.omnis.com'
p10190
atp10191
Rp10192
sS'eranetinternationallimited'
p10193
g1
((lp10194
S'whois.eranet.com'
p10195
atp10196
Rp10197
sS'dropcatchlandingspotllc'
p10198
g1
((lp10199
S'whois.web.com'
p10200
aS'whois.dropcatchlandingspotllc.com'
p10201
atp10202
Rp10203
sS'dropcatchcom862llc'
p10204
g1
((lp10205
S'whois.namebright.com'
p10206
atp10207
Rp10208
sS'domainjunglenetllc'
p10209
g1
((lp10210
S'whois.domainjungle.net'
p10211
aS'whois.web.com'
p10212
atp10213
Rp10214
sS'dropcatchcom735llc'
p10215
g1
((lp10216
S'whois.namebright.com'
p10217
atp10218
Rp10219
sS'dwightdeisenhowerllc'
p10220
g1
((lp10221
S'whois.pheenix.com'
p10222
atp10223
Rp10224
sS'core155lemaritgmbh'
p10225
g1
((lp10226
S'whois.corehub.net'
p10227
atp10228
Rp10229
sS'dropcatchcom729llc'
p10230
g1
((lp10231
S'whois.namebright.com'
p10232
atp10233
Rp10234
sS'rockensteinag'
p10235
g1
((lp10236
S'whois.rockenstein.de'
p10237
atp10238
Rp10239
sS'dropcatchcom502llc'
p10240
g1
((lp10241
S'whois.namebright.com'
p10242
atp10243
Rp10244
sS'core110dnsnetgmbh'
p10245
g1
((lp10246
S'whois.corehub.net'
p10247
atp10248
Rp10249
sS'dropcatchcom528llc'
p10250
g1
((lp10251
S'whois.namebright.com'
p10252
atp10253
Rp10254
sS'domainparkblockcomllc'
p10255
g1
((lp10256
S'whois.web.com'
p10257
aS'whois.domainparkblock.com'
p10258
atp10259
Rp10260
sS'enom409incorporated'
p10261
g1
((lp10262
S'whois.enom409.com'
p10263
atp10264
Rp10265
sS'dropcatchcom452llc'
p10266
g1
((lp10267
S'whois.namebright.com'
p10268
atp10269
Rp10270
sS'japanregistryservicescoltdjprs'
p10271
g1
((lp10272
S'whois2016.jprs.jp'
p10273
atp10274
Rp10275
sS'dropcatchcom685llc'
p10276
g1
((lp10277
S'whois.namebright.com'
p10278
atp10279
Rp10280
sS'domaininthebasketcomllc'
p10281
g1
((lp10282
S'whois.domaininthebasket.com'
p10283
aS'whois.web.com'
p10284
atp10285
Rp10286
sS'automatticinc'
p10287
g1
((lp10288
S'whois.sawbuck.com'
p10289
atp10290
Rp10291
sS'elbgroupinc'
p10292
g1
((lp10293
S'whois.retailstudio.com'
p10294
atp10295
Rp10296
sS'bineroab'
p10297
g1
((lp10298
S'whois.binero.se'
p10299
atp10300
Rp10301
sS'namebrewllc'
p10302
g1
((lp10303
S'whois.namebright.com'
p10304
atp10305
Rp10306
sS'pheenix34llc'
p10307
g1
((lp10308
S'whois.pheenix.com'
p10309
atp10310
Rp10311
sS'enom417incorporated'
p10312
g1
((lp10313
S'whois.web.com'
p10314
aS'whois.enom417.com'
p10315
atp10316
Rp10317
sS'pheenix85llc'
p10318
g1
((lp10319
S'whois.pheenix.com'
p10320
atp10321
Rp10322
sS'logicboxesnamingservicesltd'
p10323
g1
((lp10324
S'whois.publicdomainregistry.com'
p10325
atp10326
Rp10327
sS'abnameisp'
p10328
g1
((lp10329
S'whois.nameisp.com'
p10330
atp10331
Rp10332
sS'dropcatchcom369llc'
p10333
g1
((lp10334
S'whois.namebright.com'
p10335
atp10336
Rp10337
sS'dropcatchcom444llc'
p10338
g1
((lp10339
S'whois.namebright.com'
p10340
atp10341
Rp10342
sS'dropcatchcom999llc'
p10343
g1
((lp10344
S'whois.namebright.com'
p10345
atp10346
Rp10347
sS'domainwardscomllc'
p10348
g1
((lp10349
S'whois.namebright.com'
p10350
atp10351
Rp10352
sS'domaindropllc'
p10353
g1
((lp10354
S'whois.web.com'
p10355
aS'whois.domaindropsllc.com'
p10356
atp10357
Rp10358
sS'dropcatchcom426llc'
p10359
g1
((lp10360
S'whois.namebright.com'
p10361
atp10362
Rp10363
sS'dropcatchcom744llc'
p10364
g1
((lp10365
S'whois.namebright.com'
p10366
atp10367
Rp10368
sS'dropcatchcom991llc'
p10369
g1
((lp10370
S'whois.namebright.com'
p10371
atp10372
Rp10373
sS'dropcatchcom864llc'
p10374
g1
((lp10375
S'whois.namebright.com'
p10376
atp10377
Rp10378
sS'wwwdomainprocessorcom'
p10379
g1
((lp10380
S'whois.domainprocessor.com'
p10381
atp10382
Rp10383
sS'annuletllc'
p10384
g1
((lp10385
S'whois.annulet.com'
p10386
atp10387
Rp10388
sS'brennercomlimited'
p10389
g1
((lp10390
S'whois.brennercom.com'
p10391
atp10392
Rp10393
sS'fetchregistrarllc'
p10394
g1
((lp10395
S'whois.web.com'
p10396
aS'whois.fetchregistrar.com'
p10397
atp10398
Rp10399
sS'beijingguoxunetworktechnologycoltd'
p10400
g1
((lp10401
S'whois.guoxuwang.cn'
p10402
atp10403
Rp10404
sS'dropcatchcom457llc'
p10405
g1
((lp10406
S'whois.namebright.com'
p10407
atp10408
Rp10409
sS'namecatchllc'
p10410
g1
((lp10411
S'whois.web.com'
p10412
aS'whois.namecatchllc.com'
p10413
atp10414
Rp10415
sS'pheenix43llc'
p10416
g1
((lp10417
S'whois.pheenix.com'
p10418
atp10419
Rp10420
sS'mypreciousdomaincomllc'
p10421
g1
((lp10422
S'whois.web.com'
p10423
aS'whois.mypreciousdomain.com'
p10424
atp10425
Rp10426
sS'dropcatchcom469llc'
p10427
g1
((lp10428
S'whois.namebright.com'
p10429
atp10430
Rp10431
sS'dropcatchcom889llc'
p10432
g1
((lp10433
S'whois.namebright.com'
p10434
atp10435
Rp10436
sS'101domaininc'
p10437
g1
((lp10438
S'whois.101domain.com'
p10439
atp10440
Rp10441
sS'confuciusllc'
p10442
g1
((lp10443
S'whois.pheenix.com'
p10444
atp10445
Rp10446
sS'dropcatchcom790llc'
p10447
g1
((lp10448
S'whois.namebright.com'
p10449
atp10450
Rp10451
sS'nerdnamescorporation'
p10452
g1
((lp10453
S'whois.web.com'
p10454
aS'whois.nerdnames.com'
p10455
atp10456
Rp10457
sS'pheenix93llc'
p10458
g1
((lp10459
S'whois.pheenix.com'
p10460
atp10461
Rp10462
sS'dropcatchcom956llc'
p10463
g1
((lp10464
S'whois.namebright.com'
p10465
atp10466
Rp10467
sS'shanghaiyovolenetworksinc'
p10468
g1
((lp10469
S'ewhois.sundns.com'
p10470
atp10471
Rp10472
sS'hangangsystemsincdbadoregicom'
p10473
g1
((lp10474
S'whois.doregi.com'
p10475
atp10476
Rp10477
sS'intersolvedhicominc'
p10478
g1
((lp10479
S'whois.pheenix.com'
p10480
atp10481
Rp10482
sS'dropcatchcom442llc'
p10483
g1
((lp10484
S'whois.namebright.com'
p10485
atp10486
Rp10487
sS'crosscertincdbacosmotowninc'
p10488
g1
((lp10489
S'whois.ccdomain.co.kr'
p10490
atp10491
Rp10492
sS'enom387incorporated'
p10493
g1
((lp10494
S'whois.web.com'
p10495
aS'whois.enom387.com'
p10496
atp10497
Rp10498
sS'enom419incorporated'
p10499
g1
((lp10500
S'whois.enom419.com'
p10501
atp10502
Rp10503
sS'domainsproutscomllc'
p10504
g1
((lp10505
S'whois.web.com'
p10506
aS'whois.domainsprouts.com'
p10507
atp10508
Rp10509
sS'turbonamesllc'
p10510
g1
((lp10511
S'whois.web.com'
p10512
aS'whois.turbonamesllc.com'
p10513
atp10514
Rp10515
sS'enom375incorporated'
p10516
g1
((lp10517
S'whois.enom375.com'
p10518
atp10519
Rp10520
sS'dropcatchcom974llc'
p10521
g1
((lp10522
S'whois.namebright.com'
p10523
atp10524
Rp10525
sS'nuxit'
p10526
g1
((lp10527
S'whois.nuxit.com'
p10528
atp10529
Rp10530
sS'dropcatchcom428llc'
p10531
g1
((lp10532
S'whois.namebright.com'
p10533
atp10534
Rp10535
sS'tppinternetptyltd'
p10536
g1
((lp10537
S'whois.tppinternet.com'
p10538
atp10539
Rp10540
sS'dropcatchcom513llc'
p10541
g1
((lp10542
S'whois.namebright.com'
p10543
atp10544
Rp10545
sS'goldenfinddomainsllc'
p10546
g1
((lp10547
S'whois.web.com'
p10548
aS'whois.goldenfinddomainsllc.com'
p10549
atp10550
Rp10551
sS'wildzebradomainsllc'
p10552
g1
((lp10553
S'whois.web.com'
p10554
aS'whois.wildzebradomains.com'
p10555
atp10556
Rp10557
sS'dropcatchcom1045llc'
p10558
g1
((lp10559
S'whois.namebright.com'
p10560
atp10561
Rp10562
sS'name104inc'
p10563
g1
((lp10564
S'whois.argotech.us'
p10565
atp10566
Rp10567
sS'namewebbvba'
p10568
g1
((lp10569
S'whois.nameweb.biz'
p10570
atp10571
Rp10572
sS'pheenix91llc'
p10573
g1
((lp10574
S'whois.pheenix.com'
p10575
atp10576
Rp10577
sS'globaldomainsinternationalincdbadomaincostclubcom'
p10578
g1
((lp10579
S'whois.website.ws'
p10580
atp10581
Rp10582
sS'enom433incorporated'
p10583
g1
((lp10584
S'whois.enom433.com'
p10585
atp10586
Rp10587
sS'pipelinedomainsllc'
p10588
g1
((lp10589
S'whois.web.com'
p10590
aS'whois.pipelinedomains.com'
p10591
atp10592
Rp10593
sS'niccoltd'
p10594
g1
((lp10595
S'whois.nicco.com'
p10596
atp10597
Rp10598
sS'universalregistrationservicesincdbanewdentit'
p10599
g1
((lp10600
S'whois2.domain.com'
p10601
atp10602
Rp10603
sS'zulfigarllc'
p10604
g1
((lp10605
S'whois.pheenix.com'
p10606
atp10607
Rp10608
sS'deluxesmallbusinesssalesincdbaaplusnet'
p10609
g1
((lp10610
S'whois.names4ever.com'
p10611
atp10612
Rp10613
sS'namefingercomllc'
p10614
g1
((lp10615
S'whois.web.com'
p10616
aS'whois.namefinger.com'
p10617
atp10618
Rp10619
sS'dropcatchcom721llc'
p10620
g1
((lp10621
S'whois.namebright.com'
p10622
atp10623
Rp10624
sS'atlanticfriendnamescomllc'
p10625
g1
((lp10626
S'whois.web.com'
p10627
aS'whois.atlanticfriendnames.com'
p10628
atp10629
Rp10630
sS'dropcatchcom664llc'
p10631
g1
((lp10632
S'whois.namebright.com'
p10633
atp10634
Rp10635
sS'afriregistersa'
p10636
g1
((lp10637
S'whois.afriregister.com'
p10638
atp10639
Rp10640
sS'domaincrazellc'
p10641
g1
((lp10642
S'whois.namebright.com'
p10643
atp10644
Rp10645
sS'pheenixinc'
p10646
g1
((lp10647
S'whois.pheenix.com'
p10648
atp10649
Rp10650
sS'siliconhousenetpvtltd'
p10651
g1
((lp10652
S'whois.clouddomainregistry.com'
p10653
atp10654
Rp10655
sS'pheenix51llc'
p10656
g1
((lp10657
S'whois.pheenix.com'
p10658
atp10659
Rp10660
sS'pheenix11llc'
p10661
g1
((lp10662
S'whois.pheenix.com'
p10663
atp10664
Rp10665
sS'huyiglobalinformationresourcesholdingcompanyhongkonglimited'
p10666
g1
((lp10667
S'whois.8hy.cn'
p10668
atp10669
Rp10670
sS'cvrumahwebindonesia'
p10671
g1
((lp10672
S'whois.rumahweb.com'
p10673
atp10674
Rp10675
sS'register4lessinc'
p10676
g1
((lp10677
S'whois.register4less.com'
p10678
atp10679
Rp10680
sS'centerofukrainianinternetnamesukrnames'
p10681
g1
((lp10682
S'whois.ukrnames.com'
p10683
atp10684
Rp10685
sS'dropcatchcom757llc'
p10686
g1
((lp10687
S'whois.namebright.com'
p10688
atp10689
Rp10690
sS'domainmonkeysllc'
p10691
g1
((lp10692
S'whois.domainmonkeys.com'
p10693
atp10694
Rp10695
sS'dropcatchcom958llc'
p10696
g1
((lp10697
S'whois.namebright.com'
p10698
atp10699
Rp10700
sS'dropcatchcom891llc'
p10701
g1
((lp10702
S'whois.namebright.com'
p10703
atp10704
Rp10705
sS'cyrusthegreatllc'
p10706
g1
((lp10707
S'whois.pheenix.com'
p10708
atp10709
Rp10710
sS'enom427incorporated'
p10711
g1
((lp10712
S'whois.web.com'
p10713
atp10714
Rp10715
sS'domainhawksnetllc'
p10716
g1
((lp10717
S'whois.web.com'
p10718
aS'whois.domainhawks.net'
p10719
atp10720
Rp10721
sS'dropcatchcom573llc'
p10722
g1
((lp10723
S'whois.namebright.com'
p10724
atp10725
Rp10726
sS'dropcatchcom841llc'
p10727
g1
((lp10728
S'whois.namebright.com'
p10729
atp10730
Rp10731
sS'brdomaininc'
p10732
g1
((lp10733
S'whois.namegear.co'
p10734
atp10735
Rp10736
sS'hoapdiinc'
p10737
g1
((lp10738
S'whois.hoapdi-inc.com'
p10739
atp10740
Rp10741
sS'ekadosincdbagroundregistrycom'
p10742
g1
((lp10743
S'whois.ekados.com'
p10744
atp10745
Rp10746
sS'alethiadomainsllc'
p10747
g1
((lp10748
S'whois.web.com'
p10749
aS'whois.alethiadomains.com'
p10750
atp10751
Rp10752
sS'core112providerdeinternetagenturgmbh'
p10753
g1
((lp10754
S'whois.corehub.net'
p10755
atp10756
Rp10757
sS'domaintoorderllc'
p10758
g1
((lp10759
S'whois.web.com'
p10760
aS'whois.domaintoorder.com'
p10761
atp10762
Rp10763
sS'dropcatchcom662llc'
p10764
g1
((lp10765
S'whois.namebright.com'
p10766
atp10767
Rp10768
sS'domainsailsnetllc'
p10769
g1
((lp10770
S'whois.web.com'
p10771
aS'whois.domainsails.net'
p10772
atp10773
Rp10774
sS'millennialnamesllc'
p10775
g1
((lp10776
S'whois.web.com'
p10777
aS'whois.millennialnamesllc.com'
p10778
atp10779
Rp10780
sS'dropcatchcom678llc'
p10781
g1
((lp10782
S'whois.namebright.com'
p10783
atp10784
Rp10785
sS'beijinglanhaijiyetechnologycoltd'
p10786
g1
((lp10787
S'whois.kh86.cn'
p10788
atp10789
Rp10790
sS'dropcatchcom816llc'
p10791
g1
((lp10792
S'whois.namebright.com'
p10793
atp10794
Rp10795
sS'dropcatchcom361llc'
p10796
g1
((lp10797
S'whois.namebright.com'
p10798
atp10799
Rp10800
sS'pheenix57llc'
p10801
g1
((lp10802
S'whois.pheenix.com'
p10803
atp10804
Rp10805
sS'foshanyidongnetworkcoltd'
p10806
g1
((lp10807
S'whois.72dns.com'
p10808
atp10809
Rp10810
sS'1domainsourceltddbadomain1sourceinc'
p10811
g1
((lp10812
S'whois.domain1source.com'
p10813
atp10814
Rp10815
sS'dropcatchcom1042llc'
p10816
g1
((lp10817
S'whois.namebright.com'
p10818
atp10819
Rp10820
sS'firstroundnamesllc'
p10821
g1
((lp10822
S'whois.web.com'
p10823
aS'whois.firstroundnamesllc.com'
p10824
atp10825
Rp10826
sS'dropcatchcom401llc'
p10827
g1
((lp10828
S'whois.namebright.com'
p10829
atp10830
Rp10831
sS'wildbunchdomainsllc'
p10832
g1
((lp10833
S'whois.web.com'
p10834
aS'whois.wildbunchdomains.com'
p10835
atp10836
Rp10837
sS'authenticwebinc'
p10838
g1
((lp10839
S'whois.authenticweb.com'
p10840
atp10841
Rp10842
sS'buddhallc'
p10843
g1
((lp10844
S'whois.pheenix.com'
p10845
atp10846
Rp10847
sS'dropcatchcom940llc'
p10848
g1
((lp10849
S'whois.namebright.com'
p10850
atp10851
Rp10852
sS'dropcatchcom1099llc'
p10853
g1
((lp10854
S'whois.namebright.com'
p10855
atp10856
Rp10857
sS'netpiacominc'
p10858
g1
((lp10859
S'whois.ibi.net'
p10860
atp10861
Rp10862
sS'dropcatchcom986llc'
p10863
g1
((lp10864
S'whois.namebright.com'
p10865
atp10866
Rp10867
sS'allglobalnamessadbacyberegistrocom'
p10868
g1
((lp10869
S'whois.allglobalnames.com'
p10870
atp10871
Rp10872
sS'dropcatchcom772llc'
p10873
g1
((lp10874
S'whois.namebright.com'
p10875
atp10876
Rp10877
s.