(dp0
S'whois.gabia.com'
p1
I24232
sS'whois.dagnabit.biz'
p2
I25
sS'whois.titanichosting.com'
p3
I13
sS'whois.domainsoforigin.com'
p4
I69
sS'whois.enom1008.com'
p5
I24
sS'whois.dynadot15.com'
p6
I1
sS'whois.draftpickdomainsllc.com'
p7
I94
sS'whois.fairtradedomains.com'
p8
I75
sS'whois.hkdns.hk'
p9
I5540
sS'whois.domainguardians.com'
p10
I245
sS'whois.namegear.co'
p11
I30
sS'whois.namesonthedropllc.com'
p12
I88
sS'whois.lczybj.com'
p13
I15
sS'whois.deepdivedomains.com'
p14
I58
sS'whois.unifiedservers.com'
p15
I16
sS'whois.dandomain.dk'
p16
I694
sS'whois.registrar.telekom.de'
p17
I8973
sS'whois.internetdomainnameregistrar.org'
p18
I106
sS'whois.enom453.com'
p19
I35
sS'whois.upperlink.ng'
p20
I41
sS'whois.domainband.com'
p21
I10
sS'whois.no-ip.com'
p22
I2314
sS'whois.markbark.com'
p23
I23
sS'whois.zitian.cn'
p24
I241
sS'whois.mvpdomainnames.com'
p25
I218
sS'whois.znetlive.com'
p26
I1239
sS'whois.domainname.com'
p27
I337
sS'whois.rethemhosting.net'
p28
I54
sS'whois.mijninternetoplossing.nl'
p29
I1864
sS'whois.nicco.com'
p30
I3467
sS'whois.your-server.de'
p31
I9379
sS'whois.enom407.com'
p32
I31
sS'whois.domainraker.net'
p33
I206
sS'whois.crispnames.com'
p34
I8
sS'whois.klaatudomains.com'
p35
I186
sS'whois.hotdomaintrade.com'
p36
I11
sS'whois.snappyregistrar.com'
p37
I183
sS'whois.sssasss.com'
p38
I26
sS'whois.enom652.com'
p39
I14
sS'whois.wideleftdomainsllc.com'
p40
I67
sS'whois.nawang.cn'
p41
I1034
sS'whois.freedivedomains.com'
p42
I81
sS'whois.domdrill.com'
p43
I292
sS'whois.oregonurls.com'
p44
I180
sS'whois.register.ca'
p45
I1852
sS'whois.above.com'
p46
I11504
sS'whois.enom650.com'
p47
I31
sS'whois.deepwaterdomainsllc.com'
p48
I91
sS'whois.metaregistrar.com'
p49
I20
sS'whois.briarwoodtechnologies.com'
p50
I62
sS'whois.domainsalsa.com'
p51
I190
sS'whois.registrarmanager.com'
p52
I17
sS'whois.domaingazelle.com'
p53
I217
sS'whois.promopeople.com'
p54
I481
sS'whois.exclusivedomainfindllc.com'
p55
I81
sS'whois.enom.com'
p56
I941273
sS'whois.golddomainnamesllc.com'
p57
I84
sS'whois.gkg.net'
p58
I11676
sS'whois.interdominios.com'
p59
I2431
sS'whois.french-connexion.com'
p60
I152
sS'whois.biglizarddomains.com'
p61
I202
sS'whois.dynadot16.com'
p62
I2
sS'whois.networking4all.com'
p63
I812
sS'whois.goldminedomainsllc.com'
p64
I93
sS'who.planethoster.net'
p65
I266
sS'whois.enom1009.com'
p66
I28
sS'whois.instinctsolutions.com'
p67
I16
sS'whois.enom421.com'
p68
I22
sS'whois.alfena.com'
p69
I210
sS'whois.bigdomainshop.com'
p70
I11
sS'whois.enom666.com'
p71
I21
sS'whois.apisrs.com'
p72
I563
sS'whois.tradewindsnames.com'
p73
I49
sS'whois.rebel.com'
p74
I16652
sS'whois.gandi.net'
p75
I72028
sS'whois.cn.hooyoo.com'
p76
I618
sS'whois.boterosolutions.net'
p77
I1
sS'whois.netcn.net'
p78
I1
sS'whois.tname.com'
p79
I15
sS'whois.brandma.com'
p80
I2
sS'whois.oregoneu.com'
p81
I171
sS'whois.hostingservicesinc.net'
p82
I554
sS'whois.gotodomainsllc.com'
p83
I82
sS'whois.netjuggler.com'
p84
I17
sS'whois.whiterhinodomains.com'
p85
I71
sS'whois.blueangeldomainsllc.com'
p86
I55
sS'whois.fastdomain.com'
p87
I132884
sS'whois.corehub.net'
p88
I19155
sS'whois.asiadomains.biz'
p89
I24
sS'whois.midwestdomainsllc.com'
p90
I208
sS'whois.intlregistrationservices.com'
p91
I69
sS'whois.enomgmpservices.com'
p92
I20
sS'whois.deletingnamezonellc.com'
p93
I69
sS'whois.oldworldaliases.com'
p94
I174
sS'whois.domus-llc.com'
p95
I1543
sS'whois.gochinadomains.com'
p96
I6220
sS'whois.enom672.com'
p97
I20
sS'whois.nordreg.com'
p98
I780
sS'whois.asiaregister.com'
p99
I133
sS'whois.enom425.com'
p100
I33
sS'whois.namepal.com'
p101
I8289
sS'whois.sourceddomains.com'
p102
I65
sS'whois.pairnic.com'
p103
I9380
sS'whois.pdxprivatenames.com'
p104
I183
sS'whois.freefalldomainsllc.com'
p105
I82
sS'whois.slamdunkdomainsllc.com'
p106
I71
sS'whois.glideslopedomains.com'
p107
I60
sS'whois.enom449.com'
p108
I20
sS'whois.domainlifestlye.com'
p109
I78
sS'whois.allworldnames.com'
p110
I216
sS'whois.registrar.amazon.com'
p111
I3291
sS'whois.discount-domain.com'
p112
I181865
sS'whois.hoapdi-inc.com'
p113
I26
sS'whois.afriregister.com'
p114
I34
sS'whois.enom385.com'
p115
I30
sS'whois.barracudadomains.com'
p116
I74
sS'whois.aitdomains.com'
p117
I6143
sS'whois.yiyu.com'
p118
I697
sS'whois.deschutesdomains.com'
p119
I39
sS'whois.puritynames.com'
p120
I28
sS'whois.domaingrabberllc.com'
p121
I77
sS'whois.needservers.com'
p122
I11
sS'whois.internetters.co.uk'
p123
I1591
sS'whois.enom389.com'
p124
I23
sS'whois.namesourcellc.com'
p125
I80
sS'whois2.softlayer.com'
p126
I30
sS'whois.domainroyale.com'
p127
I32
sS'whois.webnames.ca'
p128
I4684
sS'whois.goldenfinddomainsllc.com'
p129
I77
sS'whois.sammamishdomains.com'
p130
I170
sS'whois.domainplacellc.com'
p131
I74
sS'whois.enom377.com'
p132
I34
sS'whois.alpnames.com'
p133
I188
sS'whois.virtualregistrar.com'
p134
I480
sS'whois.idindi.com'
p135
I20
sS'whois.namware.com'
p136
I11
sS'whois.victorynamesllc.com'
p137
I81
sS'whois.22.cn'
p138
I23765
sS'whois.enom646.com'
p139
I22
sS'whois.bluefractal.com'
p140
I20
sS'whois.svenskadomaner.se'
p141
I50
sS'whois.ourdomains.com'
p142
I1413
sS'whois.interdomain.net'
p143
I13978
sS'whois.enom419.com'
p144
I26
sS'whois.threepointdomainsllc.com'
p145
I78
sS'whois.magicfriday.com'
p146
I16
sS'whois.registrar.eu'
p147
I16880
sS'whois.networksavior.com'
p148
I17
sS'whois.safenames.net'
p149
I9578
sS'whois.google.com'
p150
I31283
sS'whois.heavydomains.net'
p151
I167
sS'whois.eurotrashnames.com'
p152
I186
sS'whois.nicproxy.com'
p153
I12883
sS'whois.neonic.com'
p154
I916
sS'whois.enom1037.com'
p155
I27
sS'whois.cnolnic.com'
p156
I7015
sS'whois.findgooddomains.com'
p157
I12
sS'whois.turbosite.com.br'
p158
I5
sS'whois.domainsonly.com'
p159
I12
sS'whois.misternic.com'
p160
I1478
sS'whois.commerceisland.com'
p161
I278
sS'whois.adomainofyourown.com'
p162
I230
sS'whois.enom1035.com'
p163
I25
sS'whois.enom655.com'
p164
I28
sS'whois.blisternet.net'
p165
I28
sS'whois.doregi.com'
p166
I1734
sS'whois.freespiritdomains.com'
p167
I75
sS'whois.domerati.com'
p168
I11
sS'whois.copperdomainnamesllc.com'
p169
I96
sS'whois.freenom.com'
p170
I175
sS'whois.hostinger.com'
p171
I1022
sS'whois.domainsoftheworld.net'
p172
I193
sS'whois.distributeit.com.au'
p173
I6542
sS'whois.gradeadomainnames.com'
p174
I189
sS'whois.websitesource.com'
p175
I180
sS'whois.namesecure.com'
p176
I12678
sS'whois.domainnameorigin.com'
p177
I75
sS'whois.toppicknamesllc.com'
p178
I87
sS'whois.domainsecurellc.com'
p179
I78
sS'whois.suempresa.com'
p180
I1176
sS'whois.circleofdomainsllc.com'
p181
I71
sS'whois.domainsatcost.ca'
p182
I5527
sS'whois.enom1013.com'
p183
I22
sS'whois.domainjungle.net'
p184
I195
sS'whois.webbusiness.biz'
p185
I29
sS'whois.enom4.com'
p186
I26
sS'whois.signdomains.com'
p187
I544
sS'whois.sudu.cn'
p188
I2650
sS'whois.wildzebradomains.com'
p189
I57
sS'whois.names4ever.com'
p190
I21603
sS'whois.inlanddomainsllc.com'
p191
I215
sS'whois.dotearth.com'
p192
I1608
sS'whois.enom455.com'
p193
I20
sS'whois.moonshotdomains.com'
p194
I70
sS'whois.sterlingdomainsllc.com'
p195
I91
sS'whois.ekados.com'
p196
I62
sS'whois.tigertech.net'
p197
I1594
sS'whois.domainsails.net'
p198
I155
sS'whois.imminentdomains.net'
p199
I184
sS'whois.silverdomainnamesllc.com'
p200
I81
sS'whois.fujiandomains.com'
p201
I716
sS'whois.enom417.com'
p202
I27
sS'whois.enom447.com'
p203
I29
sS'whois.zenregistry.com'
p204
I804
sS'whois.rockenstein.de'
p205
I387
sS'whois.portlandnames.com'
p206
I25
sS'whois.domaininfo.com'
p207
I2525
sS'whois.enom399.com'
p208
I22
sS'whois.51web.hk'
p209
I1038
sS'whois.whitealligatordomains.com'
p210
I70
sS'whois.enom441.com'
p211
I14
sS'wh0is.pocketdomain.com'
p212
I507
sS'whois.enom662.com'
p213
I28
sS'whois.enom445.com'
p214
I30
sS'whois.enom1033.com'
p215
I24
sS'whois.snoqulamiedomains.com'
p216
I215
sS'whois.enomten.com'
p217
I28
sS'whois.domainoriginal.com'
p218
I65
sS'whois.domainsofcourse.com'
p219
I164
sS'whois.gatekeeperdomains.net'
p220
I196
sS'whois.misk.com'
p221
I3673
sS'whois.enom403.com'
p222
I28
sS'whois.lemonsharkdomains.com'
p223
I64
sS'whois.domainstreetdirect.com'
p224
I234
sS'whois.bighouseservices.com'
p225
I30
sS'whois.ccdomain.co.kr'
p226
I778
sS'whois.isimtescil.net'
p227
I17796
sS'whois.housofdomains.com'
p228
I83
sS'whois.euturbo.com'
p229
I218
sS'whois.dnspod.com'
p230
I281
sS'whois.enom1014.com'
p231
I20
sS'whois.nameconnectionspotllc.com'
p232
I75
sS'whois.domainjamboreellc.com'
p233
I53
sS'whois.netim.com'
p234
I576
sS'whois.genious.net'
p235
I223
sS'whois.pavietnam.vn'
p236
I2354
sS'whois.registrygate.com'
p237
I27830
sS'whois.ltnic.com'
p238
I55
sS'whois.zw.cn'
p239
I23
sS'whois.threadagent.com'
p240
I507
sS'whois.nametofame.com'
p241
I11
sS'whois.joker.com'
p242
I35224
sS'whois.bookmyidentity.com'
p243
I9
sS'whois.namesaplentyllc.com'
p244
I85
sS'whois.protondomains.com'
p245
I189
sS'whois.yoursrs.com'
p246
I19192
sS'whois.powercarrier.com'
p247
I10
sS'whois.swordfishdomainsllc.com'
p248
I71
sS'whois.enom429.com'
p249
I30
sS'whois.myobnet.com'
p250
I56
sS'whois.soldierofonedomains.com'
p251
I61
sS'whois.domainlandingzonellc.com'
p252
I78
sS'whois.riktad.se'
p253
I90
sS'whois.alices-registry.com'
p254
I105
sS'whois.gofrancedomains.com'
p255
I6390
sS'whois.freeparking.co.uk'
p256
I2926
sS'whois.sfn.cn'
p257
I493
sS'whois.octopusdomains.net'
p258
I170
sS'whois.domainsoftheday.net'
p259
I182
sS'whois.cloudflare.com'
p260
I11
sS'whois.enom393.com'
p261
I27
sS'whois.meganamesllc.com'
p262
I78
sS'whois.dynadot5.com'
p263
I342
sS'whois.gomontenegrodomains.com'
p264
I6063
sS'whois.ownidentity.com'
p265
I420
sS'whois.namefindsourcellc.com'
p266
I99
sS'whois.tropicregistry.com'
p267
I13
sS'whois.launchpad.com'
p268
I15925
sS'whois.hupo.com'
p269
I313
sS'whois.visualmonster.com'
p270
I12
sS'whois.iconicnamesllc.com'
p271
I75
sS'whois.twt.it'
p272
I60
sS'whois.fetchregistrar.com'
p273
I75
sS'whois.2imagen.net'
p274
I217
sS'whois.sibername.com'
p275
I1392
sS'whois.slowputtdomainsllc.com'
p276
I80
sS'whois.namebay.com'
p277
I11573
sS'whois.namesstopherellc.com'
p278
I66
sS'whois.moniker.com'
p279
I66782
sS'whois.domainsite.com'
p280
I12463
sS'whois.domainnamedriveway.com'
p281
I478
sS'whois.planetdomain.com'
p282
I6120
sS'whois.bestdropnamesllc.com'
p283
I72
sS'whois.eagleeyedomains.com'
p284
I74
sS'whois.ssandomain.com'
p285
I737
sS'whois.xiamendomains.com'
p286
I546
sS'whois.nameconnectionareallc.com'
p287
I143
sS'whois.enom397.com'
p288
I26
sS'whois.domainclip.com'
p289
I424
sS'whois.bluerazor.com'
p290
I6939
sS'whois.enom371.com'
p291
I31
sS'whois.dynadot3.com'
p292
I363
sS'whois.firstroundnamesllc.com'
p293
I83
sS'whois.topleveldomainsllc.com'
p294
I63
sS'whois.retailstudio.com'
p295
I1568
sS'whois.annulet.com'
p296
I47417
sS'whois2.domain.com'
p297
I2917
sS'whois.netestate.com'
p298
I1380
sS'whois.reg.com'
p299
I3664
sS'whois.dotroll.com'
p300
I571
sS'whois.enom415.com'
p301
I26
sS'whois.namegrabllc.com'
p302
I91
sS'whois.desertdevil.com'
p303
I2
sS'whois.domaincatcherllc.com'
p304
I69
sS'whois.domainmonster.com'
p305
I2
sS'whois.binero.se'
p306
I2882
sS'whois.domaincollage.com'
p307
I73
sS'whois.liquidnetlimited.com'
p308
I5633
sS'whois.oldtowndomains.com'
p309
I202
sS'whois.eastenddomainsllc.com'
p310
I209
sS'whois.platinumregistrar.com'
p311
I16
sS'whois.hebeidomains.com'
p312
I5138
sS'whois.udag.net'
p313
I32087
sS'whois.hosting.kr'
p314
I21748
sS'whois.paragonnames.net'
p315
I1948
sS'whois.domaininthebasket.com'
p316
I189
sS'whois.dynadot4.com'
p317
I420
sS'whois.thirdroundnamesllc.com'
p318
I73
sS'whois.enom457.com'
p319
I23
sS'whois.extranetdeclientes.com'
p320
I5748
sS'whois.duckbilleddomains.com'
p321
I173
sS'whois.trafficnames.net'
p322
I26
sS'whois.nameisp.com'
p323
I1949
sS'whois.tradeindia.com'
p324
I470
sS'whois.magnoliadomains.com'
p325
I59
sS'whois.aquariusdomains.com'
p326
I67
sS'whois.domain1source.com'
p327
I19
sS'whois.nameperfections.com'
p328
I14
sS'whois.encirca.com'
p329
I177
sS'whois.goaustraliadomains.com'
p330
I6763
sS'whois.pearlnamingservice.com'
p331
I172
sS'whois.pacificdomainsllc.com'
p332
I196
sS'whois.lws.net'
p333
I373
sS'whois.1isi.com'
p334
I144
sS'whois.webnames.ru'
p335
I1746
sS'whois.softlayer.com'
p336
I6457
sS'whois.domainparkblock.com'
p337
I184
sS'whois.dynadot7.com'
p338
I353
sS'whois.majorleaguedomains.com'
p339
I63
sS'whois.nameselite.com'
p340
I62
sS'whois.hangtendomains.com'
p341
I77
sS'whois.raregemdomainsllc.com'
p342
I85
sS'whois.catchdeletingnamesllc.com'
p343
I75
sS'whois.communigal.net'
p344
I4139
sS'whois.dynadot12.com'
p345
I311
sS'whois.nameking.com'
p346
I14149
sS'whois.vedacore.com'
p347
I8
sS'whois.bizcn.com'
p348
I33714
sS'whois.domainshype.com'
p349
I669
sS'whois.azprivatez.com'
p350
I3967
sS'whois.openname.com'
p351
I1187
sS'whois.azdomainz.com'
p352
I4160
sS'whois.enom413.com'
p353
I21
sS'whois.hostingireland.ie'
p354
I306
sS'whois.z-core.com'
p355
I30
sS'whois.storkregistry.com'
p356
I18
sS'whois.domainestaaqui.com'
p357
I65
sS'whois.eb.com.cn'
p358
I383
sS'whois.lcn.com'
p359
I8538
sS'whois.global-village.de'
p360
I703
sS'whois.namethread.com'
p361
I27
sS'whois.gonbei.jp'
p362
I579
sS'whois.ilait.com'
p363
I143
sS'whois.snagyournamellc.com'
p364
I69
sS'whois.name.net'
p365
I550
sS'whois.markmonitor.com'
p366
I60737
sS'whois.maffavenue.com'
p367
I543
sS'whois.chinanet.cc'
p368
I96
sS'whois.eunamesoregon.com'
p369
I199
sS'whois.enomv.com'
p370
I31
sS'whois.fenominal.com'
p371
I30
sS'whois.domainsovereigns.com'
p372
I190
sS'whois.catalog.com'
p373
I2503
sS'whois.advaloremdomains.com'
p374
I61
sS'whois.internetcap.us'
p375
I32
sS'whois.traveldomainsincorporated.com'
p376
I27
sS'whois.namearsenal.com'
p377
I224
sS'whois.1hostcanada.com'
p378
I158
sS'whois.enom443.com'
p379
I36
sS'whois.enom661.com'
p380
I22
sS'whois.porkbun.com'
p381
I162
sS'whois.webnic.cc'
p382
I22444
sS'whois.topshelfdomainsllc.com'
p383
I75
sS'whois.domainamania.com'
p384
I194
sS'whois.enomfor.com'
p385
I32
sS'whois.enom635.com'
p386
I36
sS'whois.worldbizdomains.com'
p387
I41
sS'whois.akky.mx'
p388
I649
sS'whois.gocanadadomains.com'
p389
I6309
sS'whois.internet.bs'
p390
I30191
sS'whois.enomnz.com'
p391
I41
sS'whois.turbonamesllc.com'
p392
I81
sS'whois.devildogdomains.com'
p393
I162
sS'whois.domainingoro.com'
p394
I66
sS'whois.reg.cn'
p395
I9
sS'whois.cirs.us'
p396
I76
sS'whois.enom663.com'
p397
I26
sS'whois.dn.com'
p398
I61
sS'whois.enom1012.com'
p399
I24
sS'whois.registrationtek.com'
p400
I715
sS'whois.nameemperor.com'
p401
I210
sS'whois.enom375.com'
p402
I20
sS'whois.domaincomesaround.com'
p403
I192
sS'whois.dropcatchmarketplacellc.com'
p404
I86
sS'whois.techtyrants.com'
p405
I10
sS'whois.ename.com'
p406
I58447
sS'whois.rumahweb.com'
p407
I1748
sS'whois.linedrivedomains.com'
p408
I62
sS'whois.flancrestdomains.com'
p409
I188
sS'whois.psi.jp'
p410
I1771
sS'whois.sitefrenzy.com'
p411
I185
sS'whois.domainsurgeon.com'
p412
I212
sS'whois.youdamain.com'
p413
I150
sS'whois.authenticweb.com'
p414
I86
sS'whois.fabulous.com'
p415
I148240
sS'whois.publicdomainregistry.com'
p416
I232280
sS'whois.domainsourcellc.com'
p417
I78
sS'whois.unpower.com'
p418
I13
sS'whois.ladasdomains.com'
p419
I391
sS'whois.luckyelephantdomains.com'
p420
I63
sS'whois.ccireg.com'
p421
I677
sS'whois.crystalcoal.com'
p422
I32
sS'whois.dotmedia.com'
p423
I606
sS'whois.dns.com.cn'
p424
I24947
sS'whois.nicreg.com'
p425
I2310
sS'whois.toglodo.com'
p426
I35
sS'whois.everreadynames.com'
p427
I10
sS'whois.dattatec.com'
p428
I5051
sS'whois.namecroc.com'
p429
I186
sS'whois.enom1034.com'
p430
I37
sS'whois.burnsidedomains.com'
p431
I211
sS'whois.eranet.com'
p432
I89
sS'whois.cronon.net'
p433
I64471
sS'whois.domainyeti.com'
p434
I181
sS'whois.gungagalunga.biz'
p435
I26
sS'whois.catchdomainsllc.com'
p436
I74
sS'whois.rankusa.com'
p437
I290
sS'whois.enom395.com'
p438
I30
sS'whois.namesilo.com'
p439
I42709
sS'whois.1and1.com'
p440
I389225
sS'whois.bigrock.com'
p441
I11546
sS'whois.nictrade.se'
p442
I1117
sS'whois.comlaude.com'
p443
I3869
sS'whois.ascio.com'
p444
I108855
sS'whois.backslapdomains.com'
p445
I245
sS'whois.yourdomainking.com'
p446
I13
sS'whois.endeavourdomains.com'
p447
I75
sS'whois.snapsourcellc.com'
p448
I86
sS'whois.bonamfortunamdomains.com'
p449
I74
sS'whois.magnatedomains.com'
p450
I67
sS'whois.yourdomainllc.com'
p451
I82
sS'whois.deepseadomainsllc.com'
p452
I97
sS'whois.streamlinedomains.com'
p453
I65
sS'whois.coolocean.com'
p454
I9
sS'whois.eunameflood.com'
p455
I171
sS'whois.naugus.com'
p456
I963
sS'whois.srsplus.com'
p457
I22278
sS'whois.enetica.com.au'
p458
I2075
sS'whois.8hy.cn'
p459
I298
sS'whois.savethename.com'
p460
I179
sS'whois.maprilis.com.vn'
p461
I15575
sS'whois.dynadot11.com'
p462
I281
sS'whois.enom5.com'
p463
I32
sS'whois.thedomainsllc.com'
p464
I85
sS'whois.soyouwantadomain.com'
p465
I237
sS'whois.belmontdomains.com'
p466
I214
sS'whois.gozerdomains.com'
p467
I207
sS'whois.register.eu'
p468
I1221
sS'whois.web4africa.net'
p469
I274
sS'whois.corporatedomains.com'
p470
I88846
sS'whois.neubox.com'
p471
I1862
sS'whois.namecentral.com'
p472
I1
sS'whois.sbsnames.com'
p473
I33
sS'whois.enom373.com'
p474
I29
sS'whois.retaildomains.net'
p475
I30
sS'whois.flappydomain.com'
p476
I659
sS'whois.biwo.com'
p477
I469
sS'whois.eztimesdomains.com'
p478
I64
sS'whois.enom409.com'
p479
I20
sS'whois.yesnic.com'
p480
I7691
sS'whois.nameiconllc.com'
p481
I84
sS'whois.netlogistics.com.au'
p482
I122
sS'whois.west263.com'
p483
I16369
sS'whois.domains.domreg.lt'
p484
I66
sS'whois.registrarsec.com'
p485
I2
sS'whois.alldomainsllc.com'
p486
I83
sS'whois.chocolatechipdomains.com'
p487
I81
sS'whois.jarheaddomains.com'
p488
I65
sS'whois.onlinenic.com'
p489
I53049
sS'whois.sliceofheavendomains.com'
p490
I55
sS'whois.europeanconnectiononline.com'
p491
I201
sS'comnet-whois.humeia.com'
p492
I337
sS'whois.longdrivedomainsllc.com'
p493
I87
sS'whois.namemaster.de'
p494
I207
sS'whois.searchnresq.com'
p495
I31
sS'whois.smallbusinessnamescerts.com'
p496
I17
sS'whois.sdsns.com'
p497
I156
sS'whois.puredomain.com'
p498
I1619
sS'whois.fushitarazu.com'
p499
I31
sS'whois.62.net'
p500
I1002
sS'whois.cnkuai.com'
p501
I1
sS'whois.entrustdomains.com'
p502
I72
sS'whois.instra.net'
p503
I3782
sS'vividwhois.vividdomains.com'
p504
I62
sS'whois.1hostjapan.com'
p505
I204
sS'whois.netzadresse.at'
p506
I9
sS'whois.pinkelephantdomains.com'
p507
I66
sS'whois.domainnamefwy.com'
p508
I592
sS'whois.crazydomains.com'
p509
I17104
sS'whois.melbourneit.com'
p510
I20162
sS'whois.dropcatchingnamesllc.com'
p511
I70
sS'whois.tldregistrarsolutions.com'
p512
I7636
sS'whois.webinfinityinc.com'
p513
I57
sS'whois.domainsoverboard.com'
p514
I206
sS'whois.v12domains.com'
p515
I50
sS'whois.enom427.com'
p516
I16
sS'whois.iserveyourdomain.com'
p517
I174
sS'whois.iaregistry.com'
p518
I1935
sS'whois.35.com'
p519
I27299
sS'whois.cloudninedomains.com'
p520
I75
sS'whois.findyouadomain.com'
p521
I127
sS'whois.nic.ru'
p522
I8900
sS'whois.omnis.com'
p523
I8501
sS'com.whois.ods.vn'
p524
I17
sS'whois.enom463.com'
p525
I38
sS'whois.domainthenet.com'
p526
I1788
sS'whois.atakteknoloji.com'
p527
I719
sS'whois.dropoutlet.com'
p528
I16
sS'whois.domainnovations.com'
p529
I29
sS'whois.namesourcedomains.com'
p530
I66
sS'whois.backstopnamesllc.com'
p531
I76
sS'whois.fastballdomainsllc.com'
p532
I86
sS'whois.coralreefdomainsllc.com'
p533
I74
sS'whois.tirupatidomains.in'
p534
I1636
sS'whois.inic.ch'
p535
I351
sS'whois.domainsnapperllc.com'
p536
I75
sS'whois.gooddns.com'
p537
I1
sS'whois.sharkweekdomainsllc.com'
p538
I90
sS'whois.domaincirclellc.com'
p539
I78
sS'whois.domaindropsllc.com'
p540
I80
sS'whois.nordnet.net'
p541
I11647
sS'whois.lionsharedomains.com'
p542
I53
sS'whois.dharanadomains.com'
p543
I59
sS'whois.afterdarkdomainsincorporated.com'
p544
I24
sS'ewhois.sundns.com'
p545
I2992
sS'whois.domainerschoice.com'
p546
I1233
sS'whois.tag-domains.com'
p547
I20
sS'whois.nameweb.biz'
p548
I2735
sS'whois.noteworthydomains.com'
p549
I69
sS'whois.iana.org'
p550
I9
sS'whois.bottledomains.com'
p551
I322
sS'whois.domainmantra.com'
p552
I17
sS'whois.enom1010.com'
p553
I23
sS'whois.anchovy.com'
p554
I69
sS'whois.findyouaname.com'
p555
I201
sS'whois.domaincentre.ca'
p556
I8
sS'whois.dynadot10.com'
p557
I320
sS'whois.curiousnet.com'
p558
I11
sS'whois.domaininthehole.com'
p559
I197
sS'whois.onlinenameservices.com'
p560
I61
sS'whois.extrathreads.com'
p561
I30
sS'whois.topsystem.com'
p562
I1439
sS'whois.domainnamepath.com'
p563
I509
sS'whois.enom379.com'
p564
I23
sS'whois.millennialnamesllc.com'
p565
I74
sS'whois.pararescuedomains.com'
p566
I52
sS'whois.dynadot9.com'
p567
I306
sS'whois.resellercamp.com'
p568
I3885
sS'whois.layupdomainsllc.com'
p569
I78
sS'whois.ukrnames.com'
p570
I1268
sS'whois.topvhost.net'
p571
I440
sS'whois.dynadot.com'
p572
I50000
sS'whois.profilebuilder.com'
p573
I6339
sS'whois.123-reg.co.uk'
p574
I73545
sS'whois.fiducia.lv'
p575
I834
sS'whois.domainalacarte.com'
p576
I59
sS'whois.iisp.com'
p577
I1381
sS'whois.domaincentral.com.au'
p578
I1040
sS'whois.domainadministration.com'
p579
I12272
sS'whois.1198.cn'
p580
I51
sS'whois.enom461.com'
p581
I31
sS'whois.domainshopllc.com'
p582
I62
sS'whois.dropcatchminingllc.com'
p583
I81
sS'whois.discountdomainsuk.com'
p584
I223
sS'whois.getyername.com'
p585
I120
sS'whois.neworderdomains.com'
p586
I69
sS'whois.namespro.ca'
p587
I1820
sS'whois.namecatchzonellc.com'
p588
I90
sS'whois.domainnameparkway.com'
p589
I1
sS'whois.namemax.cn'
p590
I105
sS'whois.enterprice.net'
p591
I19370
sS'whois.activeregistrar.com'
p592
I4786
sS'whois.1hostchina.com'
p593
I177
sS'whois.touchdowndomainsllc.com'
p594
I78
sS'whois.domainpeople.com'
p595
I31409
sS'whois.hazeldomains.com'
p596
I503
sS'whois.betterthanaveragedomains.com'
p597
I182
sS'whois.domain.com'
p598
I153413
sS'whois.nominfinitum.com'
p599
I29
sS'whois.domainregservices.com'
p600
I62
sS'whois.oleane.net'
p601
I3979
sS'whois.king-domains.com'
p602
I30
sS'whois.freestyleholdings.com'
p603
I59
sS'whois.0101domain.com'
p604
I449
sS'whois.whiteglovedomains.com'
p605
I34
sS'whois.enom659.com'
p606
I26
sS'whois.goodluckdomain.com'
p607
I25
sS'whois.guoxuwang.cn'
p608
I57
sS'whois.sugarcubedomains.com'
p609
I61
sS'whois.extremelywild.com'
p610
I16
sS'whois.imena.ua'
p611
I2561
sS'whois.world4you.com'
p612
I2823
sS'whois.clouddomainregistry.com'
p613
I879
sS'whois.compuglobalhypermega.com'
p614
I190
sS'whois.psi-usa.info'
p615
I70550
sS'whois.joinup.jp'
p616
I175
sS'whois.columbianames.com'
p617
I186
sS'whois.cndns.cn'
p618
I27
sS'whois.toptierdomainsllc.com'
p619
I66
sS'whois.dotalliance.com'
p620
I221
sS'whois.squidsailerdomains.com'
p621
I71
sS'whois.zoneofdomainsllc.com'
p622
I79
sS'whois.enom431.com'
p623
I23
sS'whois.kuwaitnet.net'
p624
I201
sS'whois.1api.net'
p625
I25744
sS'whois.bonzaidomains.com'
p626
I67
sS'whois.blacknight.com'
p627
I3228
sS'whois.netdorm.com'
p628
I557
sS'whois.thirdfloordns.com'
p629
I200
sS'whois.namecheap.com'
p630
I389
sS'whois.paimi.com'
p631
I230
sS'whois.mobilenameservices.com'
p632
I4
sS'whois.dinahosting.com'
p633
I12391
sS'whois.maff.com'
p634
I12487
sS'grs-whois.cndns.com'
p635
I10959
sS'whois.bookmyname.com'
p636
I12902
sS'whois.sunmounta.in'
p637
I85
sS'whois.dynadot8.com'
p638
I308
sS'whois.secondroundnamesllc.com'
p639
I89
sS'whois.astutium.com'
p640
I340
sS'whois.serveisweb.com'
p641
I501
sS'whois.meshdigital.com'
p642
I69985
sS'whois.brennercom.com'
p643
I11
sS'whois.enom1.com'
p644
I26
sS'whois.bouncepassdomainsllc.com'
p645
I87
sS'whois.namestopllc.com'
p646
I78
sS'whois.powernamers.com'
p647
I13
sS'whois.seymourdomains.com'
p648
I17
sS'whois.curveballdomainsllc.com'
p649
I80
sS'whois-all.nameshare.com'
p650
I15
sS'whois.gofullhouse.com'
p651
I16
sS'whois.brandnames.com'
p652
I77
sS'whois.domainagent.co.nz'
p653
I260
sS'whois.uniregistrar.com'
p654
I181063
sS'whois2016.jprs.jp'
p655
I27280
sS'whois.ibi.net'
p656
I1322
sS'whois.dreamhost.com'
p657
I58384
sS'whois.ultraregistrar.com'
p658
I14
sS'whois.nominalia.com'
p659
I7867
sS'whois.myorderbox.com'
p660
I25
sS'whois.deerwood.name'
p661
I89
sS'whois.enom3.com'
p662
I34
sS'whois.arabinternetnames.com'
p663
I23
sS'whois.willamettenames.com'
p664
I168
sS'whois.oiinternet.com.br'
p665
I261
sS'whois.slowmotiondomainsllc.com'
p666
I81
sS'whois.ireg.net'
p667
I292
sS'whois.entorno.com'
p668
I1264
sS'whois-generic.marcaria.com'
p669
I561
sS'whois.dynadot6.com'
p670
I316
sS'whois.notsofamousnames.com'
p671
I232
sS'whois.finduaname.com'
p672
I183
sS'whois.dotology.com'
p673
I16
sS'whois.nuxit.com'
p674
I1032
sS'whois.bullrundomains.com'
p675
I187
sS'whois.101domain.com'
p676
I1535
sS'whois.vertexnames.com'
p677
I9
sS'whois.easydns.com'
p678
I6154
sS'whois.domainrouge.com'
p679
I17
sS'whois.625domains.com'
p680
I7
sS'whois.enom439.com'
p681
I37
sS'whois.extendnames.com'
p682
I16
sS'whois.star-domain.jp'
p683
I6021
sS'whois.enom654.com'
p684
I27
sS'whois.webair.com'
p685
I584
sS'whois.argotech.us'
p686
I48
sS'whois.gzidc.com'
p687
I4716
sS'whois.domainhysteria.com'
p688
I179
sS'whois.easyspace.com'
p689
I12672
sS'whois.dropcatchlandingspotllc.com'
p690
I69
sS'whois.bigdipperdomains.com'
p691
I57
sS'whois.namefinger.com'
p692
I166
sS'whois.gi.net'
p693
I623
sS'whois.enom467.com'
p694
I32
sS'whois.namescout.com'
p695
I7066
sS'whois.evonames.com'
p696
I5053
sS'whois.enom435.com'
p697
I25
sS'whois.name.cc'
p698
I35
sS'whois.freedropzonellc.com'
p699
I81
sS'whois.jumboname.com'
p700
I12
sS'whois.mainreg.com'
p701
I7
sS'whois.tucows.com'
p702
I756921
sS'whois.do-reg.jp'
p703
I3177
sS'whois.dropcatchauctionllc.com'
p704
I77
sS'whois.domainnamehighway.com'
p705
I702
sS'whois.enomworld.com'
p706
I29
sS'whois.libris.com'
p707
I3868
sS'whois.enom433.com'
p708
I25
sS'whois.72dns.com'
p709
I2147
sS'whois.domainnameroot.com'
p710
I57
sS'whois.edong.com'
p711
I2
sS'whois.treasuretrovedomainsllc.com'
p712
I85
sS'whois.domainsouffle.com'
p713
I170
sS'whois.privatedomains.biz'
p714
I27
sS'whois.netregistry.net'
p715
I7005
sS'whois.totalregistrations.com'
p716
I2249
sS'whois.aerotek.com.tr'
p717
I1031
sS'whois.ukraine.com.ua'
p718
I626
sS'whois.networksolutions.com'
p719
I553392
sS'whois.wildbunchdomains.com'
p720
I70
sS'whois.host.uol.com.br'
p721
I4484
sS'whois.alantron.com'
p722
I1538
sS'whois.namewinnerllc.com'
p723
I76
sS'whois.domainbazaarllc.com'
p724
I76
sS'whois.secura-gmbh.de'
p725
I358
sS'whois.domainsinthebag.com'
p726
I187
sS'whois.canyongate.biz'
p727
I75
sS'whois.domainnameblvd.com'
p728
I515
sS'whois.reg2c.com'
p729
I7116
sS'whois.namepanther.com'
p730
I210
sS'whois.antagus.de'
p731
I23546
sS'whois.netistrar.com'
p732
I19
sS'whois.ghana.com'
p733
I3
sS'whois.savemorenames.com'
p734
I1
sS'whois.enombre.com'
p735
I37
sS'whois.tradestarter.com'
p736
I6
sS'whois.ripcorddomains.com'
p737
I53
sS'whois.enom383.com'
p738
I19
sS'whois.mailclub.net'
p739
I2229
sS'whois.enom381.com'
p740
I30
sS'whois.enom423.com'
p741
I33
sS'whois.namecatchllc.com'
p742
I83
sS'whois.santiamdomains.com'
p743
I175
sS'whois.domaintoorder.com'
p744
I83
sS'whois.190.com'
p745
I3231
sS'whois.namesbeyond.com'
p746
I1952
sS'whois.postaldomains.com'
p747
I36
sS'whois.zigzagnames.com'
p748
I196
sS'whois.zonecasting.com'
p749
I14
sS'whois.allearthdomains.com'
p750
I244
sS'whois.resellerid.com'
p751
I1705
sS'whois.eastnames.com'
p752
I4
sS'whois.ininaf.com'
p753
I29
sS'whois.kagoya.net'
p754
I611
sS'whois.enom465.com'
p755
I34
sS'whois.namejuice.com'
p756
I8580
sS'whois.nhanhoa.com'
p757
I589
sS'whois.finegraindomains.com'
p758
I76
sS'whois.alohanic.com'
p759
I132
sS'whois.domainsuccessllc.com'
p760
I69
sS'whois.chipshotdomainsllc.com'
p761
I77
sS'whois.resellserv.com'
p762
I128
sS'whois.guangzhoudomains.com'
p763
I585
sS'whois.domainnameshop.com'
p764
I6946
sS'whois.ksdom.kr'
p765
I443
sS'whois.paknic.com'
p766
I553
sS'whois.rallycrydomains.com'
p767
I61
sS'whois.beartrapdomains.com'
p768
I221
sS'whois.domrobot.com'
p769
I3617
sS'whois.enom411.com'
p770
I21
sS'whois.cloudbreakdomains.com'
p771
I77
sS'whois.widerightdomainsllc.com'
p772
I81
sS'whois.serverplan.com'
p773
I1677
sS'whois.godaddy.com'
p774
I3358147
sS'whois.hellodotnyc.com'
p775
I9
sS'whois.dotarai.com'
p776
I431
sS'whois.theregistrarcompany.com'
p777
I1535
sS'whois.goserveyourdomain.com'
p778
I200
sS'whois.domainsofvalue.com'
p779
I226
sS'whois.1hostgermany.com'
p780
I220
sS'whois.r01.ru'
p781
I1590
sS'whois.paintedponynames.com'
p782
I60
sS'whois.yourdomaincasa.com'
p783
I62
sS'whois.instantnames.com'
p784
I1381
sS'whois.demys.com'
p785
I932
sS'whois.domaingoldzonellc.com'
p786
I83
sS'whois.1hostkorea.com'
p787
I207
sS'whois.in2net.com'
p788
I8049
sS'whois.55hl.com'
p789
I10672
sS'whois.name.com'
p790
I94290
sS'whois.namenelly.com'
p791
I23
sS'whois.entertainmentnames.com'
p792
I37
sS'whois.domainernamesllc.com'
p793
I71
sS'whois.udomainname.com'
p794
I303
sS'whois.domainlocale.com'
p795
I59
sS'whois.enomcorporate.com'
p796
I24
sS'whois.sipence.com'
p797
I1
sS'whois.cyandomains.com'
p798
I503
sS'whois.baronofdomains.com'
p799
I225
sS'whois.namesinmotion.com'
p800
I17
sS'whois.microbreweddomains.com'
p801
I204
sS'whois.theregistrarservice.com'
p802
I9
sS'whois.dotname.co.kr'
p803
I4234
sS'whois.neen.it'
p804
I145
sS'whois.smallworldregistrar.com'
p805
I1
sS'whois.ihs.com.tr'
p806
I8820
sS'whois.inname.net'
p807
I1008
sS'whois.purenic.com'
p808
I464
sS'whois.dianmei.co'
p809
I259
sS'whois.register.com'
p810
I184578
sS'whois.synergywholesale.com'
p811
I3139
sS'whois.keyregistrar.com'
p812
I9
sS'whois.matbao.net'
p813
I1135
sS'whois.masterofmydomains.net'
p814
I216
sS'whois.domainit.com'
p815
I1939
sS'whois.mountaindomains.net'
p816
I59
sS'whois.veritasdomains.com'
p817
I64
sS'whois.mypreciousdomain.com'
p818
I190
sS'whois.register.it'
p819
I41377
sS'whois.straight8domains.com'
p820
I57
sS'whois.targeteddropcatchllc.com'
p821
I74
sS'whois.pipelinedomains.com'
p822
I64
sS'whois.namesexpressllc.com'
p823
I79
sS'whois.register4less.com'
p824
I4357
sS'whois.soaringeagledomains.com'
p825
I64
sS'whois.namesnapllc.com'
p826
I82
sS'whois.zincdomainnamesllc.com'
p827
I89
sS'whois.enommx.com'
p828
I21
sS'whois.netart-registrar.com'
p829
I4721
sS'whois.kheweul.org'
p830
I89
sS'whois.freshbreweddomains.com'
p831
I178
sS'whois.frontstreetdomains.com'
p832
I196
sS'whois.supernameworld.com'
p833
I4
sS'whois.kh86.cn'
p834
I24
sS'whois.inames.co.kr'
p835
I9415
sS'whois.ovh.com'
p836
I101697
sS'whois.domaintimemachine.com'
p837
I168
sS'whois.allglobalnames.com'
p838
I181
sS'whois.atlanticfriendnames.com'
p839
I217
sS'whois.winnamesllc.com'
p840
I83
sS'whois.todaynic.com'
p841
I5034
sS'whois.prodomaines.com'
p842
I376
sS'whois.gesloten.cw'
p843
I12
sS'whois.alethiadomains.com'
p844
I71
sS'whois.sawbuck.com'
p845
I211
sS'whois.domains.co.za'
p846
I505
sS'whois.interlakenames.com'
p847
I195
sS'whois.pheenix.com'
p848
I10243
sS'whois.domainmonkeys.com'
p849
I51
sS'whois.godomaingo.com'
p850
I41
sS'whois.skykomishdomains.com'
p851
I207
sS'whois.riptidedomains.com'
p852
I69
sS'whois.neudomain.com'
p853
I1497
sS'grs-whois.hichina.com'
p854
I145770
sS'whois.scip.es'
p855
I6475
sS'whois.registermatrix.com'
p856
I55
sS'whois.regtons.com'
p857
I6482
sS'whois.pocketdomain.com'
p858
I602
sS'whois.enom387.com'
p859
I25
sS'whois.domaincapitan.com'
p860
I192
sS'whois.webtechnames.com'
p861
I52
sS'whois.domaindiscover.com'
p862
I38319
sS'whois.haveaname.com'
p863
I1628
sS'whois.enom451.com'
p864
I27
sS'whois.atomicdomainnames.com'
p865
I204
sS'whois.arcticnames.com'
p866
I537
sS'whois.enomtoo.com'
p867
I31
sS'whois.domainstopoverllc.com'
p868
I70
sS'whois.domainclub.com'
p869
I2838
sS'whois.enoma1.com'
p870
I26
sS'whois.domainarmada.com'
p871
I189
sS'whois.oldetymedomains.com'
p872
I54
sS'whois.enom469.com'
p873
I25
sS'whois.cps-datensysteme.de'
p874
I3679
sS'whois.domainsprouts.com'
p875
I165
sS'whois.kqw.com'
p876
I565
sS'whois.namesnapperllc.com'
p877
I83
sS'whois.namefull.com'
p878
I482
sS'whois.ownregistrar.com'
p879
I630
sS'whois.dyndns.com'
p880
I6998
sS'whois.net-chinese.com.tw'
p881
I2004
sS'whois.web.com'
p882
I48327
sS'whois.hosteur.com'
p883
I1148
sS'whois.nic.ae'
p884
I21
sS'whois.enomsky.com'
p885
I24
sS'whois.yellowstart.com'
p886
I14
sS'whois.enom647.com'
p887
I27
sS'whois.hostnameservices.net'
p888
I87
sS'whois.oray.com'
p889
I1462
sS'whois.ilovewww.com'
p890
I559
sS'whois.nerdnames.com'
p891
I35
sS'whois.atlanticdomainsllc.com'
p892
I192
sS'whois.http.net'
p893
I3880
sS'whois.paycenter.com.cn'
p894
I74328
sS'whois.enom437.com'
p895
I32
sS'whois.net4domains.com'
p896
I9481
sS'whois.dynadot14.com'
p897
I4
sS'whois.tigersharkdomains.com'
p898
I66
sS'whois.enomau.com'
p899
I63
sS'whois.coolbreezedomains.com'
p900
I73
sS'whois.udamain.com'
p901
I198
sS'whois.enom1036.com'
p902
I27
sS'whois.desertsanddomains.com'
p903
I74
sS'whois.domainpickupllc.com'
p904
I92
sS'whois.wildwestdomains.com'
p905
I251603
sS'whois.dynadot17.com'
p906
I1
sS'whois.netzone.ch'
p907
I10
sS'whois.domainprocessor.com'
p908
I196
sS'whois.gooddomainregistry.com'
p909
I881
sS'whois.hawthornedomains.com'
p910
I198
sS'whois.rrpproxy.net'
p911
I112276
sS'whois.cdmon.com'
p912
I7646
sS'whois.namebright.com'
p913
I510626
sS'whois.directnic.com'
p914
I61151
sS'whois.enom391.com'
p915
I19
sS'whois.dns-net.de'
p916
I414
sS'whois.ipmirror.com'
p917
I1990
sS'whois.silverbackdomains.com'
p918
I236
sS'whois.groundinternet.com'
p919
I2
sS'whois.leatherneckdomains.com'
p920
I83
sS'whois.plisk.com'
p921
I100
sS'whois.enom459.com'
p922
I25
sS'nswhois.domainregistry.com'
p923
I859
sS'whois.tppinternet.com'
p924
I1602
sS'whois.domainhawks.net'
p925
I162
sS'whois.domainz.com'
p926
I48
sS'whois.easystreetdomain.com'
p927
I63
sS'whois.jumpshotdomainsllc.com'
p928
I84
sS'whois.shiningstardomains.com'
p929
I62
sS'whois.jungbo.net'
p930
I203
sS'whois.website.ws'
p931
I414
sS'whois.nayana.com'
p932
I359
sS'whois.pananames.com'
p933
I1510
sS'whois.webmasters.com'
p934
I1326
sS'whois.ethosdomains.com'
p935
I72
sS'whois.namevolcano.com'
p936
I209
sS'whois.gamefornames.com'
p937
I6
sS'whois.enom1038.com'
p938
I30
sS'whois.007names.com'
p939
I829
sS'whois.nicline.com'
p940
I34765
sS'whois.lakeodomains.com'
p941
I173
sS'whois.lexsynergy.com'
p942
I841
sS'whois.mindsandmachines.com'
p943
I1
sS'whois.nominate.net'
p944
I857
sS'whois.batdomains.com'
p945
I15
sS'whois.enom405.com'
p946
I18
sS'whois.domaincontext.com'
p947
I1114
sS'whois.volusion.com'
p948
I420
sS'whois.enomx.com'
p949
I29
sS'whois.enomate.com'
p950
I31
sS'whois.domainnamebridge.com'
p951
I501
sS'whois.1hostaustralia.com'
p952
I166
sS'whois.rainydaydomains.com'
p953
I219
sS'whois.domainmap.com'
p954
I254
sS'whois.vodien.com'
p955
I708
sS'whois.advancedregistrar.com'
p956
I9059
sS'whois.domainsexpressllc.com'
p957
I83
sS'whois.eurodns.com'
p958
I16201
sS'whois.ripcurldomains.com'
p959
I79
sS'whois.coolrivernames.com'
p960
I81
sS'whois.namesalacarte.com'
p961
I209
sS'whois.alpinedomains.com'
p962
I15543
sS'whois.papaki.gr'
p963
I1103
sS'whois.enom2.com'
p964
I20
sS'whois.domainsetcllc.com'
p965
I79
sS'whois.asaplatform.info'
p966
I6
sS'whois.domainsareforever.net'
p967
I193
sS'whois.sicherregister.com'
p968
I29
sS'whois.epik.com'
p969
I22152
sS'whois.hangingcurvedomainsllc.com'
p970
I87
sS'whois.ledl.net'
p971
I729
sS'whois.enom656.com'
p972
I29
s.