(dp0
S'whois.gabia.com'
p1
I82135
sS'whois.dagnabit.biz'
p2
I83
sS'whois.titanichosting.com'
p3
I41
sS'whois.domainsoforigin.com'
p4
I218
sS'whois.enom1008.com'
p5
I60
sS'whois.dynadot15.com'
p6
I15
sS'whois.draftpickdomainsllc.com'
p7
I274
sS'whois.fairtradedomains.com'
p8
I214
sS'whois.hkdns.hk'
p9
I18025
sS'whois.domainguardians.com'
p10
I839
sS'whois.namegear.co'
p11
I118
sS'whois.namesonthedropllc.com'
p12
I276
sS'whois.lczybj.com'
p13
I42
sS'whois.deepdivedomains.com'
p14
I207
sS'whois.unifiedservers.com'
p15
I58
sS'whois.dandomain.dk'
p16
I2428
sS'whois.registrar.telekom.de'
p17
I29859
sS'whois.internetdomainnameregistrar.org'
p18
I338
sS'whois.enom453.com'
p19
I102
sS'whois.upperlink.ng'
p20
I171
sS'whois.domainband.com'
p21
I44
sS'whois.no-ip.com'
p22
I7870
sS'whois.markbark.com'
p23
I93
sS'whois.zitian.cn'
p24
I803
sS'whois.mvpdomainnames.com'
p25
I687
sS'whois.znetlive.com'
p26
I4113
sS'whois.domainname.com'
p27
I1105
sS'whois.rethemhosting.net'
p28
I201
sS'whois.sdc.org.cn'
p29
I2
sS'whois.mijninternetoplossing.nl'
p30
I6368
sS'whois.nicco.com'
p31
I12057
sS'whois.your-server.de'
p32
I32187
sS'whois.enom407.com'
p33
I78
sS'whois.domainraker.net'
p34
I569
sS'whois.crispnames.com'
p35
I39
sS'whois.klaatudomains.com'
p36
I588
sS'whois.hotdomaintrade.com'
p37
I41
sS'whois.snappyregistrar.com'
p38
I591
sS'whois.sssasss.com'
p39
I95
sS'whois.enom652.com'
p40
I75
sS'whois.wideleftdomainsllc.com'
p41
I240
sS'whois.nawang.cn'
p42
I3110
sS'whois.freedivedomains.com'
p43
I237
sS'whois.domdrill.com'
p44
I971
sS'whois.oregonurls.com'
p45
I603
sS'whois.register.ca'
p46
I6417
sS'whois.above.com'
p47
I38468
sS'whois.enom650.com'
p48
I101
sS'whois.deepwaterdomainsllc.com'
p49
I288
sS'whois.metaregistrar.com'
p50
I74
sS'whois.briarwoodtechnologies.com'
p51
I214
sS'whois.domainsalsa.com'
p52
I577
sS'whois.registrarmanager.com'
p53
I63
sS'whois.domaingazelle.com'
p54
I648
sS'whois.promopeople.com'
p55
I1699
sS'whois.exclusivedomainfindllc.com'
p56
I305
sS'whois.enom.com'
p57
I3206878
sS'whois.golddomainnamesllc.com'
p58
I262
sS'whois.gkg.net'
p59
I39992
sS'whois.interdominios.com'
p60
I8565
sS'whois.french-connexion.com'
p61
I519
sS'whois.biglizarddomains.com'
p62
I668
sS'whois.dynadot16.com'
p63
I12
sS'whois.networking4all.com'
p64
I2682
sS'whois.goldminedomainsllc.com'
p65
I254
sS'who.planethoster.net'
p66
I958
sS'whois.enom1009.com'
p67
I95
sS'whois.instinctsolutions.com'
p68
I41
sS'whois.enom421.com'
p69
I67
sS'whois.alfena.com'
p70
I789
sS'whois.bigdomainshop.com'
p71
I49
sS'whois.enom666.com'
p72
I75
sS'whois.apisrs.com'
p73
I1958
sS'whois.tradewindsnames.com'
p74
I170
sS'whois.rebel.com'
p75
I55855
sS'whois.gandi.net'
p76
I246190
sS'whois.cn.hooyoo.com'
p77
I2020
sS'whois.boterosolutions.net'
p78
I2
sS'whois.netcn.net'
p79
I2
sS'whois.tname.com'
p80
I50
sS'whois.brandma.com'
p81
I9
sS'whois.oregoneu.com'
p82
I559
sS'whois.hostingservicesinc.net'
p83
I1912
sS'whois.gotodomainsllc.com'
p84
I279
sS'whois.netjuggler.com'
p85
I50
sS'whois.whiterhinodomains.com'
p86
I195
sS'whois.blueangeldomainsllc.com'
p87
I227
sS'whois.fastdomain.com'
p88
I450731
sS'whois.corehub.net'
p89
I65231
sS'whois.asiadomains.biz'
p90
I74
sS'whois.midwestdomainsllc.com'
p91
I674
sS'whois.intlregistrationservices.com'
p92
I203
sS'whois.enomgmpservices.com'
p93
I77
sS'whois.deletingnamezonellc.com'
p94
I253
sS'whois.oldworldaliases.com'
p95
I576
sS'whois.domus-llc.com'
p96
I5324
sS'whois.gochinadomains.com'
p97
I20986
sS'whois.enom672.com'
p98
I74
sS'whois.nordreg.com'
p99
I2625
sS'whois.asiaregister.com'
p100
I419
sS'whois.enom425.com'
p101
I87
sS'whois.namepal.com'
p102
I27262
sS'whois.sourceddomains.com'
p103
I215
sS'whois.pairnic.com'
p104
I32540
sS'whois.pdxprivatenames.com'
p105
I652
sS'whois.freefalldomainsllc.com'
p106
I269
sS'whois.slamdunkdomainsllc.com'
p107
I250
sS'Whois.magnoliadomains.com'
p108
I207
sS'whois.enom449.com'
p109
I86
sS'whois.domainlifestlye.com'
p110
I241
sS'whois.allworldnames.com'
p111
I630
sS'whois.registrar.amazon.com'
p112
I11239
sS'whois.discount-domain.com'
p113
I616548
sS'whois.hoapdi-inc.com'
p114
I112
sS'whois.afriregister.com'
p115
I138
sS'whois.barracudadomains.com'
p116
I213
sS'whois.aitdomains.com'
p117
I21030
sS'whois.yiyu.com'
p118
I2383
sS'whois.deschutesdomains.com'
p119
I101
sS'whois.puritynames.com'
p120
I91
sS'whois.domaingrabberllc.com'
p121
I267
sS'whois.needservers.com'
p122
I38
sS'whois.internetters.co.uk'
p123
I5587
sS'whois.enom389.com'
p124
I85
sS'whois.namesourcellc.com'
p125
I275
sS'whois2.softlayer.com'
p126
I88
sS'whois.domainroyale.com'
p127
I109
sS'whois.webnames.ca'
p128
I16155
sS'whois.goldenfinddomainsllc.com'
p129
I273
sS'whois.sammamishdomains.com'
p130
I588
sS'whois.domainplacellc.com'
p131
I235
sS'whois.enom377.com'
p132
I94
sS'whois.alpnames.com'
p133
I658
sS'whois.virtualregistrar.com'
p134
I1714
sS'whois.idindi.com'
p135
I82
sS'whois.namware.com'
p136
I40
sS'whois.victorynamesllc.com'
p137
I265
sS'whois.22.cn'
p138
I77050
sS'whois.enom646.com'
p139
I89
sS'whois.bluefractal.com'
p140
I51
sS'whois.svenskadomaner.se'
p141
I162
sS'whois.dynadot13.com'
p142
I7
sS'whois.ourdomains.com'
p143
I4590
sS'whois.interdomain.net'
p144
I47738
sS'whois.enom419.com'
p145
I84
sS'whois.threepointdomainsllc.com'
p146
I258
sS'whois.magicfriday.com'
p147
I49
sS'whois.registrar.eu'
p148
I57972
sS'whois.networksavior.com'
p149
I45
sS'whois.safenames.net'
p150
I32478
sS'whois.google.com'
p151
I107954
sS'whois.heavydomains.net'
p152
I599
sS'whois.eurotrashnames.com'
p153
I595
sS'whois.nicproxy.com'
p154
I44441
sS'whois.neonic.com'
p155
I3040
sS'whois.enom1037.com'
p156
I111
sS'whois.cnolnic.com'
p157
I22576
sS'whois.findgooddomains.com'
p158
I36
sS'whois.turbosite.com.br'
p159
I17
sS'whois.bomboraregistrar.com'
p160
I1
sS'whois.NameWeb.biz'
p161
I9283
sS'whois.misternic.com'
p162
I4958
sS'whois.commerceisland.com'
p163
I932
sS'whois.adomainofyourown.com'
p164
I692
sS'whois.enom1035.com'
p165
I85
sS'whois.enom655.com'
p166
I94
sS'whois.blisternet.net'
p167
I84
sS'whois.doregi.com'
p168
I6098
sS'whois.freespiritdomains.com'
p169
I233
sS'whois.domerati.com'
p170
I48
sS'whois.copperdomainnamesllc.com'
p171
I288
sS'whois.freenom.com'
p172
I544
sS'whois.hostinger.com'
p173
I3674
sS'whois.domainsoftheworld.net'
p174
I603
sS'whois.distributeit.com.au'
p175
I22414
sS'whois.gradeadomainnames.com'
p176
I599
sS'whois.websitesource.com'
p177
I516
sS'whois.namesecure.com'
p178
I43128
sS'whois.domainnameorigin.com'
p179
I235
sS'whois.toppicknamesllc.com'
p180
I252
sS'whois.domainsecurellc.com'
p181
I256
sS'whois.suempresa.com'
p182
I4117
sS'whois.circleofdomainsllc.com'
p183
I262
sS'whois.domainsatcost.ca'
p184
I18699
sS'whois.enom1013.com'
p185
I75
sS'whois.domainjungle.net'
p186
I590
sS'whois.webbusiness.biz'
p187
I91
sS'whois.enom4.com'
p188
I84
sS'whois.signdomains.com'
p189
I1782
sS'whois.sudu.cn'
p190
I8364
sS'whois.wildzebradomains.com'
p191
I172
sS'whois.names4ever.com'
p192
I72289
sS'whois.inlanddomainsllc.com'
p193
I665
sS'whois.dotearth.com'
p194
I5599
sS'whois.enom455.com'
p195
I77
sS'whois.moonshotdomains.com'
p196
I234
sS'whois.sterlingdomainsllc.com'
p197
I266
sS'whois.ekados.com'
p198
I231
sS'whois.tigertech.net'
p199
I5502
sS'whois.domainsails.net'
p200
I540
sS'whois.imminentdomains.net'
p201
I614
sS'whois.silverdomainnamesllc.com'
p202
I274
sS'whois.fujiandomains.com'
p203
I2408
sS'whois.enom417.com'
p204
I84
sS'whois.enom447.com'
p205
I75
sS'whois.zenregistry.com'
p206
I2791
sS'whois.namecamp.com'
p207
I1
sS'whois.rockenstein.de'
p208
I1245
sS'whois.portlandnames.com'
p209
I108
sS'whois.domaininfo.com'
p210
I8712
sS'whois.enom399.com'
p211
I82
sS'whois.51web.hk'
p212
I3243
sS'whois.whitealligatordomains.com'
p213
I201
sS'whois.enom441.com'
p214
I70
sS'whois.enom662.com'
p215
I95
sS'whois.enom445.com'
p216
I99
sS'whois.enom1033.com'
p217
I83
sS'whois.snoqulamiedomains.com'
p218
I650
sS'whois.enomten.com'
p219
I86
sS'whois.domainoriginal.com'
p220
I225
sS'whois.domainsofcourse.com'
p221
I586
sS'whois.gatekeeperdomains.net'
p222
I624
sS'whois.misk.com'
p223
I12293
sS'whois.enom403.com'
p224
I86
sS'whois.lemonsharkdomains.com'
p225
I203
sS'whois.domainstreetdirect.com'
p226
I727
sS'whois.bighouseservices.com'
p227
I84
sS'whois.ccdomain.co.kr'
p228
I2619
sS'whois.isimtescil.net'
p229
I60324
sS'whois.housofdomains.com'
p230
I219
sS'whois.euturbo.com'
p231
I680
sS'whois.dnspod.com'
p232
I876
sS'whois.enom1014.com'
p233
I67
sS'whois.nameconnectionspotllc.com'
p234
I233
sS'whois.domainjamboreellc.com'
p235
I196
sS'whois.netim.com'
p236
I1948
sS'whois.genious.net'
p237
I748
sS'whois.pavietnam.vn'
p238
I7837
sS'whois.registrygate.com'
p239
I94685
sS'whois.zw.cn'
p240
I67
sS'whois.threadagent.com'
p241
I1646
sS'whois.nametofame.com'
p242
I39
sS'whois.joker.com'
p243
I120289
sS'whois.bookmyidentity.com'
p244
I28
sS'whois.namesaplentyllc.com'
p245
I266
sS'whois.protondomains.com'
p246
I623
sS'whois.eNom385.com'
p247
I78
sS'whois.powercarrier.com'
p248
I40
sS'whois.swordfishdomainsllc.com'
p249
I225
sS'whois.enom429.com'
p250
I83
sS'whois.myobnet.com'
p251
I110
sS'whois.soldierofonedomains.com'
p252
I184
sS'whois.domainlandingzonellc.com'
p253
I250
sS'whois.riktad.se'
p254
I335
sS'whois.alices-registry.com'
p255
I367
sS'whois.gofrancedomains.com'
p256
I22005
sS'whois.freeparking.co.uk'
p257
I9944
sS'whois.sfn.cn'
p258
I1635
sS'whois.octopusdomains.net'
p259
I575
sS'whois.domainsoftheday.net'
p260
I577
sS'whois.cloudflare.com'
p261
I28
sS'whois.meganamesllc.com'
p262
I269
sS'whois.dynadot5.com'
p263
I1124
sS'whois.gomontenegrodomains.com'
p264
I20433
sS'whois.ownidentity.com'
p265
I1407
sS'whois.namefindsourcellc.com'
p266
I298
sS'whois.tropicregistry.com'
p267
I34
sS'whois.launchpad.com'
p268
I54687
sS'whois.onlide.com'
p269
I3
sS'whois.hupo.com'
p270
I1022
sS'whois.visualmonster.com'
p271
I53
sS'whois.iconicnamesllc.com'
p272
I274
sS'whois.twt.it'
p273
I234
sS'whois.fetchregistrar.com'
p274
I219
sS'whois.2imagen.net'
p275
I695
sS'whois.sibername.com'
p276
I4944
sS'whois.slowputtdomainsllc.com'
p277
I254
sS'whois.namebay.com'
p278
I39758
sS'whois.namesstopherellc.com'
p279
I275
sS'whois.moniker.com'
p280
I224473
sS'whois.domainsite.com'
p281
I40496
sS'whois.domainnamedriveway.com'
p282
I1495
sS'whois.planetdomain.com'
p283
I20590
sS'whois.bestdropnamesllc.com'
p284
I253
sS'whois.eagleeyedomains.com'
p285
I211
sS'whois.ssandomain.com'
p286
I2462
sS'whois.xiamendomains.com'
p287
I1823
sS'whois.nameconnectionareallc.com'
p288
I545
sS'whois.enom397.com'
p289
I85
sS'whois.domainclip.com'
p290
I1461
sS'whois.bluerazor.com'
p291
I23585
sS'whois.enom371.com'
p292
I94
sS'whois.dynadot3.com'
p293
I1189
sS'whois.firstroundnamesllc.com'
p294
I265
sS'whois.topleveldomainsllc.com'
p295
I251
sS'whois.retailstudio.com'
p296
I5384
sS'whois.annulet.com'
p297
I162473
sS'whois2.domain.com'
p298
I9863
sS'whois.netestate.com'
p299
I4581
sS'whois.reg.com'
p300
I12592
sS'whois.dotroll.com'
p301
I1896
sS'whois.namegrabllc.com'
p302
I279
sS'whois.desertdevil.com'
p303
I4
sS'whois.domaincatcherllc.com'
p304
I271
sS'whois.domainmonster.com'
p305
I7
sS'whois.binero.se'
p306
I9759
sS'whois.domaincollage.com'
p307
I225
sS'whois.liquidnetlimited.com'
p308
I19261
sS'whois.oldtowndomains.com'
p309
I701
sS'whois.eastenddomainsllc.com'
p310
I652
sS'whois.platinumregistrar.com'
p311
I46
sS'whois.hebeidomains.com'
p312
I16780
sS'whois.udag.net'
p313
I109202
sS'whois.hosting.kr'
p314
I73358
sS'whois.paragonnames.net'
p315
I6480
sS'whois.domaininthebasket.com'
p316
I595
sS'whois.dynadot4.com'
p317
I1385
sS'whois.thirdroundnamesllc.com'
p318
I247
sS'whois.riptidedomains.com'
p319
I191
sS'whois.extranetdeclientes.com'
p320
I19892
sS'whois.duckbilleddomains.com'
p321
I580
sS'whois.trafficnames.net'
p322
I80
sS'whois.nameisp.com'
p323
I6636
sS'whois.tradeindia.com'
p324
I1504
sS'whois.aquariusdomains.com'
p325
I204
sS'whois.domain1source.com'
p326
I64
sS'whois.yoursrs.com'
p327
I65036
sS'whois.encirca.com'
p328
I680
sS'WHOIS.squidsailerdomains.com'
p329
I200
sS'whois.goaustraliadomains.com'
p330
I22961
sS'whois.pearlnamingservice.com'
p331
I596
sS'whois.pacificdomainsllc.com'
p332
I651
sS'whois.lws.net'
p333
I1398
sS'whois.1isi.com'
p334
I436
sS'whois.webnames.ru'
p335
I5860
sS'whois.softlayer.com'
p336
I22254
sS'whois.domainparkblock.com'
p337
I588
sS'whois.dynadot7.com'
p338
I1199
sS'whois.majorleaguedomains.com'
p339
I207
sS'whois.nameselite.com'
p340
I196
sS'whois.hangtendomains.com'
p341
I217
sS'whois.raregemdomainsllc.com'
p342
I271
sS'whois.catchdeletingnamesllc.com'
p343
I248
sS'whois.communigal.net'
p344
I14196
sS'whois.dynadot12.com'
p345
I1045
sS'whois.nameking.com'
p346
I48193
sS'whois.akky.mx'
p347
I2360
sS'whois.bizcn.com'
p348
I108614
sS'whois.domainshype.com'
p349
I2326
sS'whois.azprivatez.com'
p350
I13507
sS'whois.openname.com'
p351
I3875
sS'whois.azdomainz.com'
p352
I14279
sS'whois.enom413.com'
p353
I84
sS'whois.hostingireland.ie'
p354
I1124
sS'whois.z-core.com'
p355
I77
sS'whois.storkregistry.com'
p356
I43
sS'whois.domainestaaqui.com'
p357
I223
sS'whois.eb.com.cn'
p358
I1153
sS'whois.lcn.com'
p359
I29523
sS'whois.global-village.de'
p360
I2421
sS'whois.namethread.com'
p361
I97
sS'whois.gonbei.jp'
p362
I1905
sS'whois.ilait.com'
p363
I523
sS'whois.pierx.co'
p364
I4
sS'whois.snagyournamellc.com'
p365
I233
sS'whois.name.net'
p366
I1844
sS'whois.markmonitor.com'
p367
I207554
sS'whois.maffavenue.com'
p368
I1806
sS'whois.chinanet.cc'
p369
I249
sS'whois.eunamesoregon.com'
p370
I628
sS'whois.enomv.com'
p371
I100
sS'whois.fenominal.com'
p372
I105
sS'whois.domainsovereigns.com'
p373
I612
sS'whois.catalog.com'
p374
I8724
sS'whois.advaloremdomains.com'
p375
I215
sS'whois.internetcap.us'
p376
I132
sS'whois.traveldomainsincorporated.com'
p377
I101
sS'whois.namearsenal.com'
p378
I633
sS'whois.1hostcanada.com'
p379
I542
sS'whois.enom443.com'
p380
I93
sS'whois.enom661.com'
p381
I84
sS'whois.porkbun.com'
p382
I566
sS'whois.webnic.cc'
p383
I75155
sS'whois.topshelfdomainsllc.com'
p384
I243
sS'whois.domainamania.com'
p385
I578
sS'whois.enomfor.com'
p386
I98
sS'whois.enom635.com'
p387
I100
sS'whois.worldbizdomains.com'
p388
I154
sS'whois.eNom393.com'
p389
I87
sS'whois.gocanadadomains.com'
p390
I21622
sS'whois.internet.bs'
p391
I104151
sS'whois.enomnz.com'
p392
I104
sS'whois.turbonamesllc.com'
p393
I267
sS'whois.devildogdomains.com'
p394
I534
sS'whois.domainingoro.com'
p395
I238
sS'whois.reg.cn'
p396
I29
sS'whois.cirs.us'
p397
I245
sS'whois.enom663.com'
p398
I89
sS'whois.dn.com'
p399
I170
sS'whois.enom1012.com'
p400
I78
sS'whois.registrationtek.com'
p401
I2440
sS'whois.nameemperor.com'
p402
I626
sS'whois.enom375.com'
p403
I67
sS'whois.domaincomesaround.com'
p404
I622
sS'whois.dropcatchmarketplacellc.com'
p405
I280
sS'whois.techtyrants.com'
p406
I38
sS'whois.ename.com'
p407
I192769
sS'whois.rumahweb.com'
p408
I6090
sS'whois.linedrivedomains.com'
p409
I193
sS'whois.flancrestdomains.com'
p410
I572
sS'whois.psi.jp'
p411
I6163
sS'whois.sitefrenzy.com'
p412
I621
sS'whois.domainsurgeon.com'
p413
I655
sS'whois.youdamain.com'
p414
I606
sS'whois.authenticweb.com'
p415
I276
sS'whois.fabulous.com'
p416
I501401
sS'whois.domainsourcellc.com'
p417
I253
sS'whois.unpower.com'
p418
I54
sS'whois.ladasdomains.com'
p419
I1304
sS'whois.luckyelephantdomains.com'
p420
I193
sS'whois.ccireg.com'
p421
I2373
sS'whois.crystalcoal.com'
p422
I99
sS'whois.dotmedia.com'
p423
I1969
sS'whois.dns.com.cn'
p424
I80489
sS'whois.nicreg.com'
p425
I8040
sS'whois.toglodo.com'
p426
I115
sS'whois.everreadynames.com'
p427
I29
sS'whois.dattatec.com'
p428
I17044
sS'whois.namecroc.com'
p429
I601
sS'whois.enom1034.com'
p430
I93
sS'whois.burnsidedomains.com'
p431
I639
sS'whois.eranet.com'
p432
I344
sS'whois.cronon.net'
p433
I219101
sS'whois.domainyeti.com'
p434
I608
sS'whois.gungagalunga.biz'
p435
I87
sS'whois.catchdomainsllc.com'
p436
I243
sS'whois.rankusa.com'
p437
I964
sS'whois.namesilo.com'
p438
I146405
sS'whois.1and1.com'
p439
I1327027
sS'whois.nictrade.se'
p440
I3865
sS'whois.comlaude.com'
p441
I13038
sS'whois.ascio.com'
p442
I370887
sS'whois.backslapdomains.com'
p443
I803
sS'whois.yourdomainking.com'
p444
I41
sS'whois.endeavourdomains.com'
p445
I231
sS'whois.vedacore.com'
p446
I16
sS'whois.snapsourcellc.com'
p447
I273
sS'whois.bonamfortunamdomains.com'
p448
I214
sS'whois.magnatedomains.com'
p449
I208
sS'whois.dynanames.com'
p450
I1
sS'whois.yourdomainllc.com'
p451
I287
sS'whois.deepseadomainsllc.com'
p452
I267
sS'whois.streamlinedomains.com'
p453
I214
sS'whois.coolocean.com'
p454
I42
sS'whois.eunameflood.com'
p455
I536
sS'whois.naugus.com'
p456
I3254
sS'whois.srsplus.com'
p457
I75695
sS'whois.enetica.com.au'
p458
I7196
sS'whois.8hy.cn'
p459
I952
sS'whois.savethename.com'
p460
I572
sS'whois.maprilis.com.vn'
p461
I52845
sS'whois.dynadot11.com'
p462
I956
sS'whois.enom5.com'
p463
I86
sS'whois.thedomainsllc.com'
p464
I261
sS'whois.soyouwantadomain.com'
p465
I702
sS'whois.belmontdomains.com'
p466
I713
sS'whois.gozerdomains.com'
p467
I651
sS'whois.register.eu'
p468
I4134
sS'whois.web4africa.net'
p469
I897
sS'whois.corporatedomains.com'
p470
I302249
sS'whois.neubox.com'
p471
I6802
sS'whois.namecentral.com'
p472
I1
sS'whois.sbsnames.com'
p473
I98
sS'whois.enom373.com'
p474
I82
sS'whois.retaildomains.net'
p475
I99
sS'whois.flappydomain.com'
p476
I2232
sS'whois.biwo.com'
p477
I1573
sS'whois.eztimesdomains.com'
p478
I210
sS'whois.enom409.com'
p479
I90
sS'whois.yesnic.com'
p480
I25820
sS'whois.nameiconllc.com'
p481
I277
sS'whois.netlogistics.com.au'
p482
I424
sS'whois.west263.com'
p483
I50794
sS'whois.domains.domreg.lt'
p484
I269
sS'whois.registrarsec.com'
p485
I3
sS'whois.alldomainsllc.com'
p486
I286
sS'whois.chocolatechipdomains.com'
p487
I208
sS'whois.onlinenic.com'
p488
I180879
sS'whois.sliceofheavendomains.com'
p489
I178
sS'whois.europeanconnectiononline.com'
p490
I631
sS'comnet-whois.humeia.com'
p491
I1020
sS'whois.longdrivedomainsllc.com'
p492
I263
sS'whois.namemaster.de'
p493
I745
sS'whois.searchnresq.com'
p494
I99
sS'whois.smallbusinessnamescerts.com'
p495
I75
sS'whois.sdsns.com'
p496
I596
sS'whois.puredomain.com'
p497
I5429
sS'whois.fushitarazu.com'
p498
I89
sS'whois.62.net'
p499
I3627
sS'whois.cnkuai.com'
p500
I1
sS'whois.entrustdomains.com'
p501
I203
sS'whois.instra.net'
p502
I12815
sS'vividwhois.vividdomains.com'
p503
I197
sS'whois.1hostjapan.com'
p504
I584
sS'whois.netzadresse.at'
p505
I35
sS'whois.pinkelephantdomains.com'
p506
I197
sS'whois.domainnamefwy.com'
p507
I1909
sS'whois.crazydomains.com'
p508
I58673
sS'whois.melbourneit.com'
p509
I68555
sS'whois.dropcatchingnamesllc.com'
p510
I255
sS'whois.tldregistrarsolutions.com'
p511
I25492
sS'whois.webinfinityinc.com'
p512
I189
sS'whois.domainsoverboard.com'
p513
I645
sS'whois.v12domains.com'
p514
I178
sS'whois.enom427.com'
p515
I82
sS'whois.iserveyourdomain.com'
p516
I606
sS'whois.iaregistry.com'
p517
I6421
sS'whois.35.com'
p518
I87277
sS'whois.cloudninedomains.com'
p519
I231
sS'whois.findyouadomain.com'
p520
I398
sS'whois.nic.ru'
p521
I30342
sS'whois.omnis.com'
p522
I29102
sS'whois.eNom383.com'
p523
I80
sS'com.whois.ods.vn'
p524
I66
sS'whois.enom463.com'
p525
I95
sS'whois.domainthenet.com'
p526
I5935
sS'whois.atakteknoloji.com'
p527
I2578
sS'whois.dropoutlet.com'
p528
I76
sS'whois.domainnovations.com'
p529
I97
sS'whois.namesourcedomains.com'
p530
I209
sS'whois.backstopnamesllc.com'
p531
I238
sS'whois.fastballdomainsllc.com'
p532
I267
sS'whois.coralreefdomainsllc.com'
p533
I242
sS'whois.tirupatidomains.in'
p534
I5768
sS'Whois.web.com'
p535
I1829
sS'whois.inic.ch'
p536
I1187
sS'whois.domainsnapperllc.com'
p537
I258
sS'whois.gooddns.com'
p538
I8
sS'whois.sharkweekdomainsllc.com'
p539
I269
sS'whois.domaincirclellc.com'
p540
I267
sS'whois.domaindropsllc.com'
p541
I266
sS'whois.nordnet.net'
p542
I39746
sS'whois.lionsharedomains.com'
p543
I183
sS'whois.dharanadomains.com'
p544
I186
sS'whois.afterdarkdomainsincorporated.com'
p545
I78
sS'ewhois.sundns.com'
p546
I9158
sS'whois.domainerschoice.com'
p547
I4041
sS'whois.tag-domains.com'
p548
I60
sS'whois.noteworthydomains.com'
p549
I209
sS'whois.iana.org'
p550
I15
sS'whois.bottledomains.com'
p551
I1114
sS'whois.domainmantra.com'
p552
I54
sS'whois.enom1010.com'
p553
I85
sS'whois.anchovy.com'
p554
I208
sS'whois.findyouaname.com'
p555
I602
sS'whois.domaincentre.ca'
p556
I30
sS'whois.dynadot10.com'
p557
I1024
sS'whois.curiousnet.com'
p558
I43
sS'whois.domaininthehole.com'
p559
I607
sS'whois.onlinenameservices.com'
p560
I189
sS'whois.extrathreads.com'
p561
I105
sS'whois.topsystem.com'
p562
I4981
sS'whois.domainnamepath.com'
p563
I1655
sS'whois.enom379.com'
p564
I78
sS'whois.millennialnamesllc.com'
p565
I260
sS'whois.pararescuedomains.com'
p566
I195
sS'whois.dynadot9.com'
p567
I1018
sS'whois.resellercamp.com'
p568
I13239
sS'whois.layupdomainsllc.com'
p569
I272
sS'whois.ukrnames.com'
p570
I4015
sS'whois.topvhost.net'
p571
I1280
sS'whois.dynadot.com'
p572
I168421
sS'whois.profilebuilder.com'
p573
I21058
sS'whois.123-reg.co.uk'
p574
I249421
sS'whois.fiducia.lv'
p575
I2909
sS'whois.domainalacarte.com'
p576
I216
sS'whois.iisp.com'
p577
I4316
sS'whois.domaincentral.com.au'
p578
I3609
sS'whois.domainadministration.com'
p579
I41961
sS'whois.1198.cn'
p580
I142
sS'whois.domainshopllc.com'
p581
I235
sS'whois.dropcatchminingllc.com'
p582
I253
sS'whois.enomau.com'
p583
I193
sS'whois.getyername.com'
p584
I422
sS'whois.neworderdomains.com'
p585
I180
sS'whois.namespro.ca'
p586
I6095
sS'whois.namecatchzonellc.com'
p587
I260
sS'whois.glideslopedomains.com'
p588
I223
sS'whois.domainnameparkway.com'
p589
I3
sS'whois.namemax.cn'
p590
I314
sS'whois.enterprice.net'
p591
I65891
sS'whois.activeregistrar.com'
p592
I16384
sS'whois.1hostchina.com'
p593
I561
sS'whois.touchdowndomainsllc.com'
p594
I237
sS'whois.domainpeople.com'
p595
I108245
sS'whois.hazeldomains.com'
p596
I1648
sS'whois.betterthanaveragedomains.com'
p597
I616
sS'whois.domain.com'
p598
I522062
sS'whois.nominfinitum.com'
p599
I85
sS'whois.domainregservices.com'
p600
I182
sS'whois.oleane.net'
p601
I13353
sS'whois.king-domains.com'
p602
I87
sS'whois.freestyleholdings.com'
p603
I208
sS'whois.0101domain.com'
p604
I1512
sS'whois.whiteglovedomains.com'
p605
I99
sS'whois.enom659.com'
p606
I98
sS'whois.goodluckdomain.com'
p607
I95
sS'whois.guoxuwang.cn'
p608
I203
sS'whois.sugarcubedomains.com'
p609
I183
sS'whois.extremelywild.com'
p610
I47
sS'whois.imena.ua'
p611
I8694
sS'whois.world4you.com'
p612
I9857
sS'whois.clouddomainregistry.com'
p613
I3019
sS'whois.compuglobalhypermega.com'
p614
I562
sS'whois.psi-usa.info'
p615
I238426
sS'whois.joinup.jp'
p616
I520
sS'whois.columbianames.com'
p617
I615
sS'whois.cndns.cn'
p618
I85
sS'whois.toptierdomainsllc.com'
p619
I245
sS'whois.dotalliance.com'
p620
I862
sS'whois.udamain.com'
p621
I653
sS'whois.zoneofdomainsllc.com'
p622
I259
sS'whois.enom431.com'
p623
I73
sS'whois.kuwaitnet.net'
p624
I709
sS'whois.1api.net'
p625
I87895
sS'whois.bonzaidomains.com'
p626
I223
sS'whois.blacknight.com'
p627
I11053
sS'whois.netdorm.com'
p628
I1928
sS'whois.thirdfloordns.com'
p629
I569
sS'whois.namecheap.com'
p630
I1985
sS'whois.paimi.com'
p631
I748
sS'whois.mobilenameservices.com'
p632
I11
sS'whois.dinahosting.com'
p633
I42063
sS'whois.maff.com'
p634
I40699
sS'grs-whois.cndns.com'
p635
I35056
sS'whois.bookmyname.com'
p636
I44058
sS'whois.sunmounta.in'
p637
I307
sS'whois.dynadot8.com'
p638
I976
sS'whois.secondroundnamesllc.com'
p639
I257
sS'whois.astutium.com'
p640
I1122
sS'whois.serveisweb.com'
p641
I1721
sS'whois.meshdigital.com'
p642
I239114
sS'whois.brennercom.com'
p643
I37
sS'whois.LTNIC.com'
p644
I202
sS'whois.bouncepassdomainsllc.com'
p645
I267
sS'whois.namestopllc.com'
p646
I280
sS'whois.powernamers.com'
p647
I51
sS'whois.seymourdomains.com'
p648
I49
sS'whois.curveballdomainsllc.com'
p649
I252
sS'whois-all.nameshare.com'
p650
I55
sS'whois.gofullhouse.com'
p651
I51
sS'whois.brandnames.com'
p652
I229
sS'whois.domainagent.co.nz'
p653
I904
sS'whois.uniregistrar.com'
p654
I620939
sS'whois2016.jprs.jp'
p655
I94214
sS'whois.ibi.net'
p656
I4537
sS'whois.dreamhost.com'
p657
I198718
sS'whois.ultraregistrar.com'
p658
I44
sS'whois.nominalia.com'
p659
I26438
sS'whois.myorderbox.com'
p660
I71
sS'whois.deerwood.name'
p661
I294
sS'whois.enom3.com'
p662
I94
sS'whois.arabinternetnames.com'
p663
I83
sS'whois.willamettenames.com'
p664
I560
sS'whois.oiinternet.com.br'
p665
I911
sS'whois.slowmotiondomainsllc.com'
p666
I276
sS'whois.ireg.net'
p667
I1024
sS'whois.entorno.com'
p668
I4278
sS'whois-generic.marcaria.com'
p669
I1918
sS'whois.dynadot6.com'
p670
I1035
sS'whois.notsofamousnames.com'
p671
I714
sS'whois.finduaname.com'
p672
I583
sS'whois.dotology.com'
p673
I51
sS'whois.nuxit.com'
p674
I3341
sS'whois.bullrundomains.com'
p675
I581
sS'whois.101domain.com'
p676
I5240
sS'whois.vertexnames.com'
p677
I31
sS'whois.easydns.com'
p678
I21310
sS'whois.enom457.com'
p679
I79
sS'whois.domainrouge.com'
p680
I81
sS'whois.625domains.com'
p681
I54
sS'whois.enom439.com'
p682
I101
sS'whois.extendnames.com'
p683
I38
sS'whois.star-domain.jp'
p684
I20759
sS'whois.enom654.com'
p685
I96
sS'whois.webair.com'
p686
I1871
sS'whois.argotech.us'
p687
I154
sS'whois.gzidc.com'
p688
I14670
sS'whois.domainhysteria.com'
p689
I566
sS'whois.easyspace.com'
p690
I42984
sS'whois.dropcatchlandingspotllc.com'
p691
I247
sS'whois.bigdipperdomains.com'
p692
I219
sS'whois.namefinger.com'
p693
I556
sS'whois.gi.net'
p694
I2082
sS'whois.enom467.com'
p695
I95
sS'whois.namescout.com'
p696
I23934
sS'whois.evonames.com'
p697
I16971
sS'whois.enom435.com'
p698
I78
sS'whois.name.cc'
p699
I101
sS'whois.freedropzonellc.com'
p700
I264
sS'whois.domainlocale.com'
p701
I201
sS'whois.jumboname.com'
p702
I40
sS'whois.mainreg.com'
p703
I45
sS'whois.tucows.com'
p704
I2585235
sS'whois.do-reg.jp'
p705
I11127
sS'WH0IS.POCKETDOMAIN.COM'
p706
I1528
sS'whois.dropcatchauctionllc.com'
p707
I261
sS'whois.domainnamehighway.com'
p708
I2198
sS'whois.enomworld.com'
p709
I87
sS'whois.libris.com'
p710
I13190
sS'whois.enom433.com'
p711
I89
sS'whois.72dns.com'
p712
I6447
sS'whois.domainnameroot.com'
p713
I207
sS'whois.santiamdomains.com'
p714
I648
sS'whois.edong.com'
p715
I6
sS'whois.treasuretrovedomainsllc.com'
p716
I252
sS'whois.domainsouffle.com'
p717
I545
sS'whois.privatedomains.biz'
p718
I78
sS'whois.netregistry.net'
p719
I23762
sS'whois.totalregistrations.com'
p720
I7896
sS'whois.aerotek.com.tr'
p721
I3539
sS'whois.ukraine.com.ua'
p722
I2102
sS'whois.networksolutions.com'
p723
I1887308
sS'whois.wildbunchdomains.com'
p724
I190
sS'whois.eNom461.com'
p725
I107
sS'whois.alantron.com'
p726
I5070
sS'whois.namewinnerllc.com'
p727
I268
sS'whois.domainbazaarllc.com'
p728
I247
sS'whois.secura-gmbh.de'
p729
I1208
sS'whois.domainsinthebag.com'
p730
I551
sS'whois.canyongate.biz'
p731
I257
sS'whois.tigersharkdomains.com'
p732
I201
sS'whois.domainnameblvd.com'
p733
I1641
sS'whois.reg2c.com'
p734
I24396
sS'whois.namepanther.com'
p735
I658
sS'whois.antagus.de'
p736
I79932
sS'whois.netistrar.com'
p737
I65
sS'whois.ghana.com'
p738
I10
sS'whois.savemorenames.com'
p739
I2
sS'whois.enombre.com'
p740
I112
sS'whois.tradestarter.com'
p741
I43
sS'whois.ripcorddomains.com'
p742
I175
sS'whois.enom395.com'
p743
I100
sS'whois.mailclub.net'
p744
I7697
sS'whois.enom381.com'
p745
I83
sS'whois.enom423.com'
p746
I80
sS'whois.intracomme.com'
p747
I1
sS'whois.namecatchllc.com'
p748
I260
sS'whois.register4less.com'
p749
I14864
sS'whois.domaintoorder.com'
p750
I249
sS'whois.190.com'
p751
I11010
sS'whois.namesbeyond.com'
p752
I6557
sS'whois.postaldomains.com'
p753
I106
sS'whois.zigzagnames.com'
p754
I663
sS'whois.zonecasting.com'
p755
I41
sS'whois.allearthdomains.com'
p756
I653
sS'whois.resellerid.com'
p757
I5687
sS'whois.eastnames.com'
p758
I16
sS'whois.ininaf.com'
p759
I103
sS'whois.kagoya.net'
p760
I1979
sS'whois.enom465.com'
p761
I80
sS'whois.namejuice.com'
p762
I29070
sS'whois.nhanhoa.com'
p763
I1963
sS'whois.finegraindomains.com'
p764
I239
sS'whois.alohanic.com'
p765
I416
sS'whois.domainsuccessllc.com'
p766
I233
sS'whois.chipshotdomainsllc.com'
p767
I250
sS'whois.resellserv.com'
p768
I460
sS'whois.guangzhoudomains.com'
p769
I1846
sS'whois.domainnameshop.com'
p770
I23559
sS'whois.ksdom.kr'
p771
I1401
sS'whois.enom1.com'
p772
I94
sS'whois.paknic.com'
p773
I1834
sS'whois.rallycrydomains.com'
p774
I198
sS'whois.beartrapdomains.com'
p775
I638
sS'whois.domrobot.com'
p776
I12088
sS'whois.enom411.com'
p777
I92
sS'whois.cloudbreakdomains.com'
p778
I225
sS'whois.widerightdomainsllc.com'
p779
I279
sS'whois.serverplan.com'
p780
I5561
sS'whois.godaddy.com'
p781
I11454821
sS'whois.hellodotnyc.com'
p782
I43
sS'whois.dotarai.com'
p783
I1489
sS'whois.theregistrarcompany.com'
p784
I5327
sS'whois.goserveyourdomain.com'
p785
I631
sS'whois.domainsofvalue.com'
p786
I715
sS'whois.1hostgermany.com'
p787
I600
sS'whois.r01.ru'
p788
I5259
sS'Whois.bigrock.com'
p789
I39161
sS'whois.paintedponynames.com'
p790
I206
sS'whois.yourdomaincasa.com'
p791
I171
sS'whois.instantnames.com'
p792
I4686
sS'whois.demys.com'
p793
I3357
sS'whois.domaingoldzonellc.com'
p794
I260
sS'whois.1hostkorea.com'
p795
I609
sS'whois.in2net.com'
p796
I27426
sS'whois.55hl.com'
p797
I32530
sS'whois.name.com'
p798
I318165
sS'whois.namenelly.com'
p799
I83
sS'whois.entertainmentnames.com'
p800
I97
sS'whois.domainernamesllc.com'
p801
I281
sS'whois.udomainname.com'
p802
I899
sS'whois.website.ws'
p803
I1416
sS'whois.enomcorporate.com'
p804
I74
sS'whois.sipence.com'
p805
I13
sS'whois.cyandomains.com'
p806
I1635
sS'whois.baronofdomains.com'
p807
I690
sS'whois.namesinmotion.com'
p808
I77
sS'whois.microbreweddomains.com'
p809
I652
sS'whois.theregistrarservice.com'
p810
I35
sS'whois.dotname.co.kr'
p811
I14321
sS'whois.neen.it'
p812
I436
sS'whois.smallworldregistrar.com'
p813
I5
sS'whois.ihs.com.tr'
p814
I30313
sS'whois.inname.net'
p815
I3259
sS'whois.purenic.com'
p816
I1471
sS'whois.dianmei.co'
p817
I803
sS'whois.register.com'
p818
I629833
sS'whois.synergywholesale.com'
p819
I10788
sS'whois.keyregistrar.com'
p820
I45
sS'whois.matbao.net'
p821
I3817
sS'whois.masterofmydomains.net'
p822
I675
sS'whois.namestream.com'
p823
I3
sS'whois.domainit.com'
p824
I6697
sS'whois.mountaindomains.net'
p825
I197
sS'whois.veritasdomains.com'
p826
I191
sS'whois.mypreciousdomain.com'
p827
I591
sS'whois.register.it'
p828
I141092
sS'whois.straight8domains.com'
p829
I187
sS'whois.targeteddropcatchllc.com'
p830
I261
sS'whois.pipelinedomains.com'
p831
I201
sS'whois.namesexpressllc.com'
p832
I269
sS'whois.PublicDomainRegistry.com'
p833
I792447
sS'whois.soaringeagledomains.com'
p834
I195
sS'whois.namesnapllc.com'
p835
I248
sS'whois.zincdomainnamesllc.com'
p836
I283
sS'whois.enommx.com'
p837
I88
sS'whois.netart-registrar.com'
p838
I15825
sS'whois.kheweul.org'
p839
I324
sS'whois.freshbreweddomains.com'
p840
I613
sS'whois.frontstreetdomains.com'
p841
I605
sS'whois.supernameworld.com'
p842
I15
sS'whois.kh86.cn'
p843
I70
sS'whois.inames.co.kr'
p844
I31930
sS'whois.ovh.com'
p845
I348476
sS'whois.nameperfections.com'
p846
I44
sS'whois.domaintimemachine.com'
p847
I563
sS'whois.allglobalnames.com'
p848
I585
sS'whois.atlanticfriendnames.com'
p849
I609
sS'whois.winnamesllc.com'
p850
I267
sS'whois.todaynic.com'
p851
I16255
sS'whois.prodomaines.com'
p852
I1304
sS'whois.gesloten.cw'
p853
I44
sS'whois.alethiadomains.com'
p854
I242
sS'whois.sawbuck.com'
p855
I781
sS'whois.domains.co.za'
p856
I1782
sS'whois.interlakenames.com'
p857
I595
sS'whois.pheenix.com'
p858
I34822
sS'whois.domainmonkeys.com'
p859
I157
sS'whois.godomaingo.com'
p860
I122
sS'whois.skykomishdomains.com'
p861
I661
sS'WHOIS.jarheaddomains.com'
p862
I204
sS'whois.neudomain.com'
p863
I5013
sS'grs-whois.hichina.com'
p864
I470354
sS'whois.scip.es'
p865
I22334
sS'whois.registermatrix.com'
p866
I175
sS'whois.regtons.com'
p867
I21916
sS'whois.pocketdomain.com'
p868
I1767
sS'whois.enom387.com'
p869
I82
sS'whois.domaincapitan.com'
p870
I623
sS'whois.webtechnames.com'
p871
I171
sS'whois.domaindiscover.com'
p872
I130398
sS'whois.haveaname.com'
p873
I5473
sS'whois.enom451.com'
p874
I90
sS'whois.atomicdomainnames.com'
p875
I645
sS'whois.arcticnames.com'
p876
I1779
sS'whois.enomtoo.com'
p877
I91
sS'whois.domainstopoverllc.com'
p878
I243
sS'whois.domainclub.com'
p879
I9672
sS'whois.enoma1.com'
p880
I105
sS'whois.domainarmada.com'
p881
I586
sS'whois.oldetymedomains.com'
p882
I198
sS'whois.enom469.com'
p883
I87
sS'whois.cps-datensysteme.de'
p884
I12598
sS'whois.domainsprouts.com'
p885
I524
sS'whois.yuminghome.com'
p886
I3
sS'whois.kqw.com'
p887
I1900
sS'whois.namesnapperllc.com'
p888
I277
sS'whois.namefull.com'
p889
I1769
sS'whois.ownregistrar.com'
p890
I2168
sS'whois.dyndns.com'
p891
I23823
sS'whois.net-chinese.com.tw'
p892
I6783
sS'whois.web.com'
p893
I170267
sS'whois.hosteur.com'
p894
I4036
sS'whois.nic.ae'
p895
I54
sS'whois.enomsky.com'
p896
I86
sS'whois.yellowstart.com'
p897
I44
sS'whois.enom647.com'
p898
I87
sS'whois.hostnameservices.net'
p899
I246
sS'whois.oray.com'
p900
I4608
sS'whois.ilovewww.com'
p901
I1874
sS'whois.nerdnames.com'
p902
I89
sS'whois.atlanticdomainsllc.com'
p903
I640
sS'whois.http.net'
p904
I13365
sS'whois.paycenter.com.cn'
p905
I238327
sS'whois.enom437.com'
p906
I92
sS'whois.net4domains.com'
p907
I32593
sS'whois.dynadot14.com'
p908
I14
sS'whois.eNom415.com'
p909
I84
sS'whois.discountdomainsuk.com'
p910
I772
sS'whois.coolbreezedomains.com'
p911
I213
sS'whois.domainsonly.com'
p912
I45
sS'whois.enom1036.com'
p913
I82
sS'whois.desertsanddomains.com'
p914
I214
sS'whois.domainpickupllc.com'
p915
I266
sS'whois.wildwestdomains.com'
p916
I859212
sS'whois.dynadot17.com'
p917
I8
sS'whois.netzone.ch'
p918
I49
sS'whois.domainprocessor.com'
p919
I702
sS'whois.gooddomainregistry.com'
p920
I3019
sS'whois.hawthornedomains.com'
p921
I645
sS'whois.rrpproxy.net'
p922
I383695
sS'whois.cdmon.com'
p923
I25926
sS'whois.namebright.com'
p924
I1753122
sS'whois.directnic.com'
p925
I208770
sS'whois.enom391.com'
p926
I63
sS'whois.dns-net.de'
p927
I1446
sS'whois.ipmirror.com'
p928
I6971
sS'whois.silverbackdomains.com'
p929
I720
sS'whois.groundinternet.com'
p930
I4
sS'whois.leatherneckdomains.com'
p931
I224
sS'whois.plisk.com'
p932
I347
sS'whois.enom459.com'
p933
I77
sS'nswhois.domainregistry.com'
p934
I2960
sS'whois.tppinternet.com'
p935
I5480
sS'whois.domainhawks.net'
p936
I565
sS'whois.domainz.com'
p937
I189
sS'whois.easystreetdomain.com'
p938
I210
sS'whois.jumpshotdomainsllc.com'
p939
I271
sS'whois.shiningstardomains.com'
p940
I207
sS'whois.jungbo.net'
p941
I550
sS'whois.host.uol.com.br'
p942
I15192
sS'whois.nayana.com'
p943
I1267
sS'whois.pananames.com'
p944
I5141
sS'whois.webmasters.com'
p945
I4685
sS'whois.ethosdomains.com'
p946
I194
sS'whois.namevolcano.com'
p947
I647
sS'whois.gamefornames.com'
p948
I25
sS'whois.enom1038.com'
p949
I90
sS'whois.007names.com'
p950
I2809
sS'whois.nicline.com'
p951
I119865
sS'whois.lakeodomains.com'
p952
I546
sS'whois.lexsynergy.com'
p953
I2961
sS'whois.mindsandmachines.com'
p954
I3
sS'whois.nominate.net'
p955
I2925
sS'whois.batdomains.com'
p956
I63
sS'whois.enom405.com'
p957
I58
sS'whois.domaincontext.com'
p958
I3664
sS'whois.volusion.com'
p959
I1331
sS'whois.enomx.com'
p960
I89
sS'whois.enomate.com'
p961
I92
sS'whois.domainnamebridge.com'
p962
I1575
sS'whois.1hostaustralia.com'
p963
I543
sS'whois.rainydaydomains.com'
p964
I633
sS'whois.domainmap.com'
p965
I756
sS'whois.vodien.com'
p966
I2377
sS'whois.advancedregistrar.com'
p967
I30901
sS'whois.domainsexpressllc.com'
p968
I279
sS'whois.eurodns.com'
p969
I55569
sS'whois.ripcurldomains.com'
p970
I204
sS'whois.coolrivernames.com'
p971
I251
sS'whois.namesalacarte.com'
p972
I645
sS'whois.alpinedomains.com'
p973
I52913
sS'whois.papaki.gr'
p974
I3768
sS'whois.enom2.com'
p975
I87
sS'whois.domainsetcllc.com'
p976
I261
sS'whois.asaplatform.info'
p977
I14
sS'whois.domainsareforever.net'
p978
I575
sS'whois.sicherregister.com'
p979
I100
sS'whois.epik.com'
p980
I76834
sS'whois.hangingcurvedomainsllc.com'
p981
I261
sS'whois.ledl.net'
p982
I2452
sS'whois.enom656.com'
p983
I97
sS'whois.experinom.com'
p984
I15
s.