ccollections
defaultdict
p0
(c__builtin__
set
p1
tp2
Rp3
S'whois.gabia.com'
p4
g1
((lp5
S'gsonsoftinc'
p6
aS'whtcoltd'
p7
aS'gabiainc'
p8
aS'gabiacs'
p9
aS'kinxcoltd'
p10
atp11
Rp12
sS'whois.dagnabit.biz'
p13
g1
((lp14
S'dagnabitincorporated'
p15
atp16
Rp17
sS'whois.domainsoforigin.com'
p18
g1
((lp19
S'domainsoforiginllc'
p20
atp21
Rp22
sS'whois.enom1008.com'
p23
g1
((lp24
S'enom1008inc'
p25
atp26
Rp27
sS'whois.draftpickdomainsllc.com'
p28
g1
((lp29
S'draftpickdomainsllc'
p30
atp31
Rp32
sS'whois.fairtradedomains.com'
p33
g1
((lp34
S'fairtradedomainsllc'
p35
atp36
Rp37
sS'whois.hkdns.hk'
p38
g1
((lp39
S'west263internationallimited'
p40
atp41
Rp42
sS'whois.domainguardians.com'
p43
g1
((lp44
S'domainguardiansinc'
p45
atp46
Rp47
sS'whois.namegear.co'
p48
g1
((lp49
S'brdomainincdbanamegearco'
p50
aS'brdomaininc'
p51
atp52
Rp53
sS'whois.namesonthedropllc.com'
p54
g1
((lp55
S'namesonthedropllc'
p56
atp57
Rp58
sS'whois.deepdivedomains.com'
p59
g1
((lp60
S'deepdivedomainsllc'
p61
aS'registercom'
p62
atp63
Rp64
sS'whois.dandomain.dk'
p65
g1
((lp66
S'dandomainas'
p67
atp68
Rp69
sS'whois.registrar.telekom.de'
p70
g1
((lp71
S'deutschetelekomag'
p72
atp73
Rp74
sS'whois.internetdomainnameregistrar.org'
p75
g1
((lp76
S'campointag'
p77
atp78
Rp79
sS'whois.enom453.com'
p80
g1
((lp81
S'enom453incorporated'
p82
atp83
Rp84
sS'whois.upperlink.ng'
p85
g1
((lp86
S'upperlinklimited'
p87
atp88
Rp89
sS'whois.domainband.com'
p90
g1
((lp91
S'domainbandinc'
p92
atp93
Rp94
sS'whois.no-ip.com'
p95
g1
((lp96
S'vitalwerksinternetsolutionsllcnoipcom'
p97
aS'vitalwerksinternetsolutionsllcdbanoip'
p98
atp99
Rp100
sS'whois.markbark.com'
p101
g1
((lp102
S'markbarkerincorporated'
p103
atp104
Rp105
sS'whois.zitian.cn'
p106
g1
((lp107
S'zhengzhouzitiannetworktechnologycoltd'
p108
atp109
Rp110
sS'whois.mvpdomainnames.com'
p111
g1
((lp112
S'mvpdomainnamescomllc'
p113
atp114
Rp115
sS'whois.znetlive.com'
p116
g1
((lp117
S'znettechnologiespvtltd'
p118
atp119
Rp120
sS'whois.domainname.com'
p121
g1
((lp122
S'domainnameinc'
p123
atp124
Rp125
sS'whois.rethemhosting.net'
p126
g1
((lp127
S'rethemhostingllc'
p128
aS'rethemhostingllcspecializinginddosmitigationandattackresilience'
p129
atp130
Rp131
sS'whois.registrar.eu'
p132
g1
((lp133
S'hostingconceptsbvdbaopenprovider'
p134
atp135
Rp136
sS'whois.nicco.com'
p137
g1
((lp138
S'niccoltd'
p139
atp140
Rp141
sS'comnet-whois.humeia.com'
p142
g1
((lp143
S'humeiacorporation'
p144
atp145
Rp146
sS'whois.domainraker.net'
p147
g1
((lp148
S'domainrakernetllc'
p149
atp150
Rp151
sS'whois.klaatudomains.com'
p152
g1
((lp153
S'klaatudomainscomllc'
p154
atp155
Rp156
sS'whois.snappyregistrar.com'
p157
g1
((lp158
S'snappyregistrarcomllc'
p159
atp160
Rp161
sS'whois.enom652.com'
p162
g1
((lp163
S'enom652inc'
p164
atp165
Rp166
sS'whois.wideleftdomainsllc.com'
p167
g1
((lp168
S'wideleftdomainsllc'
p169
atp170
Rp171
sS'whois.nawang.cn'
p172
g1
((lp173
S'xiamennawangtechnologycoltd'
p174
atp175
Rp176
sS'whois.freedivedomains.com'
p177
g1
((lp178
S'freedivedomainsllc'
p179
aS'registercom'
p180
atp181
Rp182
sS'whois.domdrill.com'
p183
g1
((lp184
S'domdrillcominc'
p185
atp186
Rp187
sS'whois.register.ca'
p188
g1
((lp189
S'registercainc'
p190
atp191
Rp192
sS'whois.above.com'
p193
g1
((lp194
S'abovecomptyltd'
p195
atp196
Rp197
sS'whois.deepwaterdomainsllc.com'
p198
g1
((lp199
S'deepwaterdomainsllc'
p200
atp201
Rp202
sS'whois.briarwoodtechnologies.com'
p203
g1
((lp204
S'name110inc'
p205
atp206
Rp207
sS'whois.domainsalsa.com'
p208
g1
((lp209
S'domainsalsacomllc'
p210
atp211
Rp212
sS'whois.registrarmanager.com'
p213
g1
((lp214
S'registrarmanagerinc'
p215
atp216
Rp217
sS'whois.domaingazelle.com'
p218
g1
((lp219
S'domaingazellecomllc'
p220
atp221
Rp222
sS'whois.promopeople.com'
p223
g1
((lp224
S'promopeopleinc'
p225
atp226
Rp227
sS'whois.exclusivedomainfindllc.com'
p228
g1
((lp229
S'exclusivedomainfindllc'
p230
atp231
Rp232
sS'whois.enom.com'
p233
g1
((lp234
S'enom1040inc'
p235
aS'enominc'
p236
atp237
Rp238
sS'whois.golddomainnamesllc.com'
p239
g1
((lp240
S'golddomainnamesllc'
p241
atp242
Rp243
sS'whois.gkg.net'
p244
g1
((lp245
S'gkgnetinc'
p246
atp247
Rp248
sS'whois.interdominios.com'
p249
g1
((lp250
S'interdominiosinc'
p251
atp252
Rp253
sS'whois.french-connexion.com'
p254
g1
((lp255
S'domainefr'
p256
aS'frenchconnexiondbadomainefr'
p257
atp258
Rp259
sS'whois.biglizarddomains.com'
p260
g1
((lp261
S'biglizarddomainscomllc'
p262
atp263
Rp264
sS'whois.dynadot16.com'
p265
g1
((lp266
S'dynadot16llc'
p267
atp268
Rp269
sS'whois.networking4all.com'
p270
g1
((lp271
S'networking4allbv'
p272
atp273
Rp274
sS'whois.goldminedomainsllc.com'
p275
g1
((lp276
S'goldminedomainsllc'
p277
atp278
Rp279
sS'who.planethoster.net'
p280
g1
((lp281
S'planethosterinc'
p282
aS'planethoster'
p283
atp284
Rp285
sS'whois.enom1009.com'
p286
g1
((lp287
S'enom1009inc'
p288
atp289
Rp290
sS'whois.instinctsolutions.com'
p291
g1
((lp292
S'instinctsolutionsinc'
p293
atp294
Rp295
sS'whois.puredomain.com'
p296
g1
((lp297
S'variomediaagdbapuredomaincom'
p298
atp299
Rp300
sS'whois.alfena.com'
p301
g1
((lp302
S'alfenallc'
p303
atp304
Rp305
sS'whois.apisrs.com'
p306
g1
((lp307
S'tuonomeitsrl'
p308
aS'tuonomeitsrldbatuonomecom'
p309
atp310
Rp311
sS'whois.tradewindsnames.com'
p312
g1
((lp313
S'tradewindsnamesllc'
p314
atp315
Rp316
sS'whois.rebel.com'
p317
g1
((lp318
S'rebelcomcorp'
p319
aS'rebelcom'
p320
atp321
Rp322
sS'whois.gandi.net'
p323
g1
((lp324
S'gandisas'
p325
atp326
Rp327
sS'whois.cn.hooyoo.com'
p328
g1
((lp329
S'hooyooinformationtechnologycoltd'
p330
atp331
Rp332
sS'whois.tname.com'
p333
g1
((lp334
S'domainnamerouteinc'
p335
atp336
Rp337
sS'whois.oregoneu.com'
p338
g1
((lp339
S'oregoneucomllc'
p340
atp341
Rp342
sS'whois.nic.ru'
p343
g1
((lp344
S'regionalnetworkinformationcenterjscdbarucenter'
p345
atp346
Rp347
sS'whois.hostingservicesinc.net'
p348
g1
((lp349
S'uk2limited'
p350
aS'uk2groupltd'
p351
atp352
Rp353
sS'whois.gotodomainsllc.com'
p354
g1
((lp355
S'gotodomainsllc'
p356
atp357
Rp358
sS'whois.whiterhinodomains.com'
p359
g1
((lp360
S'whiterhinodomainsllc'
p361
atp362
Rp363
sS'whois.blueangeldomainsllc.com'
p364
g1
((lp365
S'blueangeldomainsllc'
p366
atp367
Rp368
sS'whois.fastdomain.com'
p369
g1
((lp370
S'fastdomaininc'
p371
atp372
Rp373
sS'whois.corehub.net'
p374
g1
((lp375
S'core993wmediagmbh'
p376
aS'core109weblandag'
p377
aS'core137bradlerkrantzgmbhcokg'
p378
aS'core104domainefrfrenchconnexion'
p379
aS'core136easygigacom'
p380
aS'core115serverservicegmbh'
p381
aS'core113media4websro'
p382
aS'core165ispprointernet'
p383
aS'core145titannetworksinternettelecommunicationsserviceprovidinggmbh'
p384
aS'core53bestregistrarcom'
p385
aS'core41teliaabnetworkservices'
p386
aS'core119hostnetmediengmbh'
p387
aS'core120hostservergmbh'
p388
aS'core152benjcaffedba'
p389
aS'core155lemaritgmbh'
p390
aS'core112providerdeinternetagenturgmbh'
p391
aS'core51oznicgmbh'
p392
aS'core126distma'
p393
aS'core110dnsnetgmbh'
p394
aS'core910coredirecttool'
p395
aS'core95olmllc'
p396
aS'corehubsrl'
p397
aS'core127visionconsulting'
p398
aS'core118regicanet'
p399
aS'core50mediafusioninc'
p400
aS'core164globalipactionag'
p401
aS'core122speedboneinternetconnectivitygmbh'
p402
aS'core96globalvillagegmbh'
p403
aS'core30telecomitaliaspa'
p404
aS'core101kampnetzwerkdienstegmbh'
p405
aS'core111nameshield'
p406
aS'core709gpisoftware'
p407
aS'core142norplexcommunications'
p408
aS'core139teutonetnetzdienstegmbh'
p409
aS'core123ingenitgmbhcokg'
p410
aS'core79axoneservicesdeveloppementsa'
p411
aS'core85kpntelecombv'
p412
aS'core133blackpointartsinternetsolutionsgmbh'
p413
aS'core28netwizardsinc'
p414
aS'core39knippmedienundkommunikationgmbh'
p415
aS'core153ispserviceeg'
p416
aS'core41teliasonerasverigeab'
p417
aS'core138privianet'
p418
aS'core35vtxservicessa'
p419
atp420
Rp421
sS'whois.ssandomain.com'
p422
g1
((lp423
S'koreacentercomcoltd'
p424
atp425
Rp426
sS'whois.intlregistrationservices.com'
p427
g1
((lp428
S'name119inc'
p429
atp430
Rp431
sS'whois.gi.net'
p432
g1
((lp433
S'globalinternet'
p434
aS'netracorpllcdbaglobalinternet'
p435
atp436
Rp437
sS'whois.deletingnamezonellc.com'
p438
g1
((lp439
S'deletingnamezonellc'
p440
atp441
Rp442
sS'whois.oldworldaliases.com'
p443
g1
((lp444
S'oldworldaliasescomllc'
p445
atp446
Rp447
sS'whois.domus-llc.com'
p448
g1
((lp449
S'domusenterprisesllcdbadomus'
p450
atp451
Rp452
sS'whois.gochinadomains.com'
p453
g1
((lp454
S'gochinadomainsllc'
p455
atp456
Rp457
sS'whois.enom672.com'
p458
g1
((lp459
S'enom672inc'
p460
atp461
Rp462
sS'whois.nordreg.com'
p463
g1
((lp464
S'nordregab'
p465
atp466
Rp467
sS'whois.asiaregister.com'
p468
g1
((lp469
S'asiaregisterinc'
p470
atp471
Rp472
sS'whois.enom425.com'
p473
g1
((lp474
S'enom425incorporated'
p475
atp476
Rp477
sS'whois.namepal.com'
p478
g1
((lp479
S'dropfall'
p480
aS'southnamesinc'
p481
aS'bravenamesinc'
p482
aS'dropsave'
p483
aS'dropwalkcominc'
p484
aS'namepalcom8018'
p485
aS'namepalcom8019'
p486
aS'namepalcom8016'
p487
aS'namepalcom8017'
p488
aS'namepalcom8014'
p489
aS'namepalcom8015'
p490
aS'namepalcom8012'
p491
aS'namepalcom8013'
p492
aS'namepalcom8010'
p493
aS'namepalcom8011'
p494
aS'dropwalk'
p495
aS'dropweekcom'
p496
aS'drophub'
p497
aS'namepalcom8003'
p498
aS'namepalcom8028'
p499
aS'northnamesinc'
p500
aS'namepalcom8023'
p501
aS'dropextracominc'
p502
aS'empirestatedomainsinc'
p503
aS'greenzonedomainsinc'
p504
aS'namepalcom8027'
p505
aS'namepalcom8026'
p506
aS'namepalcom8025'
p507
aS'namepalcom8024'
p508
aS'namepalcom8009'
p509
aS'namepalcom8008'
p510
aS'namepalcom8021'
p511
aS'namepalcom8020'
p512
aS'namepalcom8005'
p513
aS'namepalcom8004'
p514
aS'namepalcom8007'
p515
aS'namepalcom8006'
p516
aS'namepalcom8001'
p517
aS'namepalcom8022'
p518
aS'namepalcom8002'
p519
aS'drophubcominc'
p520
aS'dropjumpcominc'
p521
aS'dropweekcominc'
p522
aS'namepalcomllc'
p523
aS'dancueinc'
p524
aS'anessiainc'
p525
aS'dropjump'
p526
atp527
Rp528
sS'whois.sourceddomains.com'
p529
g1
((lp530
S'sourceddomainsllc'
p531
atp532
Rp533
sS'whois.pairnic.com'
p534
g1
((lp535
S'pairnicinc'
p536
aS'pairnetworksincdbapairnic'
p537
atp538
Rp539
sS'whois.pdxprivatenames.com'
p540
g1
((lp541
S'pdxprivatenamescomllc'
p542
atp543
Rp544
sS'whois.freefalldomainsllc.com'
p545
g1
((lp546
S'freefalldomainsllc'
p547
atp548
Rp549
sS'whois.slamdunkdomainsllc.com'
p550
g1
((lp551
S'slamdunkdomainsllc'
p552
atp553
Rp554
sS'whois.glideslopedomains.com'
p555
g1
((lp556
S'glideslopedomainsllc'
p557
atp558
Rp559
sS'whois.enom449.com'
p560
g1
((lp561
S'enom449incorporated'
p562
atp563
Rp564
sS'whois.domainlifestlye.com'
p565
g1
((lp566
S'domainlifestylellc'
p567
atp568
Rp569
sS'whois.allworldnames.com'
p570
g1
((lp571
S'allworldnamescomllc'
p572
atp573
Rp574
sS'whois.compuglobalhypermega.com'
p575
g1
((lp576
S'compuglobalhypermegacomllc'
p577
atp578
Rp579
sS'whois.hoapdi-inc.com'
p580
g1
((lp581
S'hoapdiinc'
p582
atp583
Rp584
sS'whois.afriregister.com'
p585
g1
((lp586
S'afriregistersa'
p587
atp588
Rp589
sS'whois.enom385.com'
p590
g1
((lp591
S'enom385incorporated'
p592
atp593
Rp594
sS'whois.barracudadomains.com'
p595
g1
((lp596
S'baracudadomainsllc'
p597
atp598
Rp599
sS'whois.aitdomains.com'
p600
g1
((lp601
S'advancedinternettechnologiesinc'
p602
aS'thenameitcorporationdbanameservicesnet'
p603
aS'csmjbsenterprises'
p604
atp605
Rp606
sS'whois.yiyu.com'
p607
g1
((lp608
S'ejeegroupholdingslimited'
p609
atp610
Rp611
sS'whois.deschutesdomains.com'
p612
g1
((lp613
S'deschutesdomainscomllc'
p614
atp615
Rp616
sS'whois.puritynames.com'
p617
g1
((lp618
S'puritynamesincorporated'
p619
aS'puritynamescom'
p620
atp621
Rp622
sS'whois.shiningstardomains.com'
p623
g1
((lp624
S'shiningstardomainsllc'
p625
atp626
Rp627
sS'whois.domaingrabberllc.com'
p628
g1
((lp629
S'domaingrabberllc'
p630
atp631
Rp632
sS'whois.internetters.co.uk'
p633
g1
((lp634
S'internettersltd'
p635
atp636
Rp637
sS'whois.enom389.com'
p638
g1
((lp639
S'enom389incorporated'
p640
atp641
Rp642
sS'whois.namesourcellc.com'
p643
g1
((lp644
S'namesourcellc'
p645
atp646
Rp647
sS'whois2.softlayer.com'
p648
g1
((lp649
S'softlayertechnologiesinc'
p650
atp651
Rp652
sS'whois.domainroyale.com'
p653
g1
((lp654
S'domainroyalecomllc'
p655
atp656
Rp657
sS'whois.webnames.ca'
p658
g1
((lp659
S'webnamescainc'
p660
atp661
Rp662
sS'whois.goldenfinddomainsllc.com'
p663
g1
((lp664
S'goldenfinddomainsllc'
p665
atp666
Rp667
sS'whois.sammamishdomains.com'
p668
g1
((lp669
S'sammamishdomainscomllc'
p670
atp671
Rp672
sS'whois.domainplacellc.com'
p673
g1
((lp674
S'domainplacellc'
p675
atp676
Rp677
sS'whois.alpnames.com'
p678
g1
((lp679
S'alpnameslimited'
p680
atp681
Rp682
sS'whois.virtualregistrar.com'
p683
g1
((lp684
S'dootallinc'
p685
aS'virtualregistrarinc'
p686
atp687
Rp688
sS'whois.idindi.com'
p689
g1
((lp690
S'indirectionidentitycorporation'
p691
atp692
Rp693
sS'whois.victorynamesllc.com'
p694
g1
((lp695
S'victorynamesllc'
p696
atp697
Rp698
sS'whois.22.cn'
p699
g1
((lp700
S'cloudplumllc'
p701
aS'hangzhouaimingnetworkcoltd'
p702
aS'beijingtongguanxintiantechnologyltdnovaltel'
p703
aS'cloudsystemllc'
p704
aS'cloudboomllc'
p705
aS'cloudsharkllc'
p706
aS'cloudseedllc'
p707
aS'cloudsunllc'
p708
aS'cloudbamboollc'
p709
aS'22netinc'
p710
aS'cloudbeautyllc'
p711
aS'cloudcityllc'
p712
aS'cloudorchidllc'
p713
aS'clouddiamondllc'
p714
aS'hangzhouebusinessservicescoltd'
p715
atp716
Rp717
sS'whois.enom646.com'
p718
g1
((lp719
S'enom646inc'
p720
atp721
Rp722
sS'whois.svenskadomaner.se'
p723
g1
((lp724
S'absvenskadomner'
p725
aS'swedishdomainsab'
p726
atp727
Rp728
sS'whois.ourdomains.com'
p729
g1
((lp730
S'ourdomainslimited'
p731
atp732
Rp733
sS'whois.interdomain.net'
p734
g1
((lp735
S'acenstechnologiesslu'
p736
atp737
Rp738
sS'whois.enom419.com'
p739
g1
((lp740
S'enom419incorporated'
p741
atp742
Rp743
sS'whois.threepointdomainsllc.com'
p744
g1
((lp745
S'threepointdomainsllc'
p746
atp747
Rp748
sS'whois.magicfriday.com'
p749
g1
((lp750
S'magicfridayinc'
p751
atp752
Rp753
sS'whois.softlayer.com'
p754
g1
((lp755
S'everyonesinternetltddbasoftlayer'
p756
aS'everyonesinternetllcdbasoftlayer'
p757
atp758
Rp759
sS'whois.google.com'
p760
g1
((lp761
S'googleinc'
p762
atp763
Rp764
sS'whois.heavydomains.net'
p765
g1
((lp766
S'heavydomainsnetllc'
p767
atp768
Rp769
sS'whois.eurotrashnames.com'
p770
g1
((lp771
S'eurotrashnamescomllc'
p772
atp773
Rp774
sS'whois.nicproxy.com'
p775
g1
((lp776
S'nicstelekomunikasyonticltdsti'
p777
aS'nicstelekomunikasyonticaretltdsti'
p778
atp779
Rp780
sS'whois.neonic.com'
p781
g1
((lp782
S'neonicoy'
p783
atp784
Rp785
sS'whois.ipmirror.com'
p786
g1
((lp787
S'ipmirrorpteltddbaipmirror'
p788
aS'ipmirrorpteltd'
p789
atp790
Rp791
sS'whois.enom1037.com'
p792
g1
((lp793
S'enom1037inc'
p794
atp795
Rp796
sS'whois.cnolnic.com'
p797
g1
((lp798
S'xiamenchinasourceinternetservicecoltd'
p799
atp800
Rp801
sS'whois.dn.com'
p802
g1
((lp803
S'hangzhouduomaiecommercecoltd'
p804
atp805
Rp806
sS'whois.domainsonly.com'
p807
g1
((lp808
S'domainsonlycominc'
p809
atp810
Rp811
sS'whois.misternic.com'
p812
g1
((lp813
S'misternicllc'
p814
atp815
Rp816
sS'whois.commerceisland.com'
p817
g1
((lp818
S'commerceislandinc'
p819
atp820
Rp821
sS'whois.adomainofyourown.com'
p822
g1
((lp823
S'adomainofyourowncomllc'
p824
atp825
Rp826
sS'whois.enom1035.com'
p827
g1
((lp828
S'enom1035inc'
p829
atp830
Rp831
sS'whois.enom655.com'
p832
g1
((lp833
S'enom655inc'
p834
atp835
Rp836
sS'whois.blisternet.net'
p837
g1
((lp838
S'blisternetincorporated'
p839
atp840
Rp841
sS'whois.doregi.com'
p842
g1
((lp843
S'hangangsystemsincdbadoregicom'
p844
atp845
Rp846
sS'whois.freespiritdomains.com'
p847
g1
((lp848
S'registercom'
p849
aS'freespiritdomainsllc'
p850
atp851
Rp852
sS'whois.domerati.com'
p853
g1
((lp854
S'domeratiinc'
p855
atp856
Rp857
sS'whois.copperdomainnamesllc.com'
p858
g1
((lp859
S'copperdomainnamesllc'
p860
atp861
Rp862
sS'whois.freenom.com'
p863
g1
((lp864
S'openttldbv'
p865
aS'opentldbv'
p866
atp867
Rp868
sS'whois.hostinger.com'
p869
g1
((lp870
S'hostingeruab'
p871
atp872
Rp873
sS'whois.domainsoftheworld.net'
p874
g1
((lp875
S'domainsoftheworldnetllc'
p876
atp877
Rp878
sS'whois.distributeit.com.au'
p879
g1
((lp880
S'tppwholesaleptyltd'
p881
atp882
Rp883
sS'whois.gradeadomainnames.com'
p884
g1
((lp885
S'gradeadomainnamescomllc'
p886
atp887
Rp888
sS'whois.websitesource.com'
p889
g1
((lp890
S'websitesourceinc'
p891
atp892
Rp893
sS'whois.namesecure.com'
p894
g1
((lp895
S'namesecurecom'
p896
atp897
Rp898
sS'whois.domainnameorigin.com'
p899
g1
((lp900
S'domainnameoriginllc'
p901
aS'registercom'
p902
atp903
Rp904
sS'whois.toppicknamesllc.com'
p905
g1
((lp906
S'toppicknamesllc'
p907
atp908
Rp909
sS'whois.domainsecurellc.com'
p910
g1
((lp911
S'domainsecurellc'
p912
atp913
Rp914
sS'whois.circleofdomainsllc.com'
p915
g1
((lp916
S'circleofdomainsllc'
p917
atp918
Rp919
sS'whois.domainsatcost.ca'
p920
g1
((lp921
S'rebelcacorp'
p922
aS'rebelca'
p923
atp924
Rp925
sS'whois.enom1013.com'
p926
g1
((lp927
S'enom1013inc'
p928
atp929
Rp930
sS'whois.domainjungle.net'
p931
g1
((lp932
S'domainjunglenetllc'
p933
atp934
Rp935
sS'whois.webbusiness.biz'
p936
g1
((lp937
S'webbusinessllc'
p938
atp939
Rp940
sS'whois.signdomains.com'
p941
g1
((lp942
S'viseshinfotecnicsltddbasigndomainscom'
p943
aS'mpsinfotecnicslimited'
p944
atp945
Rp946
sS'whois.wildzebradomains.com'
p947
g1
((lp948
S'wildzebradomainsllc'
p949
aS'registercom'
p950
atp951
Rp952
sS'whois.names4ever.com'
p953
g1
((lp954
S'deluxesmallbusinesssalesincdbaaplusnet'
p955
atp956
Rp957
sS'whois.sudu.cn'
p958
g1
((lp959
S'chengduflydigitaltechnologycoltd'
p960
atp961
Rp962
sS'whois.dotearth.com'
p963
g1
((lp964
S'domainregistrationservicesincdbadotearthcom'
p965
atp966
Rp967
sS'whois.enom455.com'
p968
g1
((lp969
S'enom455incorporated'
p970
atp971
Rp972
sS'whois.moonshotdomains.com'
p973
g1
((lp974
S'moonshotdomainsllc'
p975
atp976
Rp977
sS'whois.sterlingdomainsllc.com'
p978
g1
((lp979
S'sterlingdomainsllc'
p980
atp981
Rp982
sS'whois.ekados.com'
p983
g1
((lp984
S'ekadosincdbagroundregistrycom'
p985
atp986
Rp987
sS'whois.tigertech.net'
p988
g1
((lp989
S'tigertechnologiesllc'
p990
atp991
Rp992
sS'whois.domainsails.net'
p993
g1
((lp994
S'domainsailsnetllc'
p995
atp996
Rp997
sS'whois.imminentdomains.net'
p998
g1
((lp999
S'imminentdomainsnetllc'
p1000
atp1001
Rp1002
sS'whois.silverdomainnamesllc.com'
p1003
g1
((lp1004
S'silverdomainnamesllc'
p1005
atp1006
Rp1007
sS'whois.fujiandomains.com'
p1008
g1
((lp1009
S'fujiandomainsinc'
p1010
atp1011
Rp1012
sS'whois.enom417.com'
p1013
g1
((lp1014
S'enom417incorporated'
p1015
atp1016
Rp1017
sS'whois.enom447.com'
p1018
g1
((lp1019
S'enom447incorporated'
p1020
atp1021
Rp1022
sS'whois.zenregistry.com'
p1023
g1
((lp1024
S'webwerksindiapvtltddbazenregistrycom'
p1025
atp1026
Rp1027
sS'whois.rockenstein.de'
p1028
g1
((lp1029
S'rockensteinag'
p1030
atp1031
Rp1032
sS'whois.portlandnames.com'
p1033
g1
((lp1034
S'portlandnamescomllc'
p1035
atp1036
Rp1037
sS'whois.domaininfo.com'
p1038
g1
((lp1039
S'domaininfoab'
p1040
aS'domaininfoabdbadomaininfocom'
p1041
atp1042
Rp1043
sS'whois.enom399.com'
p1044
g1
((lp1045
S'enom399incorporated'
p1046
atp1047
Rp1048
sS'whois.51web.hk'
p1049
g1
((lp1050
S'centuryorientalinternationalcoltd'
p1051
atp1052
Rp1053
sS'whois.whitealligatordomains.com'
p1054
g1
((lp1055
S'whitealligatordomainsllc'
p1056
aS'registercom'
p1057
atp1058
Rp1059
sS'whois.enom441.com'
p1060
g1
((lp1061
S'enom441incorporated'
p1062
atp1063
Rp1064
sS'wh0is.pocketdomain.com'
p1065
g1
((lp1066
S'1hostisraelinc'
p1067
atp1068
Rp1069
sS'whois.enom662.com'
p1070
g1
((lp1071
S'enom662inc'
p1072
atp1073
Rp1074
sS'whois.enom445.com'
p1075
g1
((lp1076
S'enom445incorporated'
p1077
atp1078
Rp1079
sS'whois.enom1033.com'
p1080
g1
((lp1081
S'enom1033inc'
p1082
atp1083
Rp1084
sS'whois.snoqulamiedomains.com'
p1085
g1
((lp1086
S'snoqulamiedomainscomllc'
p1087
atp1088
Rp1089
sS'whois.enomten.com'
p1090
g1
((lp1091
S'enomteninc'
p1092
atp1093
Rp1094
sS'whois.domainoriginal.com'
p1095
g1
((lp1096
S'domainoriginalllc'
p1097
aS'registercom'
p1098
atp1099
Rp1100
sS'whois.domainsofcourse.com'
p1101
g1
((lp1102
S'domainsofcoursecomllc'
p1103
atp1104
Rp1105
sS'whois.gatekeeperdomains.net'
p1106
g1
((lp1107
S'gatekeeperdomainsnetllc'
p1108
atp1109
Rp1110
sS'whois.misk.com'
p1111
g1
((lp1112
S'miskcominc'
p1113
atp1114
Rp1115
sS'whois.lemonsharkdomains.com'
p1116
g1
((lp1117
S'lemonsharkdomainsllc'
p1118
atp1119
Rp1120
sS'whois.domainstreetdirect.com'
p1121
g1
((lp1122
S'domainstreetdirectcomllc'
p1123
atp1124
Rp1125
sS'whois.ccdomain.co.kr'
p1126
g1
((lp1127
S'crosscertincdbacosmotowninc'
p1128
aS'cosmotowninc'
p1129
atp1130
Rp1131
sS'whois.isimtescil.net'
p1132
g1
((lp1133
S'fbsinc'
p1134
atp1135
Rp1136
sS'whois.housofdomains.com'
p1137
g1
((lp1138
S'houseofdomainsllc'
p1139
atp1140
Rp1141
sS'whois2.domain.com'
p1142
g1
((lp1143
S'allaccessdomainsllc'
p1144
aS'addresscreationllc'
p1145
aS'catincdbanamezerocom'
p1146
aS'24x7domainsllc'
p1147
aS'addressonthewebllc'
p1148
aS'diggitydotllc'
p1149
aS'domainprollc'
p1150
aS'niuedomainsllc'
p1151
aS'austriadomainsllc'
p1152
aS'universalregistrationservicesincdbanewdentitycom'
p1153
aS'tuvaludomainsllc'
p1154
aS'domainagogollc'
p1155
aS'995discountdomainsllc'
p1156
aS'domainbulkregistrationllc'
p1157
aS'austriandomainsllc'
p1158
aS'endurance'
p1159
aS'claimeddomainsllc'
p1160
aS'universalregistrationservicesincdbanewdentit'
p1161
aS'domaincampingllc'
p1162
aS'domainnamelookupllc'
p1163
aS'alldomainsllc'
p1164
aS'unitedkingdomdomainsllc'
p1165
aS'domainducksincdbapersonalnamescom'
p1166
aS'capitaldomainsllc'
p1167
aS'registernamesllc'
p1168
aS'deutchdomainsllc'
p1169
aS'privacypostinc'
p1170
aS'discountdomainservicesllc'
p1171
aS'1800websitellc'
p1172
aS'columbiadomainsllc'
p1173
aS'hostlaneinc'
p1174
aS'decentdomainsllc'
p1175
aS'enamecollc'
p1176
atp1177
Rp1178
sS'whois.dnspod.com'
p1179
g1
((lp1180
S'dnspodinc'
p1181
atp1182
Rp1183
sS'whois.enom1014.com'
p1184
g1
((lp1185
S'enom1014inc'
p1186
atp1187
Rp1188
sS'whois.nameconnectionspotllc.com'
p1189
g1
((lp1190
S'nameconnectionspotllc'
p1191
atp1192
Rp1193
sS'whois.domainjamboreellc.com'
p1194
g1
((lp1195
S'domainjamboreellc'
p1196
atp1197
Rp1198
sS'whois.netim.com'
p1199
g1
((lp1200
S'netimsarl'
p1201
aS'netim'
p1202
atp1203
Rp1204
sS'whois.genious.net'
p1205
g1
((lp1206
S'geniouscommunicationssarlau'
p1207
atp1208
Rp1209
sS'whois.pavietnam.vn'
p1210
g1
((lp1211
S'pavietnamcompanylimited'
p1212
atp1213
Rp1214
sS'whois.registrygate.com'
p1215
g1
((lp1216
S'registrygategmbh'
p1217
atp1218
Rp1219
sS'whois.ltnic.com'
p1220
g1
((lp1221
S'fujianlitiannetworktechnologycoltd'
p1222
atp1223
Rp1224
sS'whois.zw.cn'
p1225
g1
((lp1226
S'beijingzhongwannetworktechnologycoltd'
p1227
atp1228
Rp1229
sS'whois.threadagent.com'
p1230
g1
((lp1231
S'threadagentcominc'
p1232
atp1233
Rp1234
sS'whois.nametofame.com'
p1235
g1
((lp1236
S'nametofameinc'
p1237
atp1238
Rp1239
sS'whois.joker.com'
p1240
g1
((lp1241
S'cslcomputerservicelangenbachgmbhdbajokercom'
p1242
aS'pdrltddbapublicdomainregistrycomwhoisserver'
p1243
atp1244
Rp1245
sS'whois.namesaplentyllc.com'
p1246
g1
((lp1247
S'namesaplentyllc'
p1248
atp1249
Rp1250
sS'whois.protondomains.com'
p1251
g1
((lp1252
S'protondomainscomllc'
p1253
atp1254
Rp1255
sS'whois.yoursrs.com'
p1256
g1
((lp1257
S'realtimeregisterbv'
p1258
atp1259
Rp1260
sS'whois.powercarrier.com'
p1261
g1
((lp1262
S'powercarrierinc'
p1263
atp1264
Rp1265
sS'whois.swordfishdomainsllc.com'
p1266
g1
((lp1267
S'swordfishdomainsllc'
p1268
atp1269
Rp1270
sS'whois.enom429.com'
p1271
g1
((lp1272
S'enom429incorporated'
p1273
atp1274
Rp1275
sS'whois.reg.com'
p1276
g1
((lp1277
S'registrarofdomainnamesregrullc'
p1278
atp1279
Rp1280
sS'whois.soldierofonedomains.com'
p1281
g1
((lp1282
S'soldierofonedomainscomllc'
p1283
atp1284
Rp1285
sS'whois.domainlandingzonellc.com'
p1286
g1
((lp1287
S'domainlandingzonellc'
p1288
atp1289
Rp1290
sS'whois.riktad.se'
p1291
g1
((lp1292
S'abriktad'
p1293
atp1294
Rp1295
sS'whois.alices-registry.com'
p1296
g1
((lp1297
S'alicesregistryinc'
p1298
atp1299
Rp1300
sS'whois.gofrancedomains.com'
p1301
g1
((lp1302
S'gofrancedomainsllc'
p1303
atp1304
Rp1305
sS'whois.freeparking.co.uk'
p1306
g1
((lp1307
S'freeparkingdomainregistrarsinc'
p1308
atp1309
Rp1310
sS'whois.sfn.cn'
p1311
g1
((lp1312
S'beijingsanfrontinformationtechnologycoltd'
p1313
atp1314
Rp1315
sS'whois.mijninternetoplossing.nl'
p1316
g1
((lp1317
S'mijninternetoplossingbv'
p1318
atp1319
Rp1320
sS'whois.domainsoftheday.net'
p1321
g1
((lp1322
S'domainsofthedaynetllc'
p1323
atp1324
Rp1325
sS'whois.cloudflare.com'
p1326
g1
((lp1327
S'cloudflareinc'
p1328
atp1329
Rp1330
sS'whois.enom393.com'
p1331
g1
((lp1332
S'enom393incorporated'
p1333
atp1334
Rp1335
sS'whois.meganamesllc.com'
p1336
g1
((lp1337
S'meganamesllc'
p1338
atp1339
Rp1340
sS'whois.dynadot5.com'
p1341
g1
((lp1342
S'dynadot5llc'
p1343
atp1344
Rp1345
sS'whois.gomontenegrodomains.com'
p1346
g1
((lp1347
S'gomontenegrodomainsllc'
p1348
atp1349
Rp1350
sS'whois.ownidentity.com'
p1351
g1
((lp1352
S'ownidentityinc'
p1353
atp1354
Rp1355
sS'whois.namefindsourcellc.com'
p1356
g1
((lp1357
S'namefindsourcellc'
p1358
atp1359
Rp1360
sS'whois.launchpad.com'
p1361
g1
((lp1362
S'launchpadinchostgator'
p1363
aS'enduranceretail'
p1364
aS'launchpadcominc'
p1365
atp1366
Rp1367
sS'whois.hupo.com'
p1368
g1
((lp1369
S'guangzhoumingyanginformationtechnologycoltd'
p1370
atp1371
Rp1372
sS'whois.visualmonster.com'
p1373
g1
((lp1374
S'visualmonsterinc'
p1375
atp1376
Rp1377
sS'whois.iconicnamesllc.com'
p1378
g1
((lp1379
S'iconicnamesllc'
p1380
atp1381
Rp1382
sS'whois.twt.it'
p1383
g1
((lp1384
S'twtspa'
p1385
atp1386
Rp1387
sS'whois.fetchregistrar.com'
p1388
g1
((lp1389
S'fetchregistrarllc'
p1390
atp1391
Rp1392
sS'whois.2imagen.net'
p1393
g1
((lp1394
S'tecnologiadesarrolloymercadosderldecv'
p1395
atp1396
Rp1397
sS'whois.sibername.com'
p1398
g1
((lp1399
S'sibernameinternetandsoftwaretechnologiesinc'
p1400
atp1401
Rp1402
sS'whois.slowputtdomainsllc.com'
p1403
g1
((lp1404
S'slowputtdomainsllc'
p1405
atp1406
Rp1407
sS'whois.namebay.com'
p1408
g1
((lp1409
S'namebay'
p1410
atp1411
Rp1412
sS'whois.namesstopherellc.com'
p1413
g1
((lp1414
S'namesstopherellc'
p1415
atp1416
Rp1417
sS'whois.moniker.com'
p1418
g1
((lp1419
S'monikeronlineservicesllc'
p1420
atp1421
Rp1422
sS'whois.domainsite.com'
p1423
g1
((lp1424
S'domainsiteinc'
p1425
atp1426
Rp1427
sS'whois.domainnamedriveway.com'
p1428
g1
((lp1429
S'domainnamedrivewayinc'
p1430
atp1431
Rp1432
sS'whois.planetdomain.com'
p1433
g1
((lp1434
S'planetdomainptyltd'
p1435
atp1436
Rp1437
sS'whois.bestdropnamesllc.com'
p1438
g1
((lp1439
S'bestdropnamesllc'
p1440
atp1441
Rp1442
sS'whois.eagleeyedomains.com'
p1443
g1
((lp1444
S'eagleeyedomainsllc'
p1445
aS'registercom'
p1446
atp1447
Rp1448
sS'whois.xiamendomains.com'
p1449
g1
((lp1450
S'xiamendomainsinc'
p1451
atp1452
Rp1453
sS'whois.enom379.com'
p1454
g1
((lp1455
S'enom379incorporated'
p1456
atp1457
Rp1458
sS'whois.nameconnectionareallc.com'
p1459
g1
((lp1460
S'nameconnectionareallc'
p1461
atp1462
Rp1463
sS'whois.domainclip.com'
p1464
g1
((lp1465
S'domainclipdomainsinc'
p1466
atp1467
Rp1468
sS'whois.bluerazor.com'
p1469
g1
((lp1470
S'bluerazordomainsllc'
p1471
atp1472
Rp1473
sS'whois.enom371.com'
p1474
g1
((lp1475
S'enom371incorporated'
p1476
atp1477
Rp1478
sS'whois.dynadot3.com'
p1479
g1
((lp1480
S'dynadot3llc'
p1481
atp1482
Rp1483
sS'whois.firstroundnamesllc.com'
p1484
g1
((lp1485
S'firstroundnamesllc'
p1486
atp1487
Rp1488
sS'whois.topleveldomainsllc.com'
p1489
g1
((lp1490
S'topleveldomainsllc'
p1491
atp1492
Rp1493
sS'whois.retailstudio.com'
p1494
g1
((lp1495
S'elbgroupinc'
p1496
atp1497
Rp1498
sS'whois.annulet.com'
p1499
g1
((lp1500
S'annuletinc'
p1501
aS'annuletllc'
p1502
atp1503
Rp1504
sS'whois.netestate.com'
p1505
g1
((lp1506
S'netestatellc'
p1507
atp1508
Rp1509
sS'whois.dotroll.com'
p1510
g1
((lp1511
S'dotrollkft'
p1512
atp1513
Rp1514
sS'whois.enom415.com'
p1515
g1
((lp1516
S'enom415incorporated'
p1517
atp1518
Rp1519
sS'whois.namegrabllc.com'
p1520
g1
((lp1521
S'namegrabllc'
p1522
atp1523
Rp1524
sS'whois.domaincatcherllc.com'
p1525
g1
((lp1526
S'domaincatcherllc'
p1527
atp1528
Rp1529
sS'whois.binero.se'
p1530
g1
((lp1531
S'bineroab'
p1532
atp1533
Rp1534
sS'whois.domaincollage.com'
p1535
g1
((lp1536
S'domaincollagellc'
p1537
aS'registercom'
p1538
atp1539
Rp1540
sS'whois.registrar.amazon.com'
p1541
g1
((lp1542
S'amazonregistrarinc'
p1543
atp1544
Rp1545
sS'whois.oldtowndomains.com'
p1546
g1
((lp1547
S'oldtowndomainscomllc'
p1548
atp1549
Rp1550
sS'whois.eastenddomainsllc.com'
p1551
g1
((lp1552
S'eastenddomainsllc'
p1553
atp1554
Rp1555
sS'whois.platinumregistrar.com'
p1556
g1
((lp1557
S'platinumregistrarinc'
p1558
atp1559
Rp1560
sS'whois.hebeidomains.com'
p1561
g1
((lp1562
S'hebeiguojimaoyishanghailtddbahebeidomainscom'
p1563
atp1564
Rp1565
sS'whois.udag.net'
p1566
g1
((lp1567
S'uniteddomainsag'
p1568
atp1569
Rp1570
sS'whois.hosting.kr'
p1571
g1
((lp1572
S'megazonecorpdbahostingkr'
p1573
atp1574
Rp1575
sS'whois.paragonnames.net'
p1576
g1
((lp1577
S'paragoninternetgroupltdtaparagonnames'
p1578
aS'paragoninternetgroupltd'
p1579
atp1580
Rp1581
sS'whois.domaininthebasket.com'
p1582
g1
((lp1583
S'domaininthebasketcomllc'
p1584
atp1585
Rp1586
sS'whois.dynadot4.com'
p1587
g1
((lp1588
S'dynadot4llc'
p1589
atp1590
Rp1591
sS'whois.thirdroundnamesllc.com'
p1592
g1
((lp1593
S'thirdroundnamesllc'
p1594
atp1595
Rp1596
sS'whois.domainamania.com'
p1597
g1
((lp1598
S'domainamaniacomllc'
p1599
atp1600
Rp1601
sS'whois.duckbilleddomains.com'
p1602
g1
((lp1603
S'duckbilleddomainscomllc'
p1604
atp1605
Rp1606
sS'whois.trafficnames.net'
p1607
g1
((lp1608
S'trafficnamesincorporated'
p1609
atp1610
Rp1611
sS'whois.enom387.com'
p1612
g1
((lp1613
S'enom387incorporated'
p1614
atp1615
Rp1616
sS'whois.jumboname.com'
p1617
g1
((lp1618
S'jumbonameinc'
p1619
atp1620
Rp1621
sS'whois.magnoliadomains.com'
p1622
g1
((lp1623
S'magnoliadomainsllc'
p1624
aS'registercom'
p1625
atp1626
Rp1627
sS'whois.aquariusdomains.com'
p1628
g1
((lp1629
S'aquariusdomainsllc'
p1630
atp1631
Rp1632
sS'whois.myobnet.com'
p1633
g1
((lp1634
S'uberaustraliae1ptyltd'
p1635
aS'uberglobale1ptyltd'
p1636
atp1637
Rp1638
sS'whois.domain1source.com'
p1639
g1
((lp1640
S'1domainsourceltddbadomain1sourceinc'
p1641
atp1642
Rp1643
sS'whois.encirca.com'
p1644
g1
((lp1645
S'encircainc'
p1646
atp1647
Rp1648
sS'whois.goaustraliadomains.com'
p1649
g1
((lp1650
S'goaustraliadomainsllc'
p1651
atp1652
Rp1653
sS'whois.pearlnamingservice.com'
p1654
g1
((lp1655
S'pearlnamingservicecomllc'
p1656
atp1657
Rp1658
sS'whois.pacificdomainsllc.com'
p1659
g1
((lp1660
S'pacificdomainsllc'
p1661
atp1662
Rp1663
sS'whois.lws.net'
p1664
g1
((lp1665
S'lwsdbalignewebservices'
p1666
aS'lwssarl'
p1667
aS'lignewebservicessarldbalws'
p1668
atp1669
Rp1670
sS'whois.1isi.com'
p1671
g1
((lp1672
S'1internetservicesinternationalincdba1isi'
p1673
atp1674
Rp1675
sS'whois.namestopllc.com'
p1676
g1
((lp1677
S'namestopllc'
p1678
atp1679
Rp1680
sS'whois.euturbo.com'
p1681
g1
((lp1682
S'euturbocomllc'
p1683
atp1684
Rp1685
sS'whois.domainparkblock.com'
p1686
g1
((lp1687
S'domainparkblockcomllc'
p1688
atp1689
Rp1690
sS'whois.dynadot7.com'
p1691
g1
((lp1692
S'dynadot7llc'
p1693
atp1694
Rp1695
sS'whois.majorleaguedomains.com'
p1696
g1
((lp1697
S'majorleaguedomainsllc'
p1698
aS'registercom'
p1699
atp1700
Rp1701
sS'whois.nameselite.com'
p1702
g1
((lp1703
S'nameselitellc'
p1704
atp1705
Rp1706
sS'whois.hangtendomains.com'
p1707
g1
((lp1708
S'hangtendomainsllc'
p1709
aS'registercom'
p1710
atp1711
Rp1712
sS'whois.raregemdomainsllc.com'
p1713
g1
((lp1714
S'raregemdomainsllc'
p1715
atp1716
Rp1717
sS'whois.catchdeletingnamesllc.com'
p1718
g1
((lp1719
S'catchdeletingnamesllc'
p1720
atp1721
Rp1722
sS'whois.communigal.net'
p1723
g1
((lp1724
S'communigalcommunicationltd'
p1725
aS'sitenamecomllc'
p1726
aS'galcommunicationcommunigalltd'
p1727
aS'no1registrarllc'
p1728
aS'sitenameltd'
p1729
atp1730
Rp1731
sS'whois.dynadot12.com'
p1732
g1
((lp1733
S'dynadot12llc'
p1734
atp1735
Rp1736
sS'whois.nameking.com'
p1737
g1
((lp1738
S'namekingcominc'
p1739
atp1740
Rp1741
sS'whois.vedacore.com'
p1742
g1
((lp1743
S'vedacore'
p1744
atp1745
Rp1746
sS'ewhois.sundns.com'
p1747
g1
((lp1748
S'shanghaiyovolenetworksinc'
p1749
atp1750
Rp1751
sS'whois.bizcn.com'
p1752
g1
((lp1753
S'bizcncominc'
p1754
atp1755
Rp1756
sS'whois.domainshype.com'
p1757
g1
((lp1758
S'domainshypecominc'
p1759
atp1760
Rp1761
sS'whois.azprivatez.com'
p1762
g1
((lp1763
S'azprivatezllc'
p1764
atp1765
Rp1766
sS'whois.openname.com'
p1767
g1
((lp1768
S'opennamellc'
p1769
atp1770
Rp1771
sS'whois.azdomainz.com'
p1772
g1
((lp1773
S'azdomainzllc'
p1774
atp1775
Rp1776
sS'whois.enom413.com'
p1777
g1
((lp1778
S'enom413incorporated'
p1779
atp1780
Rp1781
sS'whois.hostingireland.ie'
p1782
g1
((lp1783
S'protocolinternettechnologylimitedtahostingireland'
p1784
atp1785
Rp1786
sS'whois.storkregistry.com'
p1787
g1
((lp1788
S'storkregistryinc'
p1789
atp1790
Rp1791
sS'whois.domainestaaqui.com'
p1792
g1
((lp1793
S'domainestaaquillc'
p1794
atp1795
Rp1796
sS'whois.eb.com.cn'
p1797
g1
((lp1798
S'hangzhoudianshanginternettechnologycoltd'
p1799
atp1800
Rp1801
sS'whois.nayana.com'
p1802
g1
((lp1803
S'internetnayanainc'
p1804
atp1805
Rp1806
sS'whois.global-village.de'
p1807
g1
((lp1808
S'globalvillagegmbh'
p1809
atp1810
Rp1811
sS'whois.gonbei.jp'
p1812
g1
((lp1813
S'interlinkcoltd'
p1814
atp1815
Rp1816
sS'whois.ilait.com'
p1817
g1
((lp1818
S'ilaitab'
p1819
atp1820
Rp1821
sS'whois.snagyournamellc.com'
p1822
g1
((lp1823
S'snagyournamellc'
p1824
atp1825
Rp1826
sS'whois.name.net'
p1827
g1
((lp1828
S'namenetinc'
p1829
atp1830
Rp1831
sS'whois-generic.marcaria.com'
p1832
g1
((lp1833
S'marcariacominternationalinc'
p1834
atp1835
Rp1836
sS'whois.markmonitor.com'
p1837
g1
((lp1838
S'markmonitorinc'
p1839
atp1840
Rp1841
sS'whois.maffavenue.com'
p1842
g1
((lp1843
S'maffavenueinc'
p1844
atp1845
Rp1846
sS'whois.chinanet.cc'
p1847
g1
((lp1848
S'chinanettechnologysuzhoucoltd'
p1849
atp1850
Rp1851
sS'whois.eunamesoregon.com'
p1852
g1
((lp1853
S'eunamesoregoncomllc'
p1854
atp1855
Rp1856
sS'whois.enomv.com'
p1857
g1
((lp1858
S'enomvinc'
p1859
atp1860
Rp1861
sS'whois.fenominal.com'
p1862
g1
((lp1863
S'fenominalinc'
p1864
atp1865
Rp1866
sS'whois.domainsovereigns.com'
p1867
g1
((lp1868
S'domainsovereignscomllc'
p1869
atp1870
Rp1871
sS'whois.catalog.com'
p1872
g1
((lp1873
S'catalogcominc'
p1874
atp1875
Rp1876
sS'whois.advaloremdomains.com'
p1877
g1
((lp1878
S'advaloremdomainsllc'
p1879
atp1880
Rp1881
sS'whois.internetcap.us'
p1882
g1
((lp1883
S'name118inc'
p1884
atp1885
Rp1886
sS'whois.namearsenal.com'
p1887
g1
((lp1888
S'namearsenalcomllc'
p1889
atp1890
Rp1891
sS'whois.1hostcanada.com'
p1892
g1
((lp1893
S'1hostcanadainc'
p1894
atp1895
Rp1896
sS'whois.enom443.com'
p1897
g1
((lp1898
S'enom443incorporated'
p1899
atp1900
Rp1901
sS'whois.enom661.com'
p1902
g1
((lp1903
S'enom661inc'
p1904
atp1905
Rp1906
sS'whois.porkbun.com'
p1907
g1
((lp1908
S'porkbunllc'
p1909
atp1910
Rp1911
sS'whois.webnic.cc'
p1912
g1
((lp1913
S'webcc'
p1914
aS'webcommercecommunicationslimiteddbawebniccc'
p1915
atp1916
Rp1917
sS'whois.topshelfdomainsllc.com'
p1918
g1
((lp1919
S'topshelfdomainsllc'
p1920
atp1921
Rp1922
sS'whois.extranetdeclientes.com'
p1923
g1
((lp1924
S'estrategiaswebsitesl'
p1925
aS'tecnocraticacentrodedatossl'
p1926
atp1927
Rp1928
sS'whois.enomfor.com'
p1929
g1
((lp1930
S'enomforinc'
p1931
atp1932
Rp1933
sS'whois.enom635.com'
p1934
g1
((lp1935
S'enom635inc'
p1936
atp1937
Rp1938
sS'whois.worldbizdomains.com'
p1939
g1
((lp1940
S'worldbizdomainsllc'
p1941
atp1942
Rp1943
sS'whois.akky.mx'
p1944
g1
((lp1945
S'networkinformationcentermexicosc'
p1946
aS'akkyunadivisiondenicmexico'
p1947
atp1948
Rp1949
sS'whois.gocanadadomains.com'
p1950
g1
((lp1951
S'gocanadadomainsllc'
p1952
atp1953
Rp1954
sS'whois.internet.bs'
p1955
g1
((lp1956
S'internetdomainservicebscorp'
p1957
aS'internetbscorp'
p1958
atp1959
Rp1960
sS'whois.turbonamesllc.com'
p1961
g1
((lp1962
S'turbonamesllc'
p1963
atp1964
Rp1965
sS'whois.devildogdomains.com'
p1966
g1
((lp1967
S'devildogdomainscomllc'
p1968
atp1969
Rp1970
sS'whois.domainingoro.com'
p1971
g1
((lp1972
S'domainingorollc'
p1973
atp1974
Rp1975
sS'whois.flancrestdomains.com'
p1976
g1
((lp1977
S'flancrestdomainscomllc'
p1978
atp1979
Rp1980
sS'whois.enom663.com'
p1981
g1
((lp1982
S'enom663inc'
p1983
atp1984
Rp1985
sS'whois.catchdomainsllc.com'
p1986
g1
((lp1987
S'catchdomainsllc'
p1988
atp1989
Rp1990
sS'whois.registrationtek.com'
p1991
g1
((lp1992
S'registrationtechnologiesinc'
p1993
atp1994
Rp1995
sS'whois.nameemperor.com'
p1996
g1
((lp1997
S'nameemperorcomllc'
p1998
atp1999
Rp2000
sS'whois.enom375.com'
p2001
g1
((lp2002
S'enom375incorporated'
p2003
atp2004
Rp2005
sS'whois.domaincomesaround.com'
p2006
g1
((lp2007
S'domaincomesaroundcomllc'
p2008
atp2009
Rp2010
sS'whois.dropcatchmarketplacellc.com'
p2011
g1
((lp2012
S'dropcatchmarketplacellc'
p2013
atp2014
Rp2015
sS'whois.ename.com'
p2016
g1
((lp2017
S'enametechnologycoltd'
p2018
aS'domainnamenetworkptyltd'
p2019
atp2020
Rp2021
sS'whois.rumahweb.com'
p2022
g1
((lp2023
S'cvrumahwebindonesia'
p2024
atp2025
Rp2026
sS'whois.linedrivedomains.com'
p2027
g1
((lp2028
S'linedrivedomainsllc'
p2029
atp2030
Rp2031
sS'whois.cirs.us'
p2032
g1
((lp2033
S'name112inc'
p2034
atp2035
Rp2036
sS'whois.psi.jp'
p2037
g1
((lp2038
S'psijapaninc'
p2039
atp2040
Rp2041
sS'whois.sitefrenzy.com'
p2042
g1
((lp2043
S'sitefrenzycomllc'
p2044
atp2045
Rp2046
sS'whois.domainsurgeon.com'
p2047
g1
((lp2048
S'domainsurgeoncomllc'
p2049
atp2050
Rp2051
sS'whois.youdamain.com'
p2052
g1
((lp2053
S'youdamaincomllc'
p2054
atp2055
Rp2056
sS'whois.authenticweb.com'
p2057
g1
((lp2058
S'authenticwebinc'
p2059
atp2060
Rp2061
sS'whois.fabulous.com'
p2062
g1
((lp2063
S'fabulouscomptyltd'
p2064
atp2065
Rp2066
sS'whois.domainsourcellc.com'
p2067
g1
((lp2068
S'domainsourcellc'
p2069
atp2070
Rp2071
sS'whois.ladasdomains.com'
p2072
g1
((lp2073
S'ladasdomainsllc'
p2074
atp2075
Rp2076
sS'whois.luckyelephantdomains.com'
p2077
g1
((lp2078
S'luckyelephantdomainsllc'
p2079
atp2080
Rp2081
sS'whois.ccireg.com'
p2082
g1
((lp2083
S'cciregsa'
p2084
atp2085
Rp2086
sS'whois.crystalcoal.com'
p2087
g1
((lp2088
S'crystalcoalinc'
p2089
atp2090
Rp2091
sS'whois.dotmedia.com'
p2092
g1
((lp2093
S'dotmedialimited'
p2094
atp2095
Rp2096
sS'whois.dns.com.cn'
p2097
g1
((lp2098
S'beijinginnovativelinkagetechnologyltddbadnscomcn'
p2099
aS'beijinginnovativelinkagetechnologyltd'
p2100
atp2101
Rp2102
sS'whois.nicreg.com'
p2103
g1
((lp2104
S'nicregllc'
p2105
atp2106
Rp2107
sS'whois.toglodo.com'
p2108
g1
((lp2109
S'toglodosa'
p2110
atp2111
Rp2112
sS'whois.dattatec.com'
p2113
g1
((lp2114
S'dattateccomsrl'
p2115
atp2116
Rp2117
sS'whois.namecroc.com'
p2118
g1
((lp2119
S'namecroccomllc'
p2120
atp2121
Rp2122
sS'whois.enom1034.com'
p2123
g1
((lp2124
S'enom1034inc'
p2125
atp2126
Rp2127
sS'whois.burnsidedomains.com'
p2128
g1
((lp2129
S'burnsidedomainscomllc'
p2130
atp2131
Rp2132
sS'whois.eranet.com'
p2133
g1
((lp2134
S'eranetinternationallimited'
p2135
atp2136
Rp2137
sS'whois.cronon.net'
p2138
g1
((lp2139
S'crononag'
p2140
atp2141
Rp2142
sS'whois.domainyeti.com'
p2143
g1
((lp2144
S'domainyeticomllc'
p2145
atp2146
Rp2147
sS'whois.website.ws'
p2148
g1
((lp2149
S'globaldomainsinternationalincdbadomaincostclubcom'
p2150
aS'domaincostclub'
p2151
aS'globaldomainsinternational'
p2152
atp2153
Rp2154
sS'whois.rankusa.com'
p2155
g1
((lp2156
S'rankusainc'
p2157
atp2158
Rp2159
sS'whois.enom395.com'
p2160
g1
((lp2161
S'enom395incorporated'
p2162
atp2163
Rp2164
sS'whois.namesilo.com'
p2165
g1
((lp2166
S'toekienterprisesco'
p2167
aS'namesilollc'
p2168
atp2169
Rp2170
sS'whois.1and1.com'
p2171
g1
((lp2172
S'11internetse'
p2173
atp2174
Rp2175
sS'whois.bigrock.com'
p2176
g1
((lp2177
S'bigrocksolutionslimited'
p2178
aS'bigrocksolutionsltd'
p2179
atp2180
Rp2181
sS'whois.nictrade.se'
p2182
g1
((lp2183
S'nictradeinternetidentidyproviderab'
p2184
aS'nictradeinternetidentityproviderab'
p2185
atp2186
Rp2187
sS'whois.enom439.com'
p2188
g1
((lp2189
S'enom439incorporated'
p2190
atp2191
Rp2192
sS'whois.comlaude.com'
p2193
g1
((lp2194
S'nomiqltddbacomlaude'
p2195
atp2196
Rp2197
sS'whois.ascio.com'
p2198
g1
((lp2199
S'asciotechnologiesinc'
p2200
aS'asciotechnologiesincdanmarkfilialafasciotechnologiesincusa'
p2201
atp2202
Rp2203
sS'whois.backslapdomains.com'
p2204
g1
((lp2205
S'backslapdomains'
p2206
atp2207
Rp2208
sS'whois.yourdomainking.com'
p2209
g1
((lp2210
S'yourdomainkinginc'
p2211
atp2212
Rp2213
sS'whois.endeavourdomains.com'
p2214
g1
((lp2215
S'endeavourdomainsllc'
p2216
atp2217
Rp2218
sS'whois.snapsourcellc.com'
p2219
g1
((lp2220
S'snapsourcellc'
p2221
atp2222
Rp2223
sS'whois.bonamfortunamdomains.com'
p2224
g1
((lp2225
S'bonamfortunamdomainsllc'
p2226
atp2227
Rp2228
sS'whois.magnatedomains.com'
p2229
g1
((lp2230
S'magnatedomainsllc'
p2231
atp2232
Rp2233
sS'whois.yourdomainllc.com'
p2234
g1
((lp2235
S'yourdomainllc'
p2236
atp2237
Rp2238
sS'whois.deepseadomainsllc.com'
p2239
g1
((lp2240
S'deepseadomainsllc'
p2241
atp2242
Rp2243
sS'whois.streamlinedomains.com'
p2244
g1
((lp2245
S'streamlinedomainsllc'
p2246
atp2247
Rp2248
sS'whois.eunameflood.com'
p2249
g1
((lp2250
S'eunamefloodcomllc'
p2251
atp2252
Rp2253
sS'whois.naugus.com'
p2254
g1
((lp2255
S'nauguslimitedllc'
p2256
atp2257
Rp2258
sS'whois.srsplus.com'
p2259
g1
((lp2260
S'tldsllcdbasrsplus'
p2261
aS'registercom'
p2262
atp2263
Rp2264
sS'whois.enetica.com.au'
p2265
g1
((lp2266
S'eneticaptyltd'
p2267
atp2268
Rp2269
sS'whois.8hy.cn'
p2270
g1
((lp2271
S'huyiglobalinformationhongkonglimited'
p2272
aS'huyiglobalinformationresourcesholdingcompanyhongkonglimited'
p2273
atp2274
Rp2275
sS'whois.savethename.com'
p2276
g1
((lp2277
S'savethenamecomllc'
p2278
atp2279
Rp2280
sS'whois.maprilis.com.vn'
p2281
g1
((lp2282
S'aprilseainformationtechnologycorporation'
p2283
atp2284
Rp2285
sS'whois.dynadot11.com'
p2286
g1
((lp2287
S'dynadot11llc'
p2288
atp2289
Rp2290
sS'whois.enom5.com'
p2291
g1
((lp2292
S'enom5inc'
p2293
atp2294
Rp2295
sS'whois.midwestdomainsllc.com'
p2296
g1
((lp2297
S'midwestdomainsllc'
p2298
atp2299
Rp2300
sS'whois.octopusdomains.net'
p2301
g1
((lp2302
S'octopusdomainsnetllc'
p2303
atp2304
Rp2305
sS'whois.belmontdomains.com'
p2306
g1
((lp2307
S'belmontdomainscomllc'
p2308
atp2309
Rp2310
sS'whois.gozerdomains.com'
p2311
g1
((lp2312
S'gozerdomainscomllc'
p2313
atp2314
Rp2315
sS'whois.register.eu'
p2316
g1
((lp2317
S'registernvdbaregistereu'
p2318
atp2319
Rp2320
sS'whois.web4africa.net'
p2321
g1
((lp2322
S'web4africainc'
p2323
atp2324
Rp2325
sS'whois.corporatedomains.com'
p2326
g1
((lp2327
S'csccorporatedomainsinc'
p2328
atp2329
Rp2330
sS'whois.neubox.com'
p2331
g1
((lp2332
S'neuboxinternetsadecv'
p2333
atp2334
Rp2335
sS'whois.sbsnames.com'
p2336
g1
((lp2337
S'sbsnamesincorporated'
p2338
atp2339
Rp2340
sS'whois.enom373.com'
p2341
g1
((lp2342
S'enom373incorporated'
p2343
atp2344
Rp2345
sS'whois.flappydomain.com'
p2346
g1
((lp2347
S'flappydomaininc'
p2348
atp2349
Rp2350
sS'whois.biwo.com'
p2351
g1
((lp2352
S'chinaspringboardinc'
p2353
aS'ejeegroupholdingslimited'
p2354
atp2355
Rp2356
sS'whois.publicdomainregistry.com'
p2357
g1
((lp2358
S'clickregistrarincdbapublicdomainregistrycom'
p2359
aS'logicboxesnamingservicesltd'
p2360
aS'pdrltddbapublicdomainregistrycom'
p2361
atp2362
Rp2363
sS'nswhois.domainregistry.com'
p2364
g1
((lp2365
S'domainregistrycominc'
p2366
atp2367
Rp2368
sS'whois.yesnic.com'
p2369
g1
((lp2370
S'whoisnetworkscoltd'
p2371
atp2372
Rp2373
sS'whois.nameiconllc.com'
p2374
g1
((lp2375
S'nameiconllc'
p2376
atp2377
Rp2378
sS'whois.netlogistics.com.au'
p2379
g1
((lp2380
S'netlogisticsptyltd'
p2381
atp2382
Rp2383
sS'whois.alldomainsllc.com'
p2384
g1
((lp2385
S'alldomainsllc'
p2386
atp2387
Rp2388
sS'whois.chocolatechipdomains.com'
p2389
g1
((lp2390
S'chocolatechipdomainsllc'
p2391
atp2392
Rp2393
sS'whois.jarheaddomains.com'
p2394
g1
((lp2395
S'jarheaddomainscomllc'
p2396
atp2397
Rp2398
sS'whois.onlinenic.com'
p2399
g1
((lp2400
S'hostingukraineltd'
p2401
aS'onlinenicinc'
p2402
atp2403
Rp2404
sS'whois.sliceofheavendomains.com'
p2405
g1
((lp2406
S'sliceofheavendomainsllc'
p2407
atp2408
Rp2409
sS'whois.europeanconnectiononline.com'
p2410
g1
((lp2411
S'europeanconnectiononlinecomllc'
p2412
atp2413
Rp2414
sS'whois.your-server.de'
p2415
g1
((lp2416
S'hetzneronlinegmbh'
p2417
atp2418
Rp2419
sS'whois.longdrivedomainsllc.com'
p2420
g1
((lp2421
S'longdrivedomainsllc'
p2422
atp2423
Rp2424
sS'whois.namemaster.de'
p2425
g1
((lp2426
S'namemasterrcgmbh'
p2427
atp2428
Rp2429
sS'whois.searchnresq.com'
p2430
g1
((lp2431
S'searchnresqinc'
p2432
atp2433
Rp2434
sS'whois.sdsns.com'
p2435
g1
((lp2436
S'samjungdataservicecoltd'
p2437
atp2438
Rp2439
sS'whois.register4less.com'
p2440
g1
((lp2441
S'register4lessinc'
p2442
atp2443
Rp2444
sS'whois.62.net'
p2445
g1
((lp2446
S'shenzheninternetworksonlinetechnologycoltd62com'
p2447
aS'shenzheninternetworksonlinecoltd'
p2448
aS'shenzheninternetworksonlinetechnologycoltd'
p2449
atp2450
Rp2451
sS'whois.entrustdomains.com'
p2452
g1
((lp2453
S'entrustdomainsllc'
p2454
atp2455
Rp2456
sS'whois.instra.net'
p2457
g1
((lp2458
S'instracorporationptyltd'
p2459
atp2460
Rp2461
sS'vividwhois.vividdomains.com'
p2462
g1
((lp2463
S'vividdomains'
p2464
atp2465
Rp2466
sS'whois.1hostjapan.com'
p2467
g1
((lp2468
S'1hostjapaninc'
p2469
atp2470
Rp2471
sS'whois.netzadresse.at'
p2472
g1
((lp2473
S'netzadresseatdomainservicegmbh'
p2474
atp2475
Rp2476
sS'whois.pinkelephantdomains.com'
p2477
g1
((lp2478
S'registercom'
p2479
aS'pinkelephantdomainsllc'
p2480
atp2481
Rp2482
sS'whois.domainnamefwy.com'
p2483
g1
((lp2484
S'domainnamefwyinc'
p2485
atp2486
Rp2487
sS'whois.crazydomains.com'
p2488
g1
((lp2489
S'crazydomainsfzllc'
p2490
atp2491
Rp2492
sS'whois.melbourneit.com'
p2493
g1
((lp2494
S'melbourneitltddbainternetnamesworldwide'
p2495
aS'melbourneitltd'
p2496
atp2497
Rp2498
sS'whois.dropcatchingnamesllc.com'
p2499
g1
((lp2500
S'dropcatchingnamesllc'
p2501
atp2502
Rp2503
sS'whois.tldregistrarsolutions.com'
p2504
g1
((lp2505
S'tldregistrarsolutionsltd'
p2506
atp2507
Rp2508
sS'whois.webinfinityinc.com'
p2509
g1
((lp2510
S'name107inc'
p2511
atp2512
Rp2513
sS'whois.domainsoverboard.com'
p2514
g1
((lp2515
S'domainsoverboardcomllc'
p2516
atp2517
Rp2518
sS'whois.v12domains.com'
p2519
g1
((lp2520
S'v12domainsllc'
p2521
atp2522
Rp2523
sS'whois.iserveyourdomain.com'
p2524
g1
((lp2525
S'iserveyourdomaincomllc'
p2526
atp2527
Rp2528
sS'whois.iaregistry.com'
p2529
g1
((lp2530
S'theregistryatinfoavenuellcdbaspiritcommunications'
p2531
aS'theregistryatinfoavenue'
p2532
atp2533
Rp2534
sS'whois.lcn.com'
p2535
g1
((lp2536
S'lcncomltd'
p2537
atp2538
Rp2539
sS'whois.35.com'
p2540
g1
((lp2541
S'35technologycoltd'
p2542
atp2543
Rp2544
sS'whois.cloudninedomains.com'
p2545
g1
((lp2546
S'cloudninedomainllc'
p2547
aS'registercom'
p2548
atp2549
Rp2550
sS'whois.findyouadomain.com'
p2551
g1
((lp2552
S'findyouadomaincomllc'
p2553
atp2554
Rp2555
sS'whois.z-core.com'
p2556
g1
((lp2557
S'oneputtincformerly'
p2558
atp2559
Rp2560
sS'whois.omnis.com'
p2561
g1
((lp2562
S'omnisnetworkllc'
p2563
atp2564
Rp2565
sS'com.whois.ods.vn'
p2566
g1
((lp2567
S'onlinedataservicesjointstockcompany'
p2568
atp2569
Rp2570
sS'whois.enom463.com'
p2571
g1
((lp2572
S'enom463incorporated'
p2573
atp2574
Rp2575
sS'whois.domainthenet.com'
p2576
g1
((lp2577
S'domainthenettechnologiesltd'
p2578
aS'domainthenetcom'
p2579
atp2580
Rp2581
sS'whois.atakteknoloji.com'
p2582
g1
((lp2583
S'atakdomain'
p2584
aS'atakdomainhostinginternetvebilgiteknolojilerilimitedsirketidbaatakteknoloji'
p2585
atp2586
Rp2587
sS'whois.namesourcedomains.com'
p2588
g1
((lp2589
S'namesourcedomainsllc'
p2590
aS'registercom'
p2591
atp2592
Rp2593
sS'whois.backstopnamesllc.com'
p2594
g1
((lp2595
S'backstopnamesllc'
p2596
atp2597
Rp2598
sS'whois.fastballdomainsllc.com'
p2599
g1
((lp2600
S'fastballdomainsllc'
p2601
atp2602
Rp2603
sS'whois.getyername.com'
p2604
g1
((lp2605
S'aimhighincdbagetyername'
p2606
atp2607
Rp2608
sS'whois.tirupatidomains.in'
p2609
g1
((lp2610
S'tirupatidomainsandhostingprivatelimited'
p2611
atp2612
Rp2613
sS'whois.inic.ch'
p2614
g1
((lp2615
S'inicgmbh'
p2616
atp2617
Rp2618
sS'whois.domainsnapperllc.com'
p2619
g1
((lp2620
S'domainsnapperllc'
p2621
atp2622
Rp2623
sS'whois.sharkweekdomainsllc.com'
p2624
g1
((lp2625
S'sharkweekdomainsllc'
p2626
atp2627
Rp2628
sS'whois.domaincirclellc.com'
p2629
g1
((lp2630
S'domaincirclellc'
p2631
atp2632
Rp2633
sS'whois.domaindropsllc.com'
p2634
g1
((lp2635
S'domaindropllc'
p2636
atp2637
Rp2638
sS'whois.nordnet.net'
p2639
g1
((lp2640
S'nordnet'
p2641
atp2642
Rp2643
sS'whois.dharanadomains.com'
p2644
g1
((lp2645
S'name114inc'
p2646
atp2647
Rp2648
sS'whois.afterdarkdomainsincorporated.com'
p2649
g1
((lp2650
S'afterdarkdomainsincorporated'
p2651
atp2652
Rp2653
sS'whois.oregonurls.com'
p2654
g1
((lp2655
S'oregonurlscomllc'
p2656
atp2657
Rp2658
sS'whois.domainerschoice.com'
p2659
g1
((lp2660
S'nanjingimperiosustechnologycoltd'
p2661
atp2662
Rp2663
sS'whois.tag-domains.com'
p2664
g1
((lp2665
S'tagidomains'
p2666
atp2667
Rp2668
sS'whois.nameweb.biz'
p2669
g1
((lp2670
S'namewebbvba'
p2671
atp2672
Rp2673
sS'whois.noteworthydomains.com'
p2674
g1
((lp2675
S'registercom'
p2676
aS'noteworthydomainsllc'
p2677
atp2678
Rp2679
sS'whois.bottledomains.com'
p2680
g1
((lp2681
S'bottledomainsinc'
p2682
atp2683
Rp2684
sS'whois.enom1010.com'
p2685
g1
((lp2686
S'enom1010inc'
p2687
atp2688
Rp2689
sS'whois.anchovy.com'
p2690
g1
((lp2691
S'hoganlovellsinternationalllp'
p2692
atp2693
Rp2694
sS'whois.findyouaname.com'
p2695
g1
((lp2696
S'findyouanamecomllc'
p2697
atp2698
Rp2699
sS'whois.dynadot10.com'
p2700
g1
((lp2701
S'dynadot10llc'
p2702
atp2703
Rp2704
sS'whois.domaininthehole.com'
p2705
g1
((lp2706
S'domainintheholecomllc'
p2707
atp2708
Rp2709
sS'whois.onlinenameservices.com'
p2710
g1
((lp2711
S'name109inc'
p2712
atp2713
Rp2714
sS'whois.topsystem.com'
p2715
g1
((lp2716
S'topsystemllc'
p2717
atp2718
Rp2719
sS'whois.domainnamepath.com'
p2720
g1
((lp2721
S'domainnamepathinc'
p2722
atp2723
Rp2724
sS'whois.pananames.com'
p2725
g1
((lp2726
S'urlsolutionsinc'
p2727
atp2728
Rp2729
sS'whois.millennialnamesllc.com'
p2730
g1
((lp2731
S'millennialnamesllc'
p2732
atp2733
Rp2734
sS'whois.pararescuedomains.com'
p2735
g1
((lp2736
S'pararescuedomainscomllc'
p2737
atp2738
Rp2739
sS'whois.dynadot9.com'
p2740
g1
((lp2741
S'dynadot9llc'
p2742
atp2743
Rp2744
sS'whois.resellercamp.com'
p2745
g1
((lp2746
S'cvjogjacamp'
p2747
atp2748
Rp2749
sS'whois.layupdomainsllc.com'
p2750
g1
((lp2751
S'layupdomainsllc'
p2752
atp2753
Rp2754
sS'whois.ukrnames.com'
p2755
g1
((lp2756
S'centerofukrainianinternetnames'
p2757
aS'hostingukraineltd'
p2758
aS'centerofukrainianinternetnamesukrnames'
p2759
atp2760
Rp2761
sS'whois.topvhost.net'
p2762
g1
((lp2763
S'guangzhouehosttechcoltd'
p2764
atp2765
Rp2766
sS'whois.dynadot.com'
p2767
g1
((lp2768
S'dynadotllc'
p2769
atp2770
Rp2771
sS'whois.profilebuilder.com'
p2772
g1
((lp2773
S'interwebadvertisingdbaprofilebuilder'
p2774
aS'profilebuildercomllc'
p2775
atp2776
Rp2777
sS'whois.123-reg.co.uk'
p2778
g1
((lp2779
S'webfusionlimited'
p2780
aS'123reglimited'
p2781
aS'meshdigitallimited'
p2782
atp2783
Rp2784
sS'whois.fiducia.lv'
p2785
g1
((lp2786
S'fiduciallclatvijasparstavnieciba'
p2787
atp2788
Rp2789
sS'whois.domainalacarte.com'
p2790
g1
((lp2791
S'domainalacartellc'
p2792
aS'registercom'
p2793
atp2794
Rp2795
sS'whois.iisp.com'
p2796
g1
((lp2797
S'zhuhainaisinikeinformationtechnologycoltd'
p2798
aS'guangdongnaisinikeinformationtechnologycoltd'
p2799
atp2800
Rp2801
sS'whois.domaincentral.com.au'
p2802
g1
((lp2803
S'domaincentralaustraliaptyltd'
p2804
atp2805
Rp2806
sS'whois.domainadministration.com'
p2807
g1
((lp2808
S'domainadministrationcomllc'
p2809
atp2810
Rp2811
sS'whois.1198.cn'
p2812
g1
((lp2813
S'shenzhenhulianxianfengtechnologycoltd'
p2814
atp2815
Rp2816
sS'whois.enom461.com'
p2817
g1
((lp2818
S'enom461incorporated'
p2819
atp2820
Rp2821
sS'whois.domainshopllc.com'
p2822
g1
((lp2823
S'domainshopllc'
p2824
atp2825
Rp2826
sS'whois.dropcatchminingllc.com'
p2827
g1
((lp2828
S'dropcatchminingllc'
p2829
atp2830
Rp2831
sS'whois.discountdomainsuk.com'
p2832
g1
((lp2833
S'discountdomainsukltd'
p2834
aS'discountdomainsltd'
p2835
atp2836
Rp2837
sS'whois.west263.com'
p2838
g1
((lp2839
S'chengduwestdimensiondigitaltechnologycoltd'
p2840
atp2841
Rp2842
sS'whois.neworderdomains.com'
p2843
g1
((lp2844
S'neworderdomainsllc'
p2845
aS'registercom'
p2846
atp2847
Rp2848
sS'whois.namespro.ca'
p2849
g1
((lp2850
S'namesprosolutionsinc'
p2851
atp2852
Rp2853
sS'whois.namecatchzonellc.com'
p2854
g1
((lp2855
S'namecatchzonellc'
p2856
atp2857
Rp2858
sS'whois.namemax.cn'
p2859
g1
((lp2860
S'beijingwangzuntechnologycoltd'
p2861
atp2862
Rp2863
sS'whois.enterprice.net'
p2864
g1
((lp2865
S'epagdomainservicesgmbh'
p2866
atp2867
Rp2868
sS'whois.activeregistrar.com'
p2869
g1
((lp2870
S'activeregistrarinc'
p2871
atp2872
Rp2873
sS'whois.1hostchina.com'
p2874
g1
((lp2875
S'1hostchinainc'
p2876
atp2877
Rp2878
sS'whois.touchdowndomainsllc.com'
p2879
g1
((lp2880
S'touchdowndomainsllc'
p2881
atp2882
Rp2883
sS'whois.domainpeople.com'
p2884
g1
((lp2885
S'domainpeopleinc'
p2886
atp2887
Rp2888
sS'whois.hazeldomains.com'
p2889
g1
((lp2890
S'hazeldomainsinc'
p2891
atp2892
Rp2893
sS'whois.betterthanaveragedomains.com'
p2894
g1
((lp2895
S'betterthanaveragedomainscomllc'
p2896
atp2897
Rp2898
sS'whois.domain.com'
p2899
g1
((lp2900
S'domaincomllc'
p2901
atp2902
Rp2903
sS'whois.domainregservices.com'
p2904
g1
((lp2905
S'name115inc'
p2906
atp2907
Rp2908
sS'whois.oleane.net'
p2909
g1
((lp2910
S'orange'
p2911
atp2912
Rp2913
sS'whois.king-domains.com'
p2914
g1
((lp2915
S'kingdomainsincorporated'
p2916
atp2917
Rp2918
sS'whois.freestyleholdings.com'
p2919
g1
((lp2920
S'name116inc'
p2921
atp2922
Rp2923
sS'whois.0101domain.com'
p2924
g1
((lp2925
S'0101internetinc'
p2926
aS'friendsmarketinginc0101hostcom'
p2927
atp2928
Rp2929
sS'whois.whiteglovedomains.com'
p2930
g1
((lp2931
S'whiteglovedomainsincorporated'
p2932
atp2933
Rp2934
sS'whois.enom659.com'
p2935
g1
((lp2936
S'enom659inc'
p2937
atp2938
Rp2939
sS'whois.guoxuwang.cn'
p2940
g1
((lp2941
S'beijingguoxunetworktechnologycoltd'
p2942
atp2943
Rp2944
sS'whois.sugarcubedomains.com'
p2945
g1
((lp2946
S'sugarcubedomainsllc'
p2947
aS'registercom'
p2948
atp2949
Rp2950
sS'whois.imena.ua'
p2951
g1
((lp2952
S'internetinvestltddbaimenaua'
p2953
atp2954
Rp2955
sS'whois.world4you.com'
p2956
g1
((lp2957
S'world4youinternetservicesgmbh'
p2958
atp2959
Rp2960
sS'whois.clouddomainregistry.com'
p2961
g1
((lp2962
S'siliconhousenetpvtltd'
p2963
atp2964
Rp2965
sS'whois.discount-domain.com'
p2966
g1
((lp2967
S'gmointernetincdbaonamaecom'
p2968
aS'gmointernetinc'
p2969
atp2970
Rp2971
sS'whois.enom409.com'
p2972
g1
((lp2973
S'enom409incorporated'
p2974
atp2975
Rp2976
sS'whois.psi-usa.info'
p2977
g1
((lp2978
S'psiusaincdbadomainrobot'
p2979
atp2980
Rp2981
sS'whois.joinup.jp'
p2982
g1
((lp2983
S'wixiincorporated'
p2984
atp2985
Rp2986
sS'whois.columbianames.com'
p2987
g1
((lp2988
S'columbianamescomllc'
p2989
atp2990
Rp2991
sS'whois.cndns.cn'
p2992
g1
((lp2993
S'henanweichuangnetworktechnologycoltd'
p2994
atp2995
Rp2996
sS'whois.toptierdomainsllc.com'
p2997
g1
((lp2998
S'toptierdomainsllc'
p2999
atp3000
Rp3001
sS'whois.dotalliance.com'
p3002
g1
((lp3003
S'dotallianceinc'
p3004
atp3005
Rp3006
sS'whois.squidsailerdomains.com'
p3007
g1
((lp3008
S'squidsailerdomainscomllc'
p3009
aS'registercom'
p3010
atp3011
Rp3012
sS'whois.zoneofdomainsllc.com'
p3013
g1
((lp3014
S'zoneofdomainsllc'
p3015
atp3016
Rp3017
sS'whois.enom431.com'
p3018
g1
((lp3019
S'enom431incorporated'
p3020
atp3021
Rp3022
sS'whois.coralreefdomainsllc.com'
p3023
g1
((lp3024
S'coralreefdomainsllc'
p3025
atp3026
Rp3027
sS'whois.1api.net'
p3028
g1
((lp3029
S'1apigmbh'
p3030
atp3031
Rp3032
sS'whois.bonzaidomains.com'
p3033
g1
((lp3034
S'bonzaidomainsllc'
p3035
aS'registercom'
p3036
atp3037
Rp3038
sS'whois.blacknight.com'
p3039
g1
((lp3040
S'blacknightinternetsolutionsltd'
p3041
atp3042
Rp3043
sS'whois.netdorm.com'
p3044
g1
((lp3045
S'netdormincdbadnsexitcom'
p3046
atp3047
Rp3048
sS'whois.thirdfloordns.com'
p3049
g1
((lp3050
S'thirdfloordnscomllc'
p3051
atp3052
Rp3053
sS'whois.namecheap.com'
p3054
g1
((lp3055
S'namecheapinc'
p3056
atp3057
Rp3058
sS'whois.paimi.com'
p3059
g1
((lp3060
S'paimiinc'
p3061
aS'agrinooninc'
p3062
aS'namepalcom8022'
p3063
aS'namepalcom8003'
p3064
aS'namepalcom8020'
p3065
atp3066
Rp3067
sS'whois.mobilenameservices.com'
p3068
g1
((lp3069
S'mobilenameservicesinc'
p3070
atp3071
Rp3072
sS'whois.dinahosting.com'
p3073
g1
((lp3074
S'dinahostingsl'
p3075
atp3076
Rp3077
sS'whois.maff.com'
p3078
g1
((lp3079
S'maffinc'
p3080
atp3081
Rp3082
sS'grs-whois.cndns.com'
p3083
g1
((lp3084
S'shanghaimeichengtechnologyinformationdevelopmentcoltd'
p3085
atp3086
Rp3087
sS'whois.bookmyname.com'
p3088
g1
((lp3089
S'onlinesas'
p3090
atp3091
Rp3092
sS'whois.sunmounta.in'
p3093
g1
((lp3094
S'name108inc'
p3095
atp3096
Rp3097
sS'whois.dynadot8.com'
p3098
g1
((lp3099
S'dynadot8llc'
p3100
atp3101
Rp3102
sS'whois.secondroundnamesllc.com'
p3103
g1
((lp3104
S'secondroundnamesllc'
p3105
atp3106
Rp3107
sS'whois.astutium.com'
p3108
g1
((lp3109
S'astutiumlimited'
p3110
atp3111
Rp3112
sS'whois.serveisweb.com'
p3113
g1
((lp3114
S'swhostingcommunicationstechnologiessl'
p3115
atp3116
Rp3117
sS'whois.meshdigital.com'
p3118
g1
((lp3119
S'meshdigitallimited'
p3120
atp3121
Rp3122
sS'whois.brennercom.com'
p3123
g1
((lp3124
S'brennercomlimited'
p3125
atp3126
Rp3127
sS'whois.enom1.com'
p3128
g1
((lp3129
S'enom1inc'
p3130
atp3131
Rp3132
sS'whois.bouncepassdomainsllc.com'
p3133
g1
((lp3134
S'bouncepassdomainsllc'
p3135
atp3136
Rp3137
sS'whois.rrpproxy.net'
p3138
g1
((lp3139
S'keysystemsgmbh'
p3140
aS'delinkgmbh'
p3141
aS'iptwinssas'
p3142
atp3143
Rp3144
sS'whois.powernamers.com'
p3145
g1
((lp3146
S'powernamersinc'
p3147
atp3148
Rp3149
sS'whois.seymourdomains.com'
p3150
g1
((lp3151
S'seymourdomainsllc'
p3152
atp3153
Rp3154
sS'whois.curveballdomainsllc.com'
p3155
g1
((lp3156
S'curveballdomainsllc'
p3157
atp3158
Rp3159
sS'whois-all.nameshare.com'
p3160
g1
((lp3161
S'nameshareinc'
p3162
atp3163
Rp3164
sS'whois.gofullhouse.com'
p3165
g1
((lp3166
S'gofullhouseinc'
p3167
atp3168
Rp3169
sS'whois.brandnames.com'
p3170
g1
((lp3171
S'brandnamescomsarl'
p3172
atp3173
Rp3174
sS'whois.domainagent.co.nz'
p3175
g1
((lp3176
S'webdriveltd'
p3177
atp3178
Rp3179
sS'whois.uniregistrar.com'
p3180
g1
((lp3181
S'uniregistrarcorp'
p3182
atp3183
Rp3184
sS'whois2016.jprs.jp'
p3185
g1
((lp3186
S'japanregistryservicescoltdjprs'
p3187
aS'japanregistryservicescoltd'
p3188
atp3189
Rp3190
sS'whois.ibi.net'
p3191
g1
((lp3192
S'netpiacominc'
p3193
atp3194
Rp3195
sS'whois.dreamhost.com'
p3196
g1
((lp3197
S'dreamhostllc'
p3198
aS'dreamhost'
p3199
atp3200
Rp3201
sS'whois.ultraregistrar.com'
p3202
g1
((lp3203
S'ultraregistrarinc'
p3204
atp3205
Rp3206
sS'whois.nominalia.com'
p3207
g1
((lp3208
S'nominaliainternetsl'
p3209
atp3210
Rp3211
sS'whois.myorderbox.com'
p3212
g1
((lp3213
S'nic1inc'
p3214
atp3215
Rp3216
sS'whois.deerwood.name'
p3217
g1
((lp3218
S'name113inc'
p3219
atp3220
Rp3221
sS'whois.willamettenames.com'
p3222
g1
((lp3223
S'willamettenamescomllc'
p3224
atp3225
Rp3226
sS'whois.oiinternet.com.br'
p3227
g1
((lp3228
S'oiinternetsa'
p3229
atp3230
Rp3231
sS'whois.slowmotiondomainsllc.com'
p3232
g1
((lp3233
S'slowmotiondomainsllc'
p3234
atp3235
Rp3236
sS'whois.ireg.net'
p3237
g1
((lp3238
S'imperialregistrationsinc'
p3239
atp3240
Rp3241
sS'whois.entorno.com'
p3242
g1
((lp3243
S'entornodigitalsa'
p3244
atp3245
Rp3246
sS'whois.enomgmpservices.com'
p3247
g1
((lp3248
S'enomgmpservicesinc'
p3249
atp3250
Rp3251
sS'whois.dynadot6.com'
p3252
g1
((lp3253
S'dynadot6llc'
p3254
atp3255
Rp3256
sS'whois.notsofamousnames.com'
p3257
g1
((lp3258
S'notsofamousnamescomllc'
p3259
atp3260
Rp3261
sS'whois.finduaname.com'
p3262
g1
((lp3263
S'finduanamecomllc'
p3264
atp3265
Rp3266
sS'whois.dotology.com'
p3267
g1
((lp3268
S'dotholdinginc'
p3269
atp3270
Rp3271
sS'whois.nuxit.com'
p3272
g1
((lp3273
S'nuxit'
p3274
atp3275
Rp3276
sS'whois.bullrundomains.com'
p3277
g1
((lp3278
S'bullrundomainscomllc'
p3279
atp3280
Rp3281
sS'whois.101domain.com'
p3282
g1
((lp3283
S'101domaininc'
p3284
aS'101domaingrsltd'
p3285
atp3286
Rp3287
sS'whois.vertexnames.com'
p3288
g1
((lp3289
S'vertexnamescominc'
p3290
atp3291
Rp3292
sS'whois.easydns.com'
p3293
g1
((lp3294
S'easydnstechnologiesinc'
p3295
atp3296
Rp3297
sS'whois.625domains.com'
p3298
g1
((lp3299
S'enom625inc'
p3300
aS'625domainsnetworkincdbamy3com'
p3301
atp3302
Rp3303
sS'whois.domainsuccessllc.com'
p3304
g1
((lp3305
S'domainsuccessllc'
p3306
atp3307
Rp3308
sS'whois.extendnames.com'
p3309
g1
((lp3310
S'extendnamesinc'
p3311
atp3312
Rp3313
sS'whois.star-domain.jp'
p3314
g1
((lp3315
S'netowlinc'
p3316
atp3317
Rp3318
sS'whois.enom654.com'
p3319
g1
((lp3320
S'enom654inc'
p3321
atp3322
Rp3323
sS'whois.webair.com'
p3324
g1
((lp3325
S'webairinternetdevelopmentinc'
p3326
aS'webairinternetdevelopment'
p3327
atp3328
Rp3329
sS'whois.argotech.us'
p3330
g1
((lp3331
S'name104inc'
p3332
atp3333
Rp3334
sS'whois.gzidc.com'
p3335
g1
((lp3336
S'guangdongjinwanbangtechnologyinvestmentcoltd'
p3337
atp3338
Rp3339
sS'whois.domainhysteria.com'
p3340
g1
((lp3341
S'domainhysteriacomllc'
p3342
atp3343
Rp3344
sS'whois.easyspace.com'
p3345
g1
((lp3346
S'easyspaceltd'
p3347
atp3348
Rp3349
sS'whois.dropcatchlandingspotllc.com'
p3350
g1
((lp3351
S'dropcatchlandingspotllc'
p3352
atp3353
Rp3354
sS'whois.bigdipperdomains.com'
p3355
g1
((lp3356
S'bigdipperdomainsllc'
p3357
atp3358
Rp3359
sS'whois.namefinger.com'
p3360
g1
((lp3361
S'namefingercomllc'
p3362
atp3363
Rp3364
sS'whois.suempresa.com'
p3365
g1
((lp3366
S'wingunetworkssadecv'
p3367
aS'interplanetsadecv'
p3368
atp3369
Rp3370
sS'whois.namescout.com'
p3371
g1
((lp3372
S'namescoutcorp'
p3373
aS'namescoutcom'
p3374
atp3375
Rp3376
sS'whois.evonames.com'
p3377
g1
((lp3378
S'evoplusltd'
p3379
atp3380
Rp3381
sS'whois.enom435.com'
p3382
g1
((lp3383
S'enom435incorporated'
p3384
aS'namepalcom8001inc'
p3385
atp3386
Rp3387
sS'whois.name.cc'
p3388
g1
((lp3389
S'nameccinc'
p3390
aS'namepalcom8020'
p3391
atp3392
Rp3393
sS'whois.freedropzonellc.com'
p3394
g1
((lp3395
S'freedropzonellc'
p3396
atp3397
Rp3398
sS'whois.tradeindia.com'
p3399
g1
((lp3400
S'tradeindiainc'
p3401
aS'infocomnetworkltd'
p3402
atp3403
Rp3404
sS'whois.mainreg.com'
p3405
g1
((lp3406
S'mainreginc'
p3407
atp3408
Rp3409
sS'whois.tucows.com'
p3410
g1
((lp3411
S'tucowsdomainsinc'
p3412
aS'tucowsinc'
p3413
atp3414
Rp3415
sS'whois.do-reg.jp'
p3416
g1
((lp3417
S'firstserverinc'
p3418
atp3419
Rp3420
sS'whois.dropcatchauctionllc.com'
p3421
g1
((lp3422
S'dropcatchauctionllc'
p3423
atp3424
Rp3425
sS'whois.domainnamehighway.com'
p3426
g1
((lp3427
S'domainnamehighwayllc'
p3428
atp3429
Rp3430
sS'whois.enomworld.com'
p3431
g1
((lp3432
S'enomworldinc'
p3433
atp3434
Rp3435
sS'whois.libris.com'
p3436
g1
((lp3437
S'domregltd'
p3438
aS'domregltddbalibriscom'
p3439
atp3440
Rp3441
sS'whois.enom433.com'
p3442
g1
((lp3443
S'enom433incorporated'
p3444
atp3445
Rp3446
sS'whois.72dns.com'
p3447
g1
((lp3448
S'foshanyidongnetworkcoltd'
p3449
atp3450
Rp3451
sS'whois.domainnameroot.com'
p3452
g1
((lp3453
S'domainnamerootllc'
p3454
aS'registercom'
p3455
atp3456
Rp3457
sS'whois.treasuretrovedomainsllc.com'
p3458
g1
((lp3459
S'treasuretrovedomainsllc'
p3460
atp3461
Rp3462
sS'whois.domainsouffle.com'
p3463
g1
((lp3464
S'domainsoufflecomllc'
p3465
atp3466
Rp3467
sS'whois.privatedomains.biz'
p3468
g1
((lp3469
S'privatedomainsincorporated'
p3470
atp3471
Rp3472
sS'whois.netregistry.net'
p3473
g1
((lp3474
S'netregistryptyltd'
p3475
atp3476
Rp3477
sS'whois.totalregistrations.com'
p3478
g1
((lp3479
S'totalregistrations'
p3480
aS'totalwebsolutionslimitedtradingastotalregistrations'
p3481
atp3482
Rp3483
sS'whois.aerotek.com.tr'
p3484
g1
((lp3485
S'aerotekbilisimtaahutsanayiveticaretltdsti'
p3486
aS'aerotekbilisimsanayiveticaretas'
p3487
atp3488
Rp3489
sS'whois.ukraine.com.ua'
p3490
g1
((lp3491
S'hostingukrainellc'
p3492
atp3493
Rp3494
sS'whois.wildbunchdomains.com'
p3495
g1
((lp3496
S'registercom'
p3497
aS'wildbunchdomainsllc'
p3498
atp3499
Rp3500
sS'whois.host.uol.com.br'
p3501
g1
((lp3502
S'universoonlinesauol'
p3503
atp3504
Rp3505
sS'whois.alantron.com'
p3506
g1
((lp3507
S'alantronbilisimltdsti'
p3508
atp3509
Rp3510
sS'whois.namewinnerllc.com'
p3511
g1
((lp3512
S'namewinnerllc'
p3513
atp3514
Rp3515
sS'whois.domainbazaarllc.com'
p3516
g1
((lp3517
S'domainbazaarllc'
p3518
atp3519
Rp3520
sS'whois.secura-gmbh.de'
p3521
g1
((lp3522
S'securagmbh'
p3523
atp3524
Rp3525
sS'whois.domainsinthebag.com'
p3526
g1
((lp3527
S'domainsinthebagcomllc'
p3528
atp3529
Rp3530
sS'whois.canyongate.biz'
p3531
g1
((lp3532
S'name111inc'
p3533
atp3534
Rp3535
sS'whois.domainnameblvd.com'
p3536
g1
((lp3537
S'domainnameblvdinc'
p3538
atp3539
Rp3540
sS'whois.reg2c.com'
p3541
g1
((lp3542
S'reg2ccominc'
p3543
atp3544
Rp3545
sS'whois.namepanther.com'
p3546
g1
((lp3547
S'namepanthercomllc'
p3548
atp3549
Rp3550
sS'whois.antagus.de'
p3551
g1
((lp3552
S'vautronrechenzentrumag'
p3553
atp3554
Rp3555
sS'whois.netistrar.com'
p3556
g1
((lp3557
S'netistrarltd'
p3558
atp3559
Rp3560
sS'whois.soyouwantadomain.com'
p3561
g1
((lp3562
S'soyouwantadomaincomllc'
p3563
atp3564
Rp3565
sS'whois.tradestarter.com'
p3566
g1
((lp3567
S'tradestarterinc'
p3568
atp3569
Rp3570
sS'whois.ripcorddomains.com'
p3571
g1
((lp3572
S'ripcorddomainsllc'
p3573
atp3574
Rp3575
sS'whois.enom383.com'
p3576
g1
((lp3577
S'enom383incorporated'
p3578
atp3579
Rp3580
sS'whois.mailclub.net'
p3581
g1
((lp3582
S'safebrandssas'
p3583
atp3584
Rp3585
sS'whois.enom381.com'
p3586
g1
((lp3587
S'enom381incorporated'
p3588
atp3589
Rp3590
sS'whois.namecatchllc.com'
p3591
g1
((lp3592
S'namecatchllc'
p3593
atp3594
Rp3595
sS'whois.santiamdomains.com'
p3596
g1
((lp3597
S'santiamdomainscomllc'
p3598
atp3599
Rp3600
sS'whois.domaintoorder.com'
p3601
g1
((lp3602
S'domaintoorderllc'
p3603
atp3604
Rp3605
sS'whois.190.com'
p3606
g1
((lp3607
S'eimsshenzhenculturetechnologycoltd'
p3608
atp3609
Rp3610
sS'whois.namesbeyond.com'
p3611
g1
((lp3612
S'2030138ontarioincdbanamesbeyondcomanddbagoodluckdomaincom'
p3613
atp3614
Rp3615
sS'whois.liquidnetlimited.com'
p3616
g1
((lp3617
S'liquidnetltd'
p3618
atp3619
Rp3620
sS'whois.zigzagnames.com'
p3621
g1
((lp3622
S'zigzagnamescomllc'
p3623
atp3624
Rp3625
sS'whois.zonecasting.com'
p3626
g1
((lp3627
S'zonecastinginc'
p3628
atp3629
Rp3630
sS'whois.allearthdomains.com'
p3631
g1
((lp3632
S'allearthdomainscomllc'
p3633
atp3634
Rp3635
sS'whois.resellerid.com'
p3636
g1
((lp3637
S'ptardhglobalindonesia'
p3638
atp3639
Rp3640
sS'whois.kagoya.net'
p3641
g1
((lp3642
S'kagoyajapaninc'
p3643
atp3644
Rp3645
sS'whois.namejuice.com'
p3646
g1
((lp3647
S'brandongrayinternetservicesincdbanamejuicecom'
p3648
atp3649
Rp3650
sS'whois.nhanhoa.com'
p3651
g1
((lp3652
S'nhanhoasoftwarecompanyltd'
p3653
atp3654
Rp3655
sS'whois.finegraindomains.com'
p3656
g1
((lp3657
S'finegraindomainsllc'
p3658
aS'registercom'
p3659
atp3660
Rp3661
sS'whois.alohanic.com'
p3662
g1
((lp3663
S'name105inc'
p3664
atp3665
Rp3666
sS'whois.chipshotdomainsllc.com'
p3667
g1
((lp3668
S'chipshotdomainsllc'
p3669
atp3670
Rp3671
sS'whois.resellserv.com'
p3672
g1
((lp3673
S'resellerservicesinc'
p3674
aS'resellerservicesincdbaresellservcom'
p3675
atp3676
Rp3677
sS'whois.guangzhoudomains.com'
p3678
g1
((lp3679
S'guangzhoudomainsinc'
p3680
atp3681
Rp3682
sS'whois.domainnameshop.com'
p3683
g1
((lp3684
S'domeneshopasdbadomainnameshopcom'
p3685
aS'domeneshopas'
p3686
atp3687
Rp3688
sS'whois.ksdom.kr'
p3689
g1
((lp3690
S'koreaserverhostinginc'
p3691
atp3692
Rp3693
sS'whois.paknic.com'
p3694
g1
((lp3695
S'paknicprivatelimited'
p3696
atp3697
Rp3698
sS'whois.rallycrydomains.com'
p3699
g1
((lp3700
S'rallycrydomainsllc'
p3701
aS'registercom'
p3702
atp3703
Rp3704
sS'whois.beartrapdomains.com'
p3705
g1
((lp3706
S'beartrapdomainscomllc'
p3707
atp3708
Rp3709
sS'whois.kuwaitnet.net'
p3710
g1
((lp3711
S'kuwaitnetgeneraltradingco'
p3712
atp3713
Rp3714
sS'whois.domrobot.com'
p3715
g1
((lp3716
S'internetworxltdcokg'
p3717
aS'inwxgmbhcokg'
p3718
atp3719
Rp3720
sS'whois.cloudbreakdomains.com'
p3721
g1
((lp3722
S'registercom'
p3723
aS'cloudbreakdomainsllc'
p3724
atp3725
Rp3726
sS'whois.widerightdomainsllc.com'
p3727
g1
((lp3728
S'widerightdomainsllc'
p3729
atp3730
Rp3731
sS'whois.serverplan.com'
p3732
g1
((lp3733
S'serverplansrl'
p3734
atp3735
Rp3736
sS'whois.godaddy.com'
p3737
g1
((lp3738
S'godaddycomllc'
p3739
atp3740
Rp3741
sS'whois.dotarai.com'
p3742
g1
((lp3743
S'dotaraicoltd'
p3744
atp3745
Rp3746
sS'whois.theregistrarcompany.com'
p3747
g1
((lp3748
S'theregistrarcompanybv'
p3749
atp3750
Rp3751
sS'whois.goserveyourdomain.com'
p3752
g1
((lp3753
S'goserveyourdomaincomllc'
p3754
atp3755
Rp3756
sS'whois.domainsofvalue.com'
p3757
g1
((lp3758
S'domainsofvaluecomllc'
p3759
atp3760
Rp3761
sS'whois.1hostgermany.com'
p3762
g1
((lp3763
S'1hostgermanyinc'
p3764
atp3765
Rp3766
sS'whois.r01.ru'
p3767
g1
((lp3768
S'cjscregistrarr01'
p3769
aS'jscregistrarr01'
p3770
atp3771
Rp3772
sS'whois.paintedponynames.com'
p3773
g1
((lp3774
S'paintedponynamesllc'
p3775
atp3776
Rp3777
sS'whois.yourdomaincasa.com'
p3778
g1
((lp3779
S'registercom'
p3780
aS'yourdomaincasallc'
p3781
atp3782
Rp3783
sS'whois.instantnames.com'
p3784
g1
((lp3785
S'instantnamesllc'
p3786
atp3787
Rp3788
sS'whois.demys.com'
p3789
g1
((lp3790
S'demyslimited'
p3791
atp3792
Rp3793
sS'whois.domaingoldzonellc.com'
p3794
g1
((lp3795
S'domaingoldzonellc'
p3796
atp3797
Rp3798
sS'whois.1hostkorea.com'
p3799
g1
((lp3800
S'1hostkoreainc'
p3801
atp3802
Rp3803
sS'whois.in2net.com'
p3804
g1
((lp3805
S'in2netnetworkinc'
p3806
atp3807
Rp3808
sS'whois.kh86.cn'
p3809
g1
((lp3810
S'beijinglanhaijiyetechnologycoltd'
p3811
atp3812
Rp3813
sS'whois.name.com'
p3814
g1
((lp3815
S'namecominc'
p3816
atp3817
Rp3818
sS'whois.namenelly.com'
p3819
g1
((lp3820
S'namenellycorporation'
p3821
atp3822
Rp3823
sS'whois.domainernamesllc.com'
p3824
g1
((lp3825
S'domainernamesllc'
p3826
atp3827
Rp3828
sS'whois.udomainname.com'
p3829
g1
((lp3830
S'udomainnamecomllc'
p3831
atp3832
Rp3833
sS'whois.domainlocale.com'
p3834
g1
((lp3835
S'domainlocalellc'
p3836
atp3837
Rp3838
sS'whois.enomcorporate.com'
p3839
g1
((lp3840
S'enomcorporateinc'
p3841
atp3842
Rp3843
sS'whois.cyandomains.com'
p3844
g1
((lp3845
S'cyandomainsinc'
p3846
atp3847
Rp3848
sS'whois.baronofdomains.com'
p3849
g1
((lp3850
S'baronofdomainscomllc'
p3851
atp3852
Rp3853
sS'whois.namesinmotion.com'
p3854
g1
((lp3855
S'namesinmotioninc'
p3856
atp3857
Rp3858
sS'whois.microbreweddomains.com'
p3859
g1
((lp3860
S'microbreweddomainscomllc'
p3861
atp3862
Rp3863
sS'whois.theregistrarservice.com'
p3864
g1
((lp3865
S'theregistrarserviceinc'
p3866
atp3867
Rp3868
sS'whois.dotname.co.kr'
p3869
g1
((lp3870
S'dotnamekoreacorp'
p3871
atp3872
Rp3873
sS'whois.neen.it'
p3874
g1
((lp3875
S'neensrl'
p3876
atp3877
Rp3878
sS'whois.plisk.com'
p3879
g1
((lp3880
S'plisk'
p3881
aS'privatelabelinternetservicekioskincdbapliskcom'
p3882
atp3883
Rp3884
sS'whois.lexsynergy.com'
p3885
g1
((lp3886
S'lexsynergylimited'
p3887
atp3888
Rp3889
sS'whois.purenic.com'
p3890
g1
((lp3891
S'purenicjapaninc'
p3892
atp3893
Rp3894
sS'whois.dianmei.co'
p3895
g1
((lp3896
S'xiamendianmeinetworktechnologycoltd'
p3897
atp3898
Rp3899
sS'whois.register.com'
p3900
g1
((lp3901
S'registercominc'
p3902
atp3903
Rp3904
sS'whois.synergywholesale.com'
p3905
g1
((lp3906
S'synergywholesaleptyltd'
p3907
aS'synergywholesale'
p3908
atp3909
Rp3910
sS'whois.keyregistrar.com'
p3911
g1
((lp3912
S'keyregistrarinc'
p3913
atp3914
Rp3915
sS'whois.matbao.net'
p3916
g1
((lp3917
S'matbaotradingservicecompanylimiteddbamatbao'
p3918
aS'matbaocorporation'
p3919
atp3920
Rp3921
sS'whois.masterofmydomains.net'
p3922
g1
((lp3923
S'masterofmydomainsnetllc'
p3924
atp3925
Rp3926
sS'whois.domainit.com'
p3927
g1
((lp3928
S'domainitinc'
p3929
aS'domainit'
p3930
atp3931
Rp3932
sS'whois.mountaindomains.net'
p3933
g1
((lp3934
S'name120inc'
p3935
atp3936
Rp3937
sS'whois.veritasdomains.com'
p3938
g1
((lp3939
S'veritasdomainsllc'
p3940
atp3941
Rp3942
sS'whois.safenames.net'
p3943
g1
((lp3944
S'safenamesltd'
p3945
atp3946
Rp3947
sS'whois.mypreciousdomain.com'
p3948
g1
((lp3949
S'mypreciousdomaincomllc'
p3950
atp3951
Rp3952
sS'whois.register.it'
p3953
g1
((lp3954
S'registeritspa'
p3955
atp3956
Rp3957
sS'whois.straight8domains.com'
p3958
g1
((lp3959
S'registercom'
p3960
aS'straight8domainsllc'
p3961
atp3962
Rp3963
sS'whois.targeteddropcatchllc.com'
p3964
g1
((lp3965
S'targeteddropcatchllc'
p3966
atp3967
Rp3968
sS'whois.pipelinedomains.com'
p3969
g1
((lp3970
S'pipelinedomainsllc'
p3971
atp3972
Rp3973
sS'whois.namesexpressllc.com'
p3974
g1
((lp3975
S'namesexpressllc'
p3976
atp3977
Rp3978
sS'whois.soaringeagledomains.com'
p3979
g1
((lp3980
S'registercom'
p3981
aS'soaringeagledomainsllc'
p3982
atp3983
Rp3984
sS'whois.namesnapllc.com'
p3985
g1
((lp3986
S'namesnapllc'
p3987
atp3988
Rp3989
sS'whois.zincdomainnamesllc.com'
p3990
g1
((lp3991
S'zincdomainnamesllc'
p3992
atp3993
Rp3994
sS'whois.netart-registrar.com'
p3995
g1
((lp3996
S'netartspzoo'
p3997
atp3998
Rp3999
sS'whois.kheweul.org'
p4000
g1
((lp4001
S'kheweulcomsa'
p4002
atp4003
Rp4004
sS'whois.freshbreweddomains.com'
p4005
g1
((lp4006
S'freshbreweddomainscomllc'
p4007
atp4008
Rp4009
sS'whois.frontstreetdomains.com'
p4010
g1
((lp4011
S'frontstreetdomainscomllc'
p4012
atp4013
Rp4014
sS'whois.55hl.com'
p4015
g1
((lp4016
S'jiangsubangningsciencetechnologycoltd'
p4017
atp4018
Rp4019
sS'whois.inames.co.kr'
p4020
g1
((lp4021
S'inamescoltd'
p4022
atp4023
Rp4024
sS'whois.ovh.com'
p4025
g1
((lp4026
S'ovh'
p4027
aS'ovhsas'
p4028
atp4029
Rp4030
sS'whois.domaintimemachine.com'
p4031
g1
((lp4032
S'domaintimemachinecomllc'
p4033
atp4034
Rp4035
sS'whois.allglobalnames.com'
p4036
g1
((lp4037
S'allglobalnamessadbacyberegistrocom'
p4038
atp4039
Rp4040
sS'whois.atlanticfriendnames.com'
p4041
g1
((lp4042
S'atlanticfriendnamescomllc'
p4043
atp4044
Rp4045
sS'whois.winnamesllc.com'
p4046
g1
((lp4047
S'winnamesllc'
p4048
atp4049
Rp4050
sS'whois.todaynic.com'
p4051
g1
((lp4052
S'todayniccominc'
p4053
atp4054
Rp4055
sS'whois.prodomaines.com'
p4056
g1
((lp4057
S'bdlsystemessasdbaprodomaines'
p4058
aS'bdlsystmessasdbaprodomaines'
p4059
atp4060
Rp4061
sS'whois.gesloten.cw'
p4062
g1
((lp4063
S'geslotendomainnv'
p4064
atp4065
Rp4066
sS'whois.alethiadomains.com'
p4067
g1
((lp4068
S'alethiadomainsllc'
p4069
aS'registercom'
p4070
atp4071
Rp4072
sS'whois.sawbuck.com'
p4073
g1
((lp4074
S'automatticinc'
p4075
atp4076
Rp4077
sS'whois.domains.co.za'
p4078
g1
((lp4079
S'diamatrixcc'
p4080
atp4081
Rp4082
sS'whois.interlakenames.com'
p4083
g1
((lp4084
S'interlakenamescomllc'
p4085
atp4086
Rp4087
sS'whois.pheenix.com'
p4088
g1
((lp4089
S'pheenix56llc'
p4090
aS'williamwallacellc'
p4091
aS'threadwisecominc'
p4092
aS'joanofarcllc'
p4093
aS'mahatmagandhillc'
p4094
aS'pheenix37llc'
p4095
aS'plato888llc'
p4096
aS'pheenix6llc'
p4097
aS'pheenix78llc'
p4098
aS'erwinrommelllc'
p4099
aS'wildbillhickokllc'
p4100
aS'hruntingllc'
p4101
aS'pheenix68llc'
p4102
aS'pheenix73llc'
p4103
aS'dwightdeisenhowerllc'
p4104
aS'pheenix80llc'
p4105
aS'georgespattonllc'
p4106
aS'pheenix26llc'
p4107
aS'intersolvedwacominc'
p4108
aS'scipioafricanusllc'
p4109
aS'robertelee888llc'
p4110
aS'pheenix72llc'
p4111
aS'yenkosllc'
p4112
aS'pheenix24llc'
p4113
aS'pheenix50llc'
p4114
aS'pheenix46llc'
p4115
aS'intersolvedflcominc'
p4116
aS'pheenix71llc'
p4117
aS'isorokuyamamotollc'
p4118
aS'pheenix1llc'
p4119
aS'pheenix45llc'
p4120
aS'omni888llc'
p4121
aS'latizonellc'
p4122
aS'hannibalbarcallc'
p4123
aS'pheenix14llc'
p4124
aS'pheenix83llc'
p4125
aS'pheenix27llc'
p4126
aS'stormbringerllc'
p4127
aS'pheenix34llc'
p4128
aS'aristotle888llc'
p4129
aS'radudamianllc'
p4130
aS'williamtheconquerorllc'
p4131
aS'pheenix85llc'
p4132
aS'pheenix65llc'
p4133
aS'pheenix16llc'
p4134
aS'pheenix43llc'
p4135
aS'thomasedisonllc'
p4136
aS'pheenix55llc'
p4137
aS'richardthelionheart888llc'
p4138
aS'pheenix38llc'
p4139
aS'camelot64llc'
p4140
aS'pheenix91llc'
p4141
aS'pheenixinc'
p4142
aS'pheenix11llc'
p4143
aS'alexanderthegreatllc'
p4144
aS'pheenix22llc'
p4145
aS'spartacusllc'
p4146
aS'poseidon888llc'
p4147
aS'leonardodavincillc'
p4148
aS'pheenix29llc'
p4149
aS'maximusllc'
p4150
aS'pheenix33llc'
p4151
aS'pheenix89llc'
p4152
aS'pheenix49llc'
p4153
aS'karlvonclausewitzllc'
p4154
aS'nimzo70llc'
p4155
aS'pheenix20llc'
p4156
aS'napoleonbonapartellc'
p4157
aS'pheenix90llc'
p4158
aS'pheenix48llc'
p4159
aS'billythekidllc'
p4160
aS'pheenix63llc'
p4161
aS'pheenix54llc'
p4162
aS'georgewashington888llc'
p4163
aS'pheenix23llc'
p4164
aS'zulfigarllc'
p4165
aS'confuciusllc'
p4166
aS'excaliburllc'
p4167
aS'pheenix62llc'
p4168
aS'titus888llc'
p4169
aS'vladtheimpalerllc'
p4170
aS'greendestinyllc'
p4171
aS'pheenix4llc'
p4172
aS'pheenix12llc'
p4173
aS'heavenswillllc'
p4174
aS'hercules888llc'
p4175
aS'threadwalkercominc'
p4176
aS'ulyssessgrantllc'
p4177
aS'intersolvedhicominc'
p4178
aS'pheenix60llc'
p4179
aS'pheenix19llc'
p4180
aS'pheenix88llc'
p4181
aS'ignitelainc'
p4182
aS'mailinhllc'
p4183
aS'pheenix47llc'
p4184
aS'leonidasllc'
p4185
aS'pheenix3llc'
p4186
aS'charlesdarwinllc'
p4187
aS'sirlancelotdulacllc'
p4188
aS'gonametncominc'
p4189
aS'arthurpendragonllc'
p4190
aS'apollo888llc'
p4191
aS'pheenix15llc'
p4192
aS'isaacnewtonllc'
p4193
aS'pheenix96llc'
p4194
aS'pheenix35llc'
p4195
aS'charlemagne888llc'
p4196
aS'joyeusellc'
p4197
aS'zeus888llc'
p4198
aS'pheenix93llc'
p4199
aS'constantinethegreatllc'
p4200
aS'gonamehicominc'
p4201
aS'intersolvedtxcominc'
p4202
aS'tantranllc'
p4203
aS'pheenix51llc'
p4204
aS'pheenix58llc'
p4205
aS'domainsnapllc'
p4206
aS'peterthegreatllc'
p4207
aS'pheenix36llc'
p4208
aS'gonamewacominc'
p4209
aS'pheenix64llc'
p4210
aS'pheenix79llc'
p4211
aS'honjomasamunellc'
p4212
aS'juliuscaesarllc'
p4213
aS'cyrusthegreatllc'
p4214
aS'perseus888llc'
p4215
aS'suntzu888llc'
p4216
aS'pheenix66llc'
p4217
aS'jamesmadisonllc'
p4218
aS'pheenix17llc'
p4219
aS'pheenix21llc'
p4220
aS'vonguyengiapllc'
p4221
aS'pheenix42llc'
p4222
aS'pheenix75llc'
p4223
aS'gonameflcominc'
p4224
aS'pheenix92llc'
p4225
aS'douglasmacarthurllc'
p4226
aS'odysseus888llc'
p4227
aS'pheenix52llc'
p4228
aS'pheenix86llc'
p4229
aS'galileogalileillc'
p4230
aS'pheenix99llc'
p4231
aS'pheenix7llc'
p4232
aS'annamllc'
p4233
aS'thomasjeffersonllc'
p4234
aS'pheenix13llc'
p4235
aS'pheenix98llc'
p4236
aS'pheenix9llc'
p4237
aS'intersolvedtncominc'
p4238
aS'pheenix77llc'
p4239
aS'dalailamallc'
p4240
aS'pheenix18llc'
p4241
aS'pheenix94llc'
p4242
aS'genghiskhanllc'
p4243
aS'pheenix32llc'
p4244
aS'pheenix40llc'
p4245
aS'pheenix57llc'
p4246
aS'pheenix81llc'
p4247
aS'attilathehunllc'
p4248
aS'pheenix41llc'
p4249
aS'pheenix10llc'
p4250
aS'threadwatchcominc'
p4251
aS'pheenix76llc'
p4252
aS'pheenix31llc'
p4253
aS'nametrancellc'
p4254
aS'pheenix39llc'
p4255
aS'theseus888llc'
p4256
aS'pheenix2llc'
p4257
aS'ulfberhtllc'
p4258
aS'buddhallc'
p4259
aS'pheenix30llc'
p4260
aS'achilles888llc'
p4261
aS'ramsesiillc'
p4262
atp4263
Rp4264
sS'whois.domainmonkeys.com'
p4265
g1
((lp4266
S'domainmonkeysllc'
p4267
atp4268
Rp4269
sS'whois.godomaingo.com'
p4270
g1
((lp4271
S'godomaingocomllc'
p4272
atp4273
Rp4274
sS'whois.skykomishdomains.com'
p4275
g1
((lp4276
S'skykomishdomainscomllc'
p4277
atp4278
Rp4279
sS'whois.riptidedomains.com'
p4280
g1
((lp4281
S'riptidedomainsllc'
p4282
atp4283
Rp4284
sS'whois.neudomain.com'
p4285
g1
((lp4286
S'neudomainllc'
p4287
atp4288
Rp4289
sS'grs-whois.hichina.com'
p4290
g1
((lp4291
S'hichinazhichengtechnologyltd'
p4292
atp4293
Rp4294
sS'whois.scip.es'
p4295
g1
((lp4296
S'solucionescorporativasipsl'
p4297
aS'dondominioscip'
p4298
atp4299
Rp4300
sS'whois.registermatrix.com'
p4301
g1
((lp4302
S'mediaeliteholdingslimited'
p4303
atp4304
Rp4305
sS'whois.regtons.com'
p4306
g1
((lp4307
S'gransysrodbasubregcz'
p4308
atp4309
Rp4310
sS'whois.pocketdomain.com'
p4311
g1
((lp4312
S'pocketdomaincominc'
p4313
atp4314
Rp4315
sS'whois.nameisp.com'
p4316
g1
((lp4317
S'abnameisp'
p4318
atp4319
Rp4320
sS'whois.domaincapitan.com'
p4321
g1
((lp4322
S'domaincapitancomllc'
p4323
atp4324
Rp4325
sS'whois.webtechnames.com'
p4326
g1
((lp4327
S'name106inc'
p4328
atp4329
Rp4330
sS'whois.domaindiscover.com'
p4331
g1
((lp4332
S'tierranetincdbadomaindiscover'
p4333
atp4334
Rp4335
sS'whois.haveaname.com'
p4336
g1
((lp4337
S'haveanamellc'
p4338
atp4339
Rp4340
sS'whois.enom451.com'
p4341
g1
((lp4342
S'enom451incorporated'
p4343
atp4344
Rp4345
sS'whois.atomicdomainnames.com'
p4346
g1
((lp4347
S'atomicdomainnamescomllc'
p4348
atp4349
Rp4350
sS'whois.arcticnames.com'
p4351
g1
((lp4352
S'arcticnamesinc'
p4353
atp4354
Rp4355
sS'whois.enomtoo.com'
p4356
g1
((lp4357
S'enomtooinc'
p4358
atp4359
Rp4360
sS'whois.domainstopoverllc.com'
p4361
g1
((lp4362
S'domainstopoverllc'
p4363
atp4364
Rp4365
sS'whois.domainclub.com'
p4366
g1
((lp4367
S'domainclubcomllc'
p4368
atp4369
Rp4370
sS'whois.enoma1.com'
p4371
g1
((lp4372
S'enoma1inc'
p4373
atp4374
Rp4375
sS'whois.domainarmada.com'
p4376
g1
((lp4377
S'domainarmadacomllc'
p4378
atp4379
Rp4380
sS'whois.oldetymedomains.com'
p4381
g1
((lp4382
S'oldtymedomainsllc'
p4383
atp4384
Rp4385
sS'whois.cps-datensysteme.de'
p4386
g1
((lp4387
S'cpsdatensystemegmbh'
p4388
atp4389
Rp4390
sS'whois.domainsprouts.com'
p4391
g1
((lp4392
S'domainsproutscomllc'
p4393
atp4394
Rp4395
sS'whois.kqw.com'
p4396
g1
((lp4397
S'kqwinc'
p4398
atp4399
Rp4400
sS'whois.namesnapperllc.com'
p4401
g1
((lp4402
S'namesnapperllc'
p4403
atp4404
Rp4405
sS'whois.namefull.com'
p4406
g1
((lp4407
S'nhntechoruscorp'
p4408
atp4409
Rp4410
sS'whois.ownregistrar.com'
p4411
g1
((lp4412
S'trunkoztechnologiespvtltddbaownregistrarcom'
p4413
atp4414
Rp4415
sS'whois.dyndns.com'
p4416
g1
((lp4417
S'dynamicnetworkservicesinc'
p4418
atp4419
Rp4420
sS'whois.net-chinese.com.tw'
p4421
g1
((lp4422
S'netchinesecoltd'
p4423
atp4424
Rp4425
sS'whois.hosteur.com'
p4426
g1
((lp4427
S'hosteursarl'
p4428
atp4429
Rp4430
sS'whois.nic.ae'
p4431
g1
((lp4432
S'emiratestelecommunicationscorporationetisalat'
p4433
atp4434
Rp4435
sS'whois.yellowstart.com'
p4436
g1
((lp4437
S'yellowstartinc'
p4438
atp4439
Rp4440
sS'whois.hostnameservices.net'
p4441
g1
((lp4442
S'name117inc'
p4443
atp4444
Rp4445
sS'whois.oray.com'
p4446
g1
((lp4447
S'shanghaibestorayinformationstcoltd'
p4448
atp4449
Rp4450
sS'whois.ilovewww.com'
p4451
g1
((lp4452
S'shinjirumscsdnbhd'
p4453
atp4454
Rp4455
sS'whois.postaldomains.com'
p4456
g1
((lp4457
S'postaldomainsincorporated'
p4458
atp4459
Rp4460
sS'whois.nerdnames.com'
p4461
g1
((lp4462
S'nerdnamescorporation'
p4463
atp4464
Rp4465
sS'whois.atlanticdomainsllc.com'
p4466
g1
((lp4467
S'atlanticdomainsllc'
p4468
atp4469
Rp4470
sS'whois.http.net'
p4471
g1
((lp4472
S'httpnetinternetgmbh'
p4473
atp4474
Rp4475
sS'whois.paycenter.com.cn'
p4476
g1
((lp4477
S'xinnettechnologycorporation'
p4478
atp4479
Rp4480
sS'whois.enom437.com'
p4481
g1
((lp4482
S'enom437incorporated'
p4483
atp4484
Rp4485
sS'whois.net4domains.com'
p4486
g1
((lp4487
S'net4indialimited'
p4488
atp4489
Rp4490
sS'whois.tigersharkdomains.com'
p4491
g1
((lp4492
S'tigersharkdomainsllc'
p4493
atp4494
Rp4495
sS'whois.enomau.com'
p4496
g1
((lp4497
S'enomauinc'
p4498
aS'enomeuinc'
p4499
atp4500
Rp4501
sS'whois.inlanddomainsllc.com'
p4502
g1
((lp4503
S'inlanddomainsllc'
p4504
atp4505
Rp4506
sS'whois.coolbreezedomains.com'
p4507
g1
((lp4508
S'coolbreezedomainsllc'
p4509
aS'registercom'
p4510
atp4511
Rp4512
sS'whois.udamain.com'
p4513
g1
((lp4514
S'udamaincomllc'
p4515
atp4516
Rp4517
sS'whois.enom1036.com'
p4518
g1
((lp4519
S'enom1036inc'
p4520
atp4521
Rp4522
sS'whois.desertsanddomains.com'
p4523
g1
((lp4524
S'desertsanddomainsllc'
p4525
atp4526
Rp4527
sS'whois.domainpickupllc.com'
p4528
g1
((lp4529
S'domainpickupllc'
p4530
atp4531
Rp4532
sS'whois.wildwestdomains.com'
p4533
g1
((lp4534
S'wildwestdomainsllc'
p4535
atp4536
Rp4537
sS'whois.domainprocessor.com'
p4538
g1
((lp4539
S'funpeasmediaventuresllcdbadomainprocessorcom'
p4540
aS'wwwdomainprocessorcom'
p4541
atp4542
Rp4543
sS'whois.gooddomainregistry.com'
p4544
g1
((lp4545
S'gooddomainregistrypvtltd'
p4546
aS'gooddomainregistrycom'
p4547
atp4548
Rp4549
sS'whois.hawthornedomains.com'
p4550
g1
((lp4551
S'hawthornedomainscomllc'
p4552
atp4553
Rp4554
sS'whois.webnames.ru'
p4555
g1
((lp4556
S'regtimeltd'
p4557
atp4558
Rp4559
sS'whois.thedomainsllc.com'
p4560
g1
((lp4561
S'thedomainsllc'
p4562
atp4563
Rp4564
sS'whois.cdmon.com'
p4565
g1
((lp4566
S'10dencehispahardsl'
p4567
atp4568
Rp4569
sS'whois.namebright.com'
p4570
g1
((lp4571
S'dropcatchcom434llc'
p4572
aS'dropcatchcom1035llc'
p4573
aS'dropcatchcom711llc'
p4574
aS'dropcatchcom609llc'
p4575
aS'dropcatchcom530llc'
p4576
aS'dropcatchcom896llc'
p4577
aS'dropcatchcom465llc'
p4578
aS'dropcatchcom392llc'
p4579
aS'dropcatchcom556llc'
p4580
aS'dropcatchcom919llc'
p4581
aS'dropcatchcom838llc'
p4582
aS'dropcatchcom523llc'
p4583
aS'domaindelightsllc'
p4584
aS'nameforwardllc'
p4585
aS'dropcatchcom510llc'
p4586
aS'dropcatchcom621llc'
p4587
aS'dropcatchcom825llc'
p4588
aS'dropcatchcom1033llc'
p4589
aS'dropcatchcom938llc'
p4590
aS'dropcatchcom860llc'
p4591
aS'dropcatchcom916llc'
p4592
aS'dropcatchcom443llc'
p4593
aS'dropcatchcom427llc'
p4594
aS'dropcatchcom414llc'
p4595
aS'dropcatchcom1040llc'
p4596
aS'dropcatchcom893llc'
p4597
aS'nametellcomllc'
p4598
aS'dropcatchcom634llc'
p4599
aS'dropcatchcom758llc'
p4600
aS'reclaimdomainsllc'
p4601
aS'dropcatchcom1005llc'
p4602
aS'dropcatchcom1230llc'
p4603
aS'dropcatchcom796llc'
p4604
aS'dropcatchcom723llc'
p4605
aS'dropcatchcom944llc'
p4606
aS'dropcatchcom784llc'
p4607
aS'dropcatchcom540llc'
p4608
aS'dropcatchcom875llc'
p4609
aS'dropcatchcom850llc'
p4610
aS'dropcatchcom424llc'
p4611
aS'dropcatchcom582llc'
p4612
aS'noticeddomainsllc'
p4613
aS'dropcatchcom774llc'
p4614
aS'dropcatchcom469llc'
p4615
aS'dropcatchcom819llc'
p4616
aS'dropcatchcom409llc'
p4617
aS'dropcatchcom904llc'
p4618
aS'dropcatchcom853llc'
p4619
aS'dropcatchcom511llc'
p4620
aS'dropcatchcom889llc'
p4621
aS'dropcatchcom536llc'
p4622
aS'dropcatchcom549llc'
p4623
aS'dropcatchcom430llc'
p4624
aS'dropcatchcom928llc'
p4625
aS'dropcatchcom751llc'
p4626
aS'dropcatchcom660llc'
p4627
aS'dropcatchcom972llc'
p4628
aS'dropcatchcom619llc'
p4629
aS'dropcatchcom550llc'
p4630
aS'dropcatchcom374llc'
p4631
aS'dropcatchcom468llc'
p4632
aS'dropcatchcom718llc'
p4633
aS'dropcatchcom368llc'
p4634
aS'dropcatchcom909llc'
p4635
aS'dropcatchcom748llc'
p4636
aS'dropcatchcom970llc'
p4637
aS'dropcatchcom558llc'
p4638
aS'dropcatchcom448llc'
p4639
aS'dropcatchcom386llc'
p4640
aS'dropcatchcom910llc'
p4641
aS'dropcatchcom1128llc'
p4642
aS'dropcatchcom707llc'
p4643
aS'dropcatchcom1014llc'
p4644
aS'dropcatchcom602llc'
p4645
aS'dropcatchcom895llc'
p4646
aS'dropcatchcom963llc'
p4647
aS'dropcatchcom931llc'
p4648
aS'dropcatchcom599llc'
p4649
aS'dropcatchcom399llc'
p4650
aS'dropcatchcom1003llc'
p4651
aS'dropcatchcom927llc'
p4652
aS'dropcatchcom489llc'
p4653
aS'dropcatchcom480llc'
p4654
aS'dropcatchcom410llc'
p4655
aS'dropcatchcom351llc'
p4656
aS'dropcatchcom997llc'
p4657
aS'dropcatchcom509llc'
p4658
aS'dropcatchcom630llc'
p4659
aS'dropcatchcom898llc'
p4660
aS'dropcatchcom1001llc'
p4661
aS'dropcatchcom1171llc'
p4662
aS'dropcatchcom578llc'
p4663
aS'dropcatchcom836llc'
p4664
aS'dropcatchcom391llc'
p4665
aS'dropcatchcom398llc'
p4666
aS'dropcatchcom651llc'
p4667
aS'dropcatchcom905llc'
p4668
aS'dropcatchcom515llc'
p4669
aS'dropcatchcom547llc'
p4670
aS'tradenamedllc'
p4671
aS'dropcatchcom372llc'
p4672
aS'dropcatchcom937llc'
p4673
aS'dropcatchcom727llc'
p4674
aS'dropcatchcom756llc'
p4675
aS'dropcatchcom670llc'
p4676
aS'dropcatchcom699llc'
p4677
aS'dropcatchcom759llc'
p4678
aS'dropcatchcom907llc'
p4679
aS'dropcatchcom380llc'
p4680
aS'dropcatchcom976llc'
p4681
aS'dropcatchcom754llc'
p4682
aS'dropcatchcom421llc'
p4683
aS'dropcatchcom953llc'
p4684
aS'dropcatchcom345llc'
p4685
aS'dropcatchcom709llc'
p4686
aS'dropcatchcom691llc'
p4687
aS'dropcatchcom604llc'
p4688
aS'dropcatchcom778llc'
p4689
aS'dropcatchcom581llc'
p4690
aS'dropcatchcom760llc'
p4691
aS'dropcatchcom554llc'
p4692
aS'dropcatchcom719llc'
p4693
aS'dropcatchcom347llc'
p4694
aS'dropcatchcom942llc'
p4695
aS'dropcatchcom486llc'
p4696
aS'dropcatchcom460llc'
p4697
aS'dropcatchcom728llc'
p4698
aS'glamdomainsllc'
p4699
aS'dropcatchcom367llc'
p4700
aS'dropcatchcom703llc'
p4701
aS'dropcatchcom397llc'
p4702
aS'aviddomainllc'
p4703
aS'visualnamesllc'
p4704
aS'dropcatchcom484llc'
p4705
aS'dropcatchcom458llc'
p4706
aS'dropcatchcom805llc'
p4707
aS'dropcatchcom903llc'
p4708
aS'dropcatchcom743llc'
p4709
aS'dropcatchcom611llc'
p4710
aS'dropcatchcom791llc'
p4711
aS'namelingcomllc'
p4712
aS'dropcatchcom1501llc'
p4713
aS'namesayllc'
p4714
aS'dropcatchcom777llc'
p4715
aS'dropcatchcom623llc'
p4716
aS'dropcatchcom417llc'
p4717
aS'dropcatchcom894llc'
p4718
aS'dropcatchcom912llc'
p4719
aS'dropcatchcom887llc'
p4720
aS'blockhostllc'
p4721
aS'dropcatchcom715llc'
p4722
aS'dropcatchcom353llc'
p4723
aS'dropcatchcom451llc'
p4724
aS'dropcatchcom992llc'
p4725
aS'dropcatchcom569llc'
p4726
aS'dropcatchcom475llc'
p4727
aS'dropcatchcom933llc'
p4728
aS'dotnamedllc'
p4729
aS'dropcatchcom957llc'
p4730
aS'dropcatchcom613llc'
p4731
aS'dropcatchcom553llc'
p4732
aS'dropcatchcom697llc'
p4733
aS'dropcatchcom525llc'
p4734
aS'dropcatchcom574llc'
p4735
aS'dropcatchcom587llc'
p4736
aS'dropcatchcom835llc'
p4737
aS'dropcatchcom425llc'
p4738
aS'dropcatchcom349llc'
p4739
aS'dropcatchcom742llc'
p4740
aS'dropcatchcom1008llc'
p4741
aS'dropcatchcom695llc'
p4742
aS'dropcatchcom527llc'
p4743
aS'dropcatchcom766llc'
p4744
aS'dropcatchcom712llc'
p4745
aS'dropcatchcom596llc'
p4746
aS'dropcatchcom384llc'
p4747
aS'dropcatchcom1023llc'
p4748
aS'dropcatchcom829llc'
p4749
aS'dropcatchcom705llc'
p4750
aS'dropcatchcom801llc'
p4751
aS'dropcatchcom659llc'
p4752
aS'dropcatchcom763llc'
p4753
aS'dropcatchcom566llc'
p4754
aS'dropcatchcom1400llc'
p4755
aS'dropcatchcom990llc'
p4756
aS'dropcatchcom733llc'
p4757
aS'dropcatchcom532llc'
p4758
aS'dropcatchcom544llc'
p4759
aS'dropcatchcom617llc'
p4760
aS'dropcatchcom873llc'
p4761
aS'dropcatchcom969llc'
p4762
aS'dropcatchcom357llc'
p4763
aS'dropcatchcom498llc'
p4764
aS'dropcatchcom411llc'
p4765
aS'dropcatchcom795llc'
p4766
aS'dropcatchcom606llc'
p4767
aS'dropcatchcom855llc'
p4768
aS'dropcatchcom637llc'
p4769
aS'dropcatchcom473llc'
p4770
aS'dropcatchcom781llc'
p4771
aS'domaincriticsllc'
p4772
aS'dropcatchcom1356llc'
p4773
aS'dropcatchcom627llc'
p4774
aS'dropcatchcom985llc'
p4775
aS'dropcatchcom736llc'
p4776
aS'dropcatchcom1117llc'
p4777
aS'dropcatchcom857llc'
p4778
aS'dropcatchcom572llc'
p4779
aS'dropcatchcom359llc'
p4780
aS'dropcatchcom787llc'
p4781
aS'dropcatchcom948llc'
p4782
aS'dropcatchcom833llc'
p4783
aS'dropcatchcom642llc'
p4784
aS'dropcatchcom995llc'
p4785
aS'dropcatchcom628llc'
p4786
aS'dropcatchcom548llc'
p4787
aS'dropcatchcom989llc'
p4788
aS'dropcatchcom521llc'
p4789
aS'dropcatchcom764llc'
p4790
aS'dropcatchcom479llc'
p4791
aS'dropcatchcom377llc'
p4792
aS'domaingetterllc'
p4793
aS'dropcatchcom1025llc'
p4794
aS'dropcatchcom822llc'
p4795
aS'dropcatchcom965llc'
p4796
aS'dropcatchcom665llc'
p4797
aS'dropcatchcom747llc'
p4798
aS'dropcatchcom884llc'
p4799
aS'dropcatchcom529llc'
p4800
aS'dropcatchcom534llc'
p4801
aS'dropcatchcom355llc'
p4802
aS'dropcatchcom542llc'
p4803
aS'dropcatchcom1027llc'
p4804
aS'dropcatchcom496llc'
p4805
aS'dropcatchcom967llc'
p4806
aS'dropcatchcom1254llc'
p4807
aS'dropcatchcom457llc'
p4808
aS'dropcatchcom780llc'
p4809
aS'dropcatchcom761llc'
p4810
aS'dropcatchcom376llc'
p4811
aS'dropcatchcom677llc'
p4812
aS'dropcatchcom1007llc'
p4813
aS'dropcatchcom923llc'
p4814
aS'dropcatchcom436llc'
p4815
aS'dropcatchcom360llc'
p4816
aS'dropcatchcom1045llc'
p4817
aS'dropcatchcom561llc'
p4818
aS'dropcatchcom920llc'
p4819
aS'dropcatchcom900llc'
p4820
aS'dropcatchcom818llc'
p4821
aS'dropcatchcom701llc'
p4822
aS'dropcatchcom631llc'
p4823
aS'zoomregistrarllc'
p4824
aS'dropcatchcom585llc'
p4825
aS'dropcatchcom1432llc'
p4826
aS'dropcatchcom1071llc'
p4827
aS'namebakellc'
p4828
aS'dropcatchcom730llc'
p4829
aS'dropcatchcom921llc'
p4830
aS'dropcatchcom851llc'
p4831
aS'dropcatchcom949llc'
p4832
aS'dropcatchcom633llc'
p4833
aS'dropcatchcom870llc'
p4834
aS'dropcatchcom720llc'
p4835
aS'dropcatchcom717llc'
p4836
aS'dropcatchcom752llc'
p4837
aS'domainextremellc'
p4838
aS'dropcatchcom373llc'
p4839
aS'dropcatchcom947llc'
p4840
aS'dropcatchcom477llc'
p4841
aS'dropcatchcom663llc'
p4842
aS'dropcatchcom807llc'
p4843
aS'dropcatchcom741llc'
p4844
aS'nameturnllc'
p4845
aS'dropcatchcom882llc'
p4846
aS'dropcatchcom1048llc'
p4847
aS'dropcatchcom999llc'
p4848
aS'dropcatchcom492llc'
p4849
aS'dropcatchcom1161llc'
p4850
aS'dropcatchcom1029llc'
p4851
aS'dropcatchcom646llc'
p4852
aS'dropcatchcom379llc'
p4853
aS'dropcatchcom961llc'
p4854
aS'dropcatchcom950llc'
p4855
aS'dropcatchcom668llc'
p4856
aS'dropcatchcom432llc'
p4857
aS'dropcatchcom863llc'
p4858
aS'dropcatchcom370llc'
p4859
aS'dropcatchcom679llc'
p4860
aS'dropcatchcom470llc'
p4861
aS'dropcatchcom925llc'
p4862
aS'dropcatchcom1296llc'
p4863
aS'dropcatchcom482llc'
p4864
aS'domainfalconllc'
p4865
aS'dropcatchcom1019llc'
p4866
aS'dropcatchcom614llc'
p4867
aS'dropcatchcom686llc'
p4868
aS'pronamedllc'
p4869
aS'dropcatchcom364llc'
p4870
aS'dropcatchcom831llc'
p4871
aS'dropcatchcom429llc'
p4872
aS'dropcatchcom773llc'
p4873
aS'dropcatchcom941llc'
p4874
aS'dropcatchcom503llc'
p4875
aS'dropcatchcom453llc'
p4876
aS'dropcatchcom955llc'
p4877
aS'dropcatchcom874llc'
p4878
aS'dropcatchcom404llc'
p4879
aS'echodomainllc'
p4880
aS'dropcatchcom579llc'
p4881
aS'dropcatchcom1004llc'
p4882
aS'dropcatchcom394llc'
p4883
aS'dropcatchcom869llc'
p4884
aS'dropcatchcom557llc'
p4885
aS'dropcatchcom512llc'
p4886
aS'dropcatchcom975llc'
p4887
aS'dropcatchcom946llc'
p4888
aS'dropcatchcom813llc'
p4889
aS'domainaheadllc'
p4890
aS'dropcatchcom1163llc'
p4891
aS'dropcatchcom648llc'
p4892
aS'domaincreekllc'
p4893
aS'dropcatchcom917llc'
p4894
aS'dropcatchcom522llc'
p4895
aS'dropcatchcom981llc'
p4896
aS'dropcatchcom693llc'
p4897
aS'dropcatchcom803llc'
p4898
aS'accentdomainsllc'
p4899
aS'dropcatchcom867llc'
p4900
aS'domaintactllc'
p4901
aS'dropcatchcom666llc'
p4902
aS'dropcatchcom463llc'
p4903
aS'dropcatchcom1017llc'
p4904
aS'dropcatchcom731llc'
p4905
aS'dropcatchcom650llc'
p4906
aS'dropcatchcom415llc'
p4907
aS'dropcatchcom562llc'
p4908
aS'dropcatchcom639llc'
p4909
aS'dropcatchcom724llc'
p4910
aS'dropcatchcom592llc'
p4911
aS'dropcatchcom388llc'
p4912
aS'dropcatchcom983llc'
p4913
aS'dropcatchcom688llc'
p4914
aS'dropcatchcom750llc'
p4915
aS'dropcatchcom775llc'
p4916
aS'dropcatchcom505llc'
p4917
aS'dropcatchcom828llc'
p4918
aS'dropcatchcom455llc'
p4919
aS'acquirednamesllc'
p4920
aS'dropcatchcom897llc'
p4921
aS'dropcatchcom1000llc'
p4922
aS'dropcatchcom590llc'
p4923
aS'dropcatchcom655llc'
p4924
aS'dropcatchcom551llc'
p4925
aS'dropcatchcom945llc'
p4926
aS'dropcatchcom375llc'
p4927
aS'dropcatchcom481llc'
p4928
aS'dropcatchcom514llc'
p4929
aS'dropcatchcom815llc'
p4930
aS'dropcatchcom929llc'
p4931
aS'dropcatchcom844llc'
p4932
aS'dropcatchcom978llc'
p4933
aS'dropcatchcom1140llc'
p4934
aS'dropcatchcom661llc'
p4935
aS'dropcatchcom516llc'
p4936
aS'dropcatchcom494llc'
p4937
aS'dropcatchcom918llc'
p4938
aS'dropcatchcom808llc'
p4939
aS'dropcatchcom603llc'
p4940
aS'dropcatchcom576llc'
p4941
aS'dropcatchcom892llc'
p4942
aS'dropcatchcom783llc'
p4943
aS'dropcatchcom1013llc'
p4944
aS'dropcatchcom413llc'
p4945
aS'dropcatchcom564llc'
p4946
aS'dropcatchcom519llc'
p4947
aS'dropcatchcom594llc'
p4948
aS'dropcatchcom962llc'
p4949
aS'dropcatchcom1021llc'
p4950
aS'dropcatchcom826llc'
p4951
aS'dropcatchcom793llc'
p4952
aS'dropcatchcom346llc'
p4953
aS'dropcatchcom708llc'
p4954
aS'dropcatchcom464llc'
p4955
aS'dropcatchcom924llc'
p4956
aS'dropcatchcom926llc'
p4957
aS'dropcatchcom872llc'
p4958
aS'dropcatchcom644llc'
p4959
aS'dropcatchcom393llc'
p4960
aS'dropcatchcom1043llc'
p4961
aS'dropcatchcom520llc'
p4962
aS'dropcatchcom653llc'
p4963
aS'dropcatchcom485llc'
p4964
aS'dropcatchcom964llc'
p4965
aS'dropcatchcom824llc'
p4966
aS'dropcatchcom531llc'
p4967
aS'dropcatchcom538llc'
p4968
aS'dropcatchcom713llc'
p4969
aS'dropcatchcom880llc'
p4970
aS'dropcatchcom1041llc'
p4971
aS'dropcatchcom706llc'
p4972
aS'dropcatchcom541llc'
p4973
aS'dropcatchcom771llc'
p4974
aS'litedomainsllc'
p4975
aS'dropcatchcom698llc'
p4976
aS'dropcatchcom635llc'
p4977
aS'dropcatchcom371llc'
p4978
aS'dropcatchcom640llc'
p4979
aS'dropcatchcom1030llc'
p4980
aS'dropcatchcom518llc'
p4981
aS'dropcatchcom605llc'
p4982
aS'dropcatchcom861llc'
p4983
aS'dropcatchcom734llc'
p4984
aS'dropcatchcom683llc'
p4985
aS'dropcatchcom555llc'
p4986
aS'dropcatchcom580llc'
p4987
aS'dropcatchcom589llc'
p4988
aS'dropcatchcom785llc'
p4989
aS'dropcatchcom958llc'
p4990
aS'dropcatchcom490llc'
p4991
aS'dropcatchcom973llc'
p4992
aS'dropcatchcom914llc'
p4993
aS'comfydomainsllc'
p4994
aS'dropcatchcom797llc'
p4995
aS'dropcatchcom994llc'
p4996
aS'dropcatchcom682llc'
p4997
aS'dropcatchcom820llc'
p4998
aS'dropcatchcom745llc'
p4999
aS'dropcatchcom694llc'
p5000
aS'dropcatchcom524llc'
p5001
aS'dropcatchcom966llc'
p5002
aS'dropcatchcom848llc'
p5003
aS'dropcatchcom902llc'
p5004
aS'dropcatchcom1006llc'
p5005
aS'dropcatchcom817llc'
p5006
aS'dropcatchcom610llc'
p5007
aS'dropcatchcom804llc'
p5008
aS'domainprimecomllc'
p5009
aS'dropcatchcom446llc'
p5010
aS'dropcatchcom439llc'
p5011
aS'dropcatchcom876llc'
p5012
aS'dropcatchcom456llc'
p5013
aS'dropcatchcom568llc'
p5014
aS'dropcatchcom1022llc'
p5015
aS'dropcatchcom915llc'
p5016
aS'dropcatchcom402llc'
p5017
aS'dropcatchcom474llc'
p5018
aS'dropcatchcom431llc'
p5019
aS'dropcatchcom960llc'
p5020
aS'dropcatchcom852llc'
p5021
aS'dropcatchcom598llc'
p5022
aS'dropcatchcom737llc'
p5023
aS'dropcatchcom879llc'
p5024
aS'dropcatchcom770llc'
p5025
aS'dropcatchcom687llc'
p5026
aS'dropcatchcom971llc'
p5027
aS'dropcatchcom586llc'
p5028
aS'dropcatchcom913llc'
p5029
aS'dropcatchcom1015llc'
p5030
aS'dropcatchcom500llc'
p5031
aS'dropcatchcom400llc'
p5032
aS'namesherellc'
p5033
aS'dropcatchcom710llc'
p5034
aS'dropcatchcom348llc'
p5035
aS'dropcatchcom834llc'
p5036
aS'dropcatchcom934llc'
p5037
aS'dropcatchcom1214llc'
p5038
aS'dropcatchcom390llc'
p5039
aS'dropcatchcom865llc'
p5040
aS'dropcatchcom600llc'
p5041
aS'dropcatchcom526llc'
p5042
aS'dropcatchcom408llc'
p5043
aS'dropcatchcom449llc'
p5044
aS'namestrategiesllc'
p5045
aS'dropcatchcom652llc'
p5046
aS'dropcatchcom684llc'
p5047
aS'dropcatchcom676llc'
p5048
aS'dropcatchcom383llc'
p5049
aS'dropcatchcom762llc'
p5050
aS'dropcatchcom467llc'
p5051
aS'dropcatchcom501llc'
p5052
aS'dropcatchcom977llc'
p5053
aS'dropcatchcom702llc'
p5054
aS'dropcatchcom789llc'
p5055
aS'dropcatchcom362llc'
p5056
aS'dropcatchcom571llc'
p5057
aS'dropcatchcom769llc'
p5058
aS'dropcatchcom616llc'
p5059
aS'dropcatchcom597llc'
p5060
aS'dropcatchcom440llc'
p5061
aS'dropcatchcom483llc'
p5062
aS'dropcatchcom690llc'
p5063
aS'presidentialdomainsllc'
p5064
aS'dropcatchcom802llc'
p5065
aS'dropcatchcom993llc'
p5066
aS'dropcatchcom546llc'
p5067
aS'dropcatchcom899llc'
p5068
aS'dropcatchcom649llc'
p5069
aS'dropcatchcom658llc'
p5070
aS'dropcatchcom1002llc'
p5071
aS'dropcatchcom1026llc'
p5072
aS'dropcatchcom726llc'
p5073
aS'domainladderllc'
p5074
aS'dropcatchcom673llc'
p5075
aS'dropcatchcom472llc'
p5076
aS'dropcatchcom800llc'
p5077
aS'dropcatchcom987llc'
p5078
aS'dropcatchcom746llc'
p5079
aS'dropcatchcom437llc'
p5080
aS'dropcatchcom906llc'
p5081
aS'dropcatchcom466llc'
p5082
aS'dropcatchcom1367llc'
p5083
aS'dropcatchcom890llc'
p5084
aS'dropcatchcom943llc'
p5085
aS'dropcatchcom504llc'
p5086
aS'dropcatchcom996llc'
p5087
aS'dropcatchcom832llc'
p5088
aS'dropcatchcom406llc'
p5089
aS'dropcatchcom607llc'
p5090
aS'dropcatchcom435llc'
p5091
aS'dropcatchcom779llc'
p5092
aS'dropcatchcom932llc'
p5093
aS'dropcatchcom842llc'
p5094
aS'dropcatchcom629llc'
p5095
aS'dropcatchcom620llc'
p5096
aS'dropcatchcom739llc'
p5097
aS'dropcatchcom396llc'
p5098
aS'dropcatchcom1038llc'
p5099
aS'dropcatchcom459llc'
p5100
aS'dropcatchcom1011llc'
p5101
aS'dropcatchcom908llc'
p5102
aS'dropcatchcom583llc'
p5103
aS'dropcatchcom461llc'
p5104
aS'dropcatchcom839llc'
p5105
aS'dropcatchcom366llc'
p5106
aS'dropcatchcom618llc'
p5107
aS'dropcatchcom840llc'
p5108
aS'dropcatchcom507llc'
p5109
aS'dropcatchcom798llc'
p5110
aS'dropcatchcom881llc'
p5111
aS'dropcatchcom988llc'
p5112
aS'dropcatchcom886llc'
p5113
aS'dropcatchcom823llc'
p5114
aS'dropcatchcom575llc'
p5115
aS'namesectorllc'
p5116
aS'dropcatchcom922llc'
p5117
aS'dropcatchcom497llc'
p5118
aS'dropcatchcom535llc'
p5119
aS'dropcatchcom984llc'
p5120
aS'dropcatchcom387llc'
p5121
aS'dropcatchcom487llc'
p5122
aS'dropcatchcom675llc'
p5123
aS'dropcatchcom669llc'
p5124
aS'dropcatchcom350llc'
p5125
aS'dropcatchcom416llc'
p5126
aS'dropcatchcom681llc'
p5127
aS'dropcatchcom471llc'
p5128
aS'dropcatchcom704llc'
p5129
aS'dropcatchcom643llc'
p5130
aS'dropcatchcom567llc'
p5131
aS'dropcatchcom612llc'
p5132
aS'dropcatchcom939llc'
p5133
aS'dropcatchcom570llc'
p5134
aS'dropcatchcom488llc'
p5135
aS'dropcatchcom508llc'
p5136
aS'dropcatchcom859llc'
p5137
aS'dropcatchcom584llc'
p5138
aS'dropcatchcom657llc'
p5139
aS'turncommerceincdbanamebrightcom'
p5140
aS'dropcatchcom968llc'
p5141
aS'dropcatchcom626llc'
p5142
aS'dropcatchcom980llc'
p5143
aS'dropcatchcom476llc'
p5144
aS'dropcatchcom1036llc'
p5145
aS'dropcatchcom506llc'
p5146
aS'dropcatchcom545llc'
p5147
aS'dropcatchcom755llc'
p5148
aS'dropcatchcom854llc'
p5149
aS'dropcatchcom837llc'
p5150
aS'dropcatchcom846llc'
p5151
aS'dropcatchcom625llc'
p5152
aS'dropcatchcom624llc'
p5153
aS'dropcatchcom1034llc'
p5154
aS'dropcatchcom1028llc'
p5155
aS'reclaimdomains'
p5156
aS'dropcatchcom799llc'
p5157
aS'dropcatchcom608llc'
p5158
aS'totallydomainllc'
p5159
aS'dropcatchcom559llc'
p5160
aS'namechildllc'
p5161
aS'dropcatchcom478llc'
p5162
aS'dropcatchcom1020llc'
p5163
aS'dropcatchcom768llc'
p5164
aS'dropcatchcom491llc'
p5165
aS'dropcatchcom862llc'
p5166
aS'dropcatchcom381llc'
p5167
aS'dropcatchcom735llc'
p5168
aS'dropcatchcom420llc'
p5169
aS'registrardirectllc'
p5170
aS'dropcatchcom419llc'
p5171
aS'dropcatchcom729llc'
p5172
aS'dropcatchcom877llc'
p5173
aS'dropcatchcom493llc'
p5174
aS'dropcatchcom502llc'
p5175
aS'dropcatchcom528llc'
p5176
aS'dropcatchcom389llc'
p5177
aS'dropcatchcom452llc'
p5178
aS'dropcatchcom794llc'
p5179
aS'dropcatchcom767llc'
p5180
aS'dropcatchcom654llc'
p5181
aS'dropcatchcom685llc'
p5182
aS'dropcatchcom856llc'
p5183
aS'dropcatchcom830llc'
p5184
aS'dropcatchcom445llc'
p5185
aS'dropcatchcom749llc'
p5186
aS'dropcatchcom776llc'
p5187
aS'dropcatchcom812llc'
p5188
aS'dropcatchcom952llc'
p5189
aS'namebrewllc'
p5190
aS'dropcatchcom543llc'
p5191
aS'dropcatchcom405llc'
p5192
aS'dropcatchcom700llc'
p5193
aS'worthydomainsllc'
p5194
aS'dropcatchcom1032llc'
p5195
aS'namejoltcomllc'
p5196
aS'dropcatchcom674llc'
p5197
aS'dropcatchcom369llc'
p5198
aS'dropcatchcom667llc'
p5199
aS'dropcatchcom885llc'
p5200
aS'dropcatchcom444llc'
p5201
aS'dropcatchcom786llc'
p5202
aS'dropcatchcom647llc'
p5203
aS'domainwardscomllc'
p5204
aS'dropcatchcom722llc'
p5205
aS'dropcatchcom517llc'
p5206
aS'dropcatchcom1442llc'
p5207
aS'dropcatchcom638llc'
p5208
aS'dropcatchcom738llc'
p5209
aS'dropcatchcom426llc'
p5210
aS'dropcatchcom744llc'
p5211
aS'dropcatchcom858llc'
p5212
aS'dropcatchcom864llc'
p5213
aS'dropcatchcom1009llc'
p5214
aS'dropcatchcom593llc'
p5215
aS'dropcatchcom1016llc'
p5216
aS'dropcatchcom1024llc'
p5217
aS'dropcatchcom716llc'
p5218
aS'whatisyourdomainllc'
p5219
aS'dropcatchcom454llc'
p5220
aS'dropcatchcom866llc'
p5221
aS'dropcatchcom911llc'
p5222
aS'dropcatchcom1248llc'
p5223
aS'dropcatchcom792llc'
p5224
aS'dropcatchcom810llc'
p5225
aS'dropcatchcom1044llc'
p5226
aS'dropcatchcom358llc'
p5227
aS'dropcatchcom806llc'
p5228
aS'dropcatchcom539llc'
p5229
aS'dropcatchcom1539llc'
p5230
aS'dropcatchcom441llc'
p5231
aS'dropcatchcom533llc'
p5232
aS'dropcatchcom385llc'
p5233
aS'dropcatchcom814llc'
p5234
aS'dropcatchcom790llc'
p5235
aS'dropcatchcom753llc'
p5236
aS'dropcatchcom954llc'
p5237
aS'dropcatchcom378llc'
p5238
aS'dropcatchcom433llc'
p5239
aS'thenamecollc'
p5240
aS'dropcatchcom883llc'
p5241
aS'dropcatchcom956llc'
p5242
aS'dropcatchcom636llc'
p5243
aS'dropcatchcom418llc'
p5244
aS'dropcatchcom442llc'
p5245
aS'dropcatchcom714llc'
p5246
aS'dropcatchcom499llc'
p5247
aS'dropcatchcom845llc'
p5248
aS'dropcatchcom936llc'
p5249
aS'dropcatchcom696llc'
p5250
aS'dropcatchcom974llc'
p5251
aS'dropcatchcom788llc'
p5252
aS'dropcatchcom428llc'
p5253
aS'dropcatchcom595llc'
p5254
aS'dropcatchcom809llc'
p5255
aS'domainlocalllc'
p5256
aS'dropcatchcom513llc'
p5257
aS'dropcatchcom1010llc'
p5258
aS'dropcatchcom765llc'
p5259
aS'insanenamesllc'
p5260
aS'dropcatchcom827llc'
p5261
aS'dropcatchcom407llc'
p5262
aS'dropcatchcom412llc'
p5263
aS'dropcatchcom888llc'
p5264
aS'domainhoodllc'
p5265
aS'dropcatchcom849llc'
p5266
aS'dropcatchcom740llc'
p5267
aS'dropcatchcom843llc'
p5268
aS'dropcatchcom868llc'
p5269
aS'dropcatchcom382llc'
p5270
aS'dropcatchcom1012llc'
p5271
aS'dropcatchcom588llc'
p5272
aS'dropcatchcom641llc'
p5273
aS'dropcatchcom462llc'
p5274
aS'dropcatchcom356llc'
p5275
aS'dropcatchcom365llc'
p5276
aS'dropcatchcom721llc'
p5277
aS'dropcatchcom664llc'
p5278
aS'domaincrazellc'
p5279
aS'dropcatchcom951llc'
p5280
aS'dropcatchcom671llc'
p5281
aS'dropcatchcom354llc'
p5282
aS'dropcatchcom982llc'
p5283
aS'dropcatchcom901llc'
p5284
aS'dropcatchcom450llc'
p5285
aS'dropcatchcom537llc'
p5286
aS'dropcatchcom991llc'
p5287
aS'dropcatchcom979llc'
p5288
aS'dropcatchcom563llc'
p5289
aS'dropcatchcom757llc'
p5290
aS'dropcatchcom1321llc'
p5291
aS'dropcatchcom632llc'
p5292
aS'dropcatchcom811llc'
p5293
aS'dropcatchcom395llc'
p5294
aS'dropcatchcom692llc'
p5295
aS'dropcatchcom891llc'
p5296
aS'dropcatchcom552llc'
p5297
aS'dropcatchcom560llc'
p5298
aS'dropcatchcom1031llc'
p5299
aS'dropcatchcom732llc'
p5300
aS'dropcatchcom622llc'
p5301
aS'dropcatchcom573llc'
p5302
aS'dropcatchcom403llc'
p5303
aS'dropcatchcom841llc'
p5304
aS'dropcatchcom821llc'
p5305
aS'dropcatchcom689llc'
p5306
aS'domainpickingllc'
p5307
aS'dropcatchcom656llc'
p5308
aS'dropcatchcom930llc'
p5309
aS'dropcatchcom1037llc'
p5310
aS'dropcatchcom680llc'
p5311
aS'dropcatchcom447llc'
p5312
aS'dropcatchcom935llc'
p5313
aS'dropcatchcom363llc'
p5314
aS'dropcatchcom591llc'
p5315
aS'dropcatchcom438llc'
p5316
aS'dropcatchcom959llc'
p5317
aS'dropcatchcom847llc'
p5318
aS'dropcatchcom662llc'
p5319
aS'dropcatchcom495llc'
p5320
aS'dropcatchcom672llc'
p5321
aS'dropcatchcom678llc'
p5322
aS'dropcatchcom352llc'
p5323
aS'dropcatchcom816llc'
p5324
aS'dropcatchcom361llc'
p5325
aS'blastdomainsllc'
p5326
aS'dropcatchcom423llc'
p5327
aS'dropcatchcom1039llc'
p5328
aS'dropcatchcom615llc'
p5329
aS'dropcatchcom878llc'
p5330
aS'dropcatchcom871llc'
p5331
aS'dropcatchcom565llc'
p5332
aS'dropcatchcom645llc'
p5333
aS'dropcatchcom1042llc'
p5334
aS'dropcatchcom401llc'
p5335
aS'dropcatchcom725llc'
p5336
aS'dropcatchcom577llc'
p5337
aS'dropcatchcom940llc'
p5338
aS'dropcatchcom1099llc'
p5339
aS'dropcatchcom998llc'
p5340
aS'dropcatchcom601llc'
p5341
aS'dropcatchcom782llc'
p5342
aS'dropcatchcom422llc'
p5343
aS'dropcatchcom1018llc'
p5344
aS'dropcatchcom986llc'
p5345
aS'dropcatchcom772llc'
p5346
atp5347
Rp5348
sS'whois.directnic.com'
p5349
g1
((lp5350
S'dncholdingsinc'
p5351
atp5352
Rp5353
sS'whois.enom391.com'
p5354
g1
((lp5355
S'enom391incorporated'
p5356
atp5357
Rp5358
sS'whois.dns-net.de'
p5359
g1
((lp5360
S'dnsnetinternetservicegmbh'
p5361
aS'dns'
p5362
atp5363
Rp5364
sS'whois.eztimesdomains.com'
p5365
g1
((lp5366
S'eztimesdomainsllc'
p5367
aS'registercom'
p5368
atp5369
Rp5370
sS'whois.silverbackdomains.com'
p5371
g1
((lp5372
S'silverbackdomainscomllc'
p5373
atp5374
Rp5375
sS'whois.leatherneckdomains.com'
p5376
g1
((lp5377
S'registercom'
p5378
aS'leatherneckdomainscomllc'
p5379
atp5380
Rp5381
sS'whois.ihs.com.tr'
p5382
g1
((lp5383
S'ihstelekominc'
p5384
atp5385
Rp5386
sS'whois.enom459.com'
p5387
g1
((lp5388
S'enom459incorporated'
p5389
atp5390
Rp5391
sS'whois.networksolutions.com'
p5392
g1
((lp5393
S'networksolutionsllc'
p5394
atp5395
Rp5396
sS'whois.tppinternet.com'
p5397
g1
((lp5398
S'tppdomainsptyltddbatppinternet'
p5399
aS'tppinternetptyltd'
p5400
atp5401
Rp5402
sS'whois.domainhawks.net'
p5403
g1
((lp5404
S'domainhawksnetllc'
p5405
atp5406
Rp5407
sS'whois.easystreetdomain.com'
p5408
g1
((lp5409
S'easystreetdomainsllc'
p5410
atp5411
Rp5412
sS'whois.jumpshotdomainsllc.com'
p5413
g1
((lp5414
S'jumpshotdomainsllc'
p5415
atp5416
Rp5417
sS'whois.web.com'
p5418
g1
((lp5419
S'snappyregistrarcomllc'
p5420
aS'skykomishdomainscomllc'
p5421
aS'enom425incorporated'
p5422
aS'advaloremdomainsllc'
p5423
aS'glideslopedomainsllc'
p5424
aS'domainoriginalllc'
p5425
aS'belmontdomainscomllc'
p5426
aS'deletingnamezonellc'
p5427
aS'atomicdomainnamescomllc'
p5428
aS'domainsofvaluecomllc'
p5429
aS'jarheaddomainscomllc'
p5430
aS'dropextracominc'
p5431
aS'ethosdomainsllc'
p5432
aS'bigdipperdomainsllc'
p5433
aS'fairtradedomainsllc'
p5434
aS'enommxinc'
p5435
aS'1hostjapaninc'
p5436
aS'enom459incorporated'
p5437
aS'domainplacellc'
p5438
aS'masterofmydomainsnetllc'
p5439
aS'oldtowndomainscomllc'
p5440
aS'soyouwantadomaincomllc'
p5441
aS'gotodomainsllc'
p5442
aS'octopusdomainsnetllc'
p5443
aS'compuglobalhypermegacomllc'
p5444
aS'goserveyourdomaincomllc'
p5445
aS'enom393incorporated'
p5446
aS'godomaingocomllc'
p5447
aS'enom413incorporated'
p5448
aS'catchdeletingnamesllc'
p5449
aS'notsofamousnamescomllc'
p5450
aS'udomainnamecomllc'
p5451
aS'beartrapdomainscomllc'
p5452
aS'finegraindomainsllc'
p5453
aS'riptidedomainsllc'
p5454
aS'pdxprivatenamescomllc'
p5455
aS'fastballdomainsllc'
p5456
aS'slamdunkdomainsllc'
p5457
aS'atlanticdomainsllc'
p5458
aS'tigersharkdomainsllc'
p5459
aS'anessiainc'
p5460
aS'mvpdomainnamescomllc'
p5461
aS'whiterhinodomainsllc'
p5462
aS'entertainmentnamesincorporated'
p5463
aS'namepalcom8009inc'
p5464
aS'domaingoldzonellc'
p5465
aS'exclusivedomainfindllc'
p5466
aS'domainstopoverllc'
p5467
aS'bouncepassdomainsllc'
p5468
aS'namearsenalcomllc'
p5469
aS'topshelfdomainsllc'
p5470
aS'searchnresqinc'
p5471
aS'domainshopllc'
p5472
aS'gatekeeperdomainsnetllc'
p5473
aS'thirdroundnamesllc'
p5474
aS'domainsinthebagcomllc'
p5475
aS'enom661inc'
p5476
aS'dropcatchmarketplacellc'
p5477
aS'yourdomainllc'
p5478
aS'domaincirclellc'
p5479
aS'magnoliadomainsllc'
p5480
aS'namesexpressllc'
p5481
aS'raregemdomainsllc'
p5482
aS'namewinnerllc'
p5483
aS'sliceofheavendomainsllc'
p5484
aS'namegrabllc'
p5485
aS'frontstreetdomainscomllc'
p5486
aS'iconicnamesllc'
p5487
aS'coolbreezedomainsllc'
p5488
aS'majorleaguedomainsllc'
p5489
aS'domainsovereignscomllc'
p5490
aS'snoqulamiedomainscomllc'
p5491
aS'domaincollagellc'
p5492
aS'domainlocalellc'
p5493
aS'pacificdomainsllc'
p5494
aS'eunamesoregoncomllc'
p5495
aS'nameemperorcomllc'
p5496
aS'findyouadomaincomllc'
p5497
aS'indirectionidentitycorporation'
p5498
aS'domainsoforiginllc'
p5499
aS'touchdowndomainsllc'
p5500
aS'enom652inc'
p5501
aS'domainsnapperllc'
p5502
aS'noteworthydomainsllc'
p5503
aS'allworldnamescomllc'
p5504
aS'namepalcom8011'
p5505
aS'domainestaaquillc'
p5506
aS'sharkweekdomainsllc'
p5507
aS'bonamfortunamdomainsllc'
p5508
aS'layupdomainsllc'
p5509
aS'alldomainsllc'
p5510
aS'paintedponynamesllc'
p5511
aS'enom415incorporated'
p5512
aS'fushitarazuincorporated'
p5513
aS'threepointdomainsllc'
p5514
aS'domainintheholecomllc'
p5515
aS'enom371incorporated'
p5516
aS'namefindsourcellc'
p5517
aS'domainlandingzonellc'
p5518
aS'deepseadomainsllc'
p5519
aS'enom391incorporated'
p5520
aS'udamaincomllc'
p5521
aS'draftpickdomainsllc'
p5522
aS'oregonurlscomllc'
p5523
aS'enom672inc'
p5524
aS'entrustdomainsllc'
p5525
aS'duckbilleddomainscomllc'
p5526
aS'goldminedomainsllc'
p5527
aS'domainalacartellc'
p5528
aS'coralreefdomainsllc'
p5529
aS'domainyeticomllc'
p5530
aS'eztimesdomainsllc'
p5531
aS'domainhysteriacomllc'
p5532
aS'eastenddomainsllc'
p5533
aS'curveballdomainsllc'
p5534
aS'domainpickupllc'
p5535
aS'luckyelephantdomainsllc'
p5536
aS'eagleeyedomainsllc'
p5537
aS'fetchregistrarllc'
p5538
aS'enom1038inc'
p5539
aS'oldworldaliasescomllc'
p5540
aS'enom407incorporated'
p5541
aS'namesnapllc'
p5542
aS'enom403incorporated'
p5543
aS'dancueinc'
p5544
aS'blisternetincorporated'
p5545
aS'dagnabitincorporated'
p5546
aS'postaldomainsincorporated'
p5547
aS'linedrivedomainsllc'
p5548
aS'freshbreweddomainscomllc'
p5549
aS'bestdropnamesllc'
p5550
aS'enom423incorporated'
p5551
aS'zigzagnamescomllc'
p5552
aS'empirestatedomainsinc'
p5553
aS'secondroundnamesllc'
p5554
aS'eurotrashnamescomllc'
p5555
aS'domainnamerootllc'
p5556
aS'pinkelephantdomainsllc'
p5557
aS'ripcurldomainsllc'
p5558
aS'domainsoverboardcomllc'
p5559
aS'enom5inc'
p5560
aS'drophubcominc'
p5561
aS'oregoneucomllc'
p5562
aS'blueangeldomainsllc'
p5563
aS'slowputtdomainsllc'
p5564
aS'domainstreetdirectcomllc'
p5565
aS'ripcorddomainsllc'
p5566
aS'namepalcom8017inc'
p5567
aS'sterlingdomainsllc'
p5568
aS'straight8domainsllc'
p5569
aS'domaincatcherllc'
p5570
aS'meganamesllc'
p5571
aS'enomateinc'
p5572
aS'thirdfloordnscomllc'
p5573
aS'circleofdomainsllc'
p5574
aS'domainsofthedaynetllc'
p5575
aS'wideleftdomainsllc'
p5576
aS'gradeadomainnamescomllc'
p5577
aS'shiningstardomainsllc'
p5578
aS'slowmotiondomainsllc'
p5579
aS'inlanddomainsllc'
p5580
aS'youdamaincomllc'
p5581
aS'namevolcanocomllc'
p5582
aS'domainsofcoursecomllc'
p5583
aS'pararescuedomainscomllc'
p5584
aS'lionsharedomainsllc'
p5585
aS'enom1014inc'
p5586
aS'allearthdomainscomllc'
p5587
aS'dropfallcominc'
p5588
aS'1hostcanadainc'
p5589
aS'interlakenamescomllc'
p5590
aS'enom654inc'
p5591
aS'namesaplentyllc'
p5592
aS'snagyournamellc'
p5593
aS'lemonsharkdomainsllc'
p5594
aS'catchdomainsllc'
p5595
aS'klaatudomainscomllc'
p5596
aS'domainsexpressllc'
p5597
aS'oldtymedomainsllc'
p5598
aS'coolrivernamesllc'
p5599
aS'dropcatchingnamesllc'
p5600
aS'greenzonedomainsinc'
p5601
aS'victorynamesllc'
p5602
aS'enom1009inc'
p5603
aS'imminentdomainsnetllc'
p5604
aS'willamettenamescomllc'
p5605
aS'enom383incorporated'
p5606
aS'v12domainsllc'
p5607
aS'wildzebradomainsllc'
p5608
aS'columbianamescomllc'
p5609
aS'biglizarddomainscomllc'
p5610
aS'squidsailerdomainscomllc'
p5611
aS'domainsareforevernetllc'
p5612
aS'copperdomainnamesllc'
p5613
aS'savethenamecomllc'
p5614
aS'dropwalkcominc'
p5615
aS'baronofdomainscomllc'
p5616
aS'enomvinc'
p5617
aS'dropsavecominc'
p5618
aS'namesnapperllc'
p5619
aS'enom381incorporated'
p5620
aS'hangtendomainsllc'
p5621
aS'namesstopherellc'
p5622
aS'namepalcom8027'
p5623
aS'namepalcom8026'
p5624
aS'namepalcom8025'
p5625
aS'namepalcom8024'
p5626
aS'namepalcom8023'
p5627
aS'namepalcom8021'
p5628
aS'namepalcom8025inc'
p5629
aS'enom647inc'
p5630
aS'namepalcom8028'
p5631
aS'enom463incorporated'
p5632
aS'domainnameoriginllc'
p5633
aS'enom1034inc'
p5634
aS'enom443incorporated'
p5635
aS'aquariusdomainsllc'
p5636
aS'domainingorollc'
p5637
aS'namesourcellc'
p5638
aS'domainernamesllc'
p5639
aS'bravenamesinc'
p5640
aS'lakeodomainscomllc'
p5641
aS'domainsoufflecomllc'
p5642
aS'dropcatchauctionllc'
p5643
aS'domainlifestylellc'
p5644
aS'1hostgermanyinc'
p5645
aS'privatedomainsincorporated'
p5646
aS'backstopnamesllc'
p5647
aS'burnsidedomainscomllc'
p5648
aS'baracudadomainsllc'
p5649
aS'sitefrenzycomllc'
p5650
aS'enomnzinc'
p5651
aS'enom655inc'
p5652
aS'domainsurgeoncomllc'
p5653
aS'whitealligatordomainsllc'
p5654
aS'freedropzonellc'
p5655
aS'topleveldomainsllc'
p5656
aS'nameconnectionspotllc'
p5657
aS'winnamesllc'
p5658
aS'houseofdomainsllc'
p5659
aS'bullrundomainscomllc'
p5660
aS'enombrecorporation'
p5661
aS'namenellycorporation'
p5662
aS'leatherneckdomainscomllc'
p5663
aS'swordfishdomainsllc'
p5664
aS'thedomainsllc'
p5665
aS'nameselitellc'
p5666
aS'southnamesinc'
p5667
aS'adomainofyourowncomllc'
p5668
aS'yourdomaincasallc'
p5669
aS'magnatedomainsllc'
p5670
aS'hawthornedomainscomllc'
p5671
aS'bighouseservicesinc'
p5672
aS'domainsuccessllc'
p5673
aS'namesalacartecomllc'
p5674
aS'namepalcom8004inc'
p5675
aS'enom1035inc'
p5676
aS'toptierdomainsllc'
p5677
aS'rallycrydomainsllc'
p5678
aS'protondomainscomllc'
p5679
aS'deschutesdomainscomllc'
p5680
aS'betterthanaveragedomainscomllc'
p5681
aS'gozerdomainscomllc'
p5682
aS'dropcatchminingllc'
p5683
aS'sammamishdomainscomllc'
p5684
aS'cloudbreakdomainsllc'
p5685
aS'bonzaidomainsllc'
p5686
aS'namesourcedomainsllc'
p5687
aS'deepwaterdomainsllc'
p5688
aS'namepalcom8018'
p5689
aS'namepalcom8019'
p5690
aS'namepalcom8016'
p5691
aS'namepalcom8017'
p5692
aS'namepalcom8014'
p5693
aS'namepalcom8015'
p5694
aS'namepalcom8012'
p5695
aS'namepalcom8013'
p5696
aS'namepalcom8010'
p5697
aS'snapsourcellc'
p5698
aS'dropweekcom'
p5699
aS'namestopllc'
p5700
aS'endeavourdomainsllc'
p5701
aS'freedivedomainsllc'
p5702
aS'targeteddropcatchllc'
p5703
aS'enom399incorporated'
p5704
aS'finduanamecomllc'
p5705
aS'domaincapitancomllc'
p5706
aS'traveldomainsincorporated'
p5707
aS'domainrougeinc'
p5708
aS'europeanconnectiononlinecomllc'
p5709
aS'silverbackdomainscomllc'
p5710
aS'enom379incorporated'
p5711
aS'streamlinedomainsllc'
p5712
aS'golddomainnamesllc'
p5713
aS'enomskyinc'
p5714
aS'jumpshotdomainsllc'
p5715
aS'domainsecurellc'
p5716
aS'namepanthercomllc'
p5717
aS'enom461incorporated'
p5718
aS'namecatchzonellc'
p5719
aS'domainbazaarllc'
p5720
aS'dropcatchlandingspotllc'
p5721
aS'soaringeagledomainsllc'
p5722
aS'domainjunglenetllc'
p5723
aS'enom441incorporated'
p5724
aS'domainparkblockcomllc'
p5725
aS'namepalcom8006inc'
p5726
aS'zincdomainnamesllc'
p5727
aS'flancrestdomainscomllc'
p5728
aS'sugarcubedomainsllc'
p5729
aS'domaininthebasketcomllc'
p5730
aS'devildogdomainscomllc'
p5731
aS'desertsanddomainsllc'
p5732
aS'iserveyourdomaincomllc'
p5733
aS'enom1010inc'
p5734
aS'heavydomainsnetllc'
p5735
aS'enom417incorporated'
p5736
aS'portlandnamescomllc'
p5737
aS'toppicknamesllc'
p5738
aS'domainrakernetllc'
p5739
aS'neworderdomainsllc'
p5740
aS'domainsoftheworldnetllc'
p5741
aS'domainsalsacomllc'
p5742
aS'domainarmadacomllc'
p5743
aS'domaindropllc'
p5744
aS'nameiconllc'
p5745
aS'pearlnamingservicecomllc'
p5746
aS'enom455incorporated'
p5747
aS'veritasdomainsllc'
p5748
aS'silverdomainnamesllc'
p5749
aS'microbreweddomainscomllc'
p5750
aS'eunamefloodcomllc'
p5751
aS'1hostaustraliainc'
p5752
aS'namecatchllc'
p5753
aS'mypreciousdomaincomllc'
p5754
aS'enomcorporateinc'
p5755
aS'namecroccomllc'
p5756
aS'nerdnamescorporation'
p5757
aS'enom1033inc'
p5758
aS'domaingrabberllc'
p5759
aS'namethreadcorporation'
p5760
aS'midwestdomainsllc'
p5761
aS'1hostchinainc'
p5762
aS'widerightdomainsllc'
p5763
aS'markbarkerincorporated'
p5764
aS'moonshotdomainsllc'
p5765
aS'enom387incorporated'
p5766
aS'domainsproutscomllc'
p5767
aS'1hostkoreainc'
p5768
aS'turbonamesllc'
p5769
aS'longdrivedomainsllc'
p5770
aS'domainsourcellc'
p5771
aS'chocolatechipdomainsllc'
p5772
aS'sicherregisterincorporated'
p5773
aS'goldenfinddomainsllc'
p5774
aS'enom469incorporated'
p5775
aS'santiamdomainscomllc'
p5776
aS'domainamaniacomllc'
p5777
aS'pipelinedomainsllc'
p5778
aS'namefingercomllc'
p5779
aS'atlanticfriendnamescomllc'
p5780
aS'northnamesinc'
p5781
aS'namepalcom8016inc'
p5782
aS'enom2inc'
p5783
aS'easystreetdomainsllc'
p5784
aS'tradewindsnamesllc'
p5785
aS'zoneofdomainsllc'
p5786
aS'rainydaydomainscomllc'
p5787
aS'freefalldomainsllc'
p5788
aS'chipshotdomainsllc'
p5789
aS'enom1037inc'
p5790
aS'cloudninedomainllc'
p5791
aS'enom427incorporated'
p5792
aS'deepdivedomainsllc'
p5793
aS'nominfinitumincorporated'
p5794
aS'domainhawksnetllc'
p5795
aS'freespiritdomainsllc'
p5796
aS'namesonthedropllc'
p5797
aS'hangingcurvedomainsllc'
p5798
aS'asiadomainsincorporated'
p5799
aS'domaincomesaroundcomllc'
p5800
aS'namepalcom8024inc'
p5801
aS'soldierofonedomainscomllc'
p5802
aS'alethiadomainsllc'
p5803
aS'domaintimemachinecomllc'
p5804
aS'domaingazellecomllc'
p5805
aS'domaintoorderllc'
p5806
aS'domainsailsnetllc'
p5807
aS'dropjumpcominc'
p5808
aS'millennialnamesllc'
p5809
aS'euturbocomllc'
p5810
aS'namepalcom8009'
p5811
aS'namepalcom8008'
p5812
aS'sourceddomainsllc'
p5813
aS'namepalcom8004'
p5814
aS'namepalcom8007'
p5815
aS'namepalcom8006'
p5816
aS'namepalcom8001'
p5817
aS'namepalcom8002'
p5818
aS'enomtooinc'
p5819
aS'findyouanamecomllc'
p5820
aS'firstroundnamesllc'
p5821
aS'wildbunchdomainsllc'
p5822
aS'domainsetcllc'
p5823
aS'domainroyalecomllc'
p5824
aS'treasuretrovedomainsllc'
p5825
aS'gungagalungacorporation'
p5826
aS'enom397incorporated'
p5827
atp5828
Rp5829
sS'whois.jungbo.net'
p5830
g1
((lp5831
S'jungbonetcoltd'
p5832
atp5833
Rp5834
sS'whois.webmasters.com'
p5835
g1
((lp5836
S'nettunercorpdbawebmasterscom'
p5837
atp5838
Rp5839
sS'whois.ethosdomains.com'
p5840
g1
((lp5841
S'ethosdomainsllc'
p5842
atp5843
Rp5844
sS'whois.namevolcano.com'
p5845
g1
((lp5846
S'namevolcanocomllc'
p5847
atp5848
Rp5849
sS'whois.enom1038.com'
p5850
g1
((lp5851
S'enom1038inc'
p5852
atp5853
Rp5854
sS'whois.007names.com'
p5855
g1
((lp5856
S'007namesinc'
p5857
atp5858
Rp5859
sS'whois.nicline.com'
p5860
g1
((lp5861
S'arsysinternetsldbaniclinecom'
p5862
atp5863
Rp5864
sS'whois.lakeodomains.com'
p5865
g1
((lp5866
S'lakeodomainscomllc'
p5867
atp5868
Rp5869
sS'whois.inname.net'
p5870
g1
((lp5871
S'webagenturatinternetservicesgmbhdbadomainnameat'
p5872
atp5873
Rp5874
sS'whois.nominate.net'
p5875
g1
((lp5876
S'bbonlineltd'
p5877
aS'bbonline'
p5878
atp5879
Rp5880
sS'whois.enom405.com'
p5881
g1
((lp5882
S'enom405incorporated'
p5883
atp5884
Rp5885
sS'whois.domaincontext.com'
p5886
g1
((lp5887
S'domaincontextinc'
p5888
atp5889
Rp5890
sS'whois.volusion.com'
p5891
g1
((lp5892
S'volusioninc'
p5893
atp5894
Rp5895
sS'whois.enomx.com'
p5896
g1
((lp5897
S'enomxinc'
p5898
atp5899
Rp5900
sS'whois.enomate.com'
p5901
g1
((lp5902
S'enomateinc'
p5903
atp5904
Rp5905
sS'whois.domainnamebridge.com'
p5906
g1
((lp5907
S'domainnamebridgeinc'
p5908
atp5909
Rp5910
sS'whois.1hostaustralia.com'
p5911
g1
((lp5912
S'1hostaustraliainc'
p5913
atp5914
Rp5915
sS'whois.rainydaydomains.com'
p5916
g1
((lp5917
S'rainydaydomainscomllc'
p5918
atp5919
Rp5920
sS'whois.domainmap.com'
p5921
g1
((lp5922
S'premierenamecainc'
p5923
atp5924
Rp5925
sS'whois.vodien.com'
p5926
g1
((lp5927
S'vodieninternetsolutionspteltd'
p5928
atp5929
Rp5930
sS'whois.advancedregistrar.com'
p5931
g1
((lp5932
S'netearthoneincdbanetearth'
p5933
aS'netearthoneinc'
p5934
atp5935
Rp5936
sS'whois.domainsexpressllc.com'
p5937
g1
((lp5938
S'domainsexpressllc'
p5939
atp5940
Rp5941
sS'whois.eurodns.com'
p5942
g1
((lp5943
S'eurodnssa'
p5944
atp5945
Rp5946
sS'whois.ripcurldomains.com'
p5947
g1
((lp5948
S'ripcurldomainsllc'
p5949
atp5950
Rp5951
sS'whois.coolrivernames.com'
p5952
g1
((lp5953
S'coolrivernamesllc'
p5954
aS'registercom'
p5955
atp5956
Rp5957
sS'whois.namesalacarte.com'
p5958
g1
((lp5959
S'namesalacartecomllc'
p5960
atp5961
Rp5962
sS'whois.alpinedomains.com'
p5963
g1
((lp5964
S'alpinedomainsinc'
p5965
atp5966
Rp5967
sS'whois.papaki.gr'
p5968
g1
((lp5969
S'papakiltd'
p5970
atp5971
Rp5972
sS'whois.domainsetcllc.com'
p5973
g1
((lp5974
S'domainsetcllc'
p5975
atp5976
Rp5977
sS'whois.domainsareforever.net'
p5978
g1
((lp5979
S'domainsareforevernetllc'
p5980
atp5981
Rp5982
sS'whois.sicherregister.com'
p5983
g1
((lp5984
S'sicherregisterincorporated'
p5985
atp5986
Rp5987
sS'whois.epik.com'
p5988
g1
((lp5989
S'epikinc'
p5990
aS'mymanagerinc'
p5991
aS'gonamecominc'
p5992
atp5993
Rp5994
sS'whois.hangingcurvedomainsllc.com'
p5995
g1
((lp5996
S'hangingcurvedomainsllc'
p5997
atp5998
Rp5999
sS'whois.ledl.net'
p6000
g1
((lp6001
S'ledlnetgmbh'
p6002
atp6003
Rp6004
sS'whois.enom656.com'
p6005
g1
((lp6006
S'enom656inc'
p6007
atp6008
Rp6009
s.