ccollections
defaultdict
p0
(c__builtin__
set
p1
tp2
Rp3
S'whois.gabia.com'
p4
g1
((lp5
S'gsonsoftinc'
p6
aS'whtcoltd'
p7
aS'gabiainc'
p8
aS'gabiacs'
p9
aS'kinxcoltd'
p10
atp11
Rp12
sS'whois.dagnabit.biz'
p13
g1
((lp14
S'dagnabitincorporated'
p15
atp16
Rp17
sS'whois.titanichosting.com'
p18
g1
((lp19
S'titanichostinginc'
p20
atp21
Rp22
sS'whois.domainsoforigin.com'
p23
g1
((lp24
S'domainsoforiginllc'
p25
atp26
Rp27
sS'whois.enom1008.com'
p28
g1
((lp29
S'enom1008inc'
p30
atp31
Rp32
sS'whois.draftpickdomainsllc.com'
p33
g1
((lp34
S'draftpickdomainsllc'
p35
atp36
Rp37
sS'whois.fairtradedomains.com'
p38
g1
((lp39
S'fairtradedomainsllc'
p40
aS'registercom'
p41
atp42
Rp43
sS'whois.hkdns.hk'
p44
g1
((lp45
S'west263internationallimited'
p46
atp47
Rp48
sS'whois.domainguardians.com'
p49
g1
((lp50
S'domainguardiansinc'
p51
atp52
Rp53
sS'whois.namegear.co'
p54
g1
((lp55
S'brdomainincdbanamegearco'
p56
aS'brdomaininc'
p57
atp58
Rp59
sS'whois.namesonthedropllc.com'
p60
g1
((lp61
S'namesonthedropllc'
p62
atp63
Rp64
sS'whois.lczybj.com'
p65
g1
((lp66
S'beijingzihaitechnologycoltd'
p67
atp68
Rp69
sS'whois.deepdivedomains.com'
p70
g1
((lp71
S'deepdivedomainsllc'
p72
aS'registercom'
p73
atp74
Rp75
sS'whois.dandomain.dk'
p76
g1
((lp77
S'dandomainas'
p78
atp79
Rp80
sS'whois.registrar.telekom.de'
p81
g1
((lp82
S'deutschetelekomag'
p83
atp84
Rp85
sS'whois.internetdomainnameregistrar.org'
p86
g1
((lp87
S'campointag'
p88
atp89
Rp90
sS'whois.enom453.com'
p91
g1
((lp92
S'enom453incorporated'
p93
atp94
Rp95
sS'whois.upperlink.ng'
p96
g1
((lp97
S'upperlinklimited'
p98
atp99
Rp100
sS'whois.domainband.com'
p101
g1
((lp102
S'domainbandinc'
p103
atp104
Rp105
sS'whois.no-ip.com'
p106
g1
((lp107
S'vitalwerksinternetsolutionsllcnoipcom'
p108
aS'vitalwerksinternetsolutionsllcdbanoip'
p109
atp110
Rp111
sS'whois.markbark.com'
p112
g1
((lp113
S'markbarkerincorporated'
p114
atp115
Rp116
sS'whois.zitian.cn'
p117
g1
((lp118
S'zhengzhouzitiannetworktechnologycoltd'
p119
atp120
Rp121
sS'whois.mvpdomainnames.com'
p122
g1
((lp123
S'mvpdomainnamescomllc'
p124
atp125
Rp126
sS'whois.znetlive.com'
p127
g1
((lp128
S'znettechnologiespvtltd'
p129
atp130
Rp131
sS'whois.domainname.com'
p132
g1
((lp133
S'domainnameinc'
p134
atp135
Rp136
sS'whois.rethemhosting.net'
p137
g1
((lp138
S'rethemhostingllc'
p139
aS'rethemhostingllcspecializinginddosmitigationandattackresilience'
p140
atp141
Rp142
sS'whois.registrar.eu'
p143
g1
((lp144
S'hostingconceptsbvdbaopenprovider'
p145
atp146
Rp147
sS'whois.nicco.com'
p148
g1
((lp149
S'niccoltd'
p150
atp151
Rp152
sS'comnet-whois.humeia.com'
p153
g1
((lp154
S'humeiacorporation'
p155
atp156
Rp157
sS'whois.domainraker.net'
p158
g1
((lp159
S'domainrakernetllc'
p160
atp161
Rp162
sS'whois.klaatudomains.com'
p163
g1
((lp164
S'klaatudomainscomllc'
p165
atp166
Rp167
sS'whois.snappyregistrar.com'
p168
g1
((lp169
S'snappyregistrarcomllc'
p170
atp171
Rp172
sS'whois.sssasss.com'
p173
g1
((lp174
S'sssasssincorporated'
p175
atp176
Rp177
sS'whois.enom652.com'
p178
g1
((lp179
S'enom652inc'
p180
atp181
Rp182
sS'whois.wideleftdomainsllc.com'
p183
g1
((lp184
S'wideleftdomainsllc'
p185
atp186
Rp187
sS'whois.nawang.cn'
p188
g1
((lp189
S'xiamennawangtechnologycoltd'
p190
atp191
Rp192
sS'whois.freedivedomains.com'
p193
g1
((lp194
S'freedivedomainsllc'
p195
aS'registercom'
p196
atp197
Rp198
sS'whois.domdrill.com'
p199
g1
((lp200
S'domdrillcominc'
p201
atp202
Rp203
sS'whois.register.ca'
p204
g1
((lp205
S'registercainc'
p206
atp207
Rp208
sS'whois.above.com'
p209
g1
((lp210
S'abovecomptyltd'
p211
atp212
Rp213
sS'whois.enom650.com'
p214
g1
((lp215
S'enom650inc'
p216
atp217
Rp218
sS'whois.deepwaterdomainsllc.com'
p219
g1
((lp220
S'deepwaterdomainsllc'
p221
atp222
Rp223
sS'whois.metaregistrar.com'
p224
g1
((lp225
S'metaregistrarbv'
p226
atp227
Rp228
sS'whois.briarwoodtechnologies.com'
p229
g1
((lp230
S'name110inc'
p231
atp232
Rp233
sS'whois.domainsalsa.com'
p234
g1
((lp235
S'domainsalsacomllc'
p236
atp237
Rp238
sS'whois.registrarmanager.com'
p239
g1
((lp240
S'registrarmanagerinc'
p241
atp242
Rp243
sS'whois.domaingazelle.com'
p244
g1
((lp245
S'domaingazellecomllc'
p246
atp247
Rp248
sS'whois.promopeople.com'
p249
g1
((lp250
S'promopeopleinc'
p251
atp252
Rp253
sS'whois.exclusivedomainfindllc.com'
p254
g1
((lp255
S'exclusivedomainfindllc'
p256
atp257
Rp258
sS'whois.enom.com'
p259
g1
((lp260
S'enom1040inc'
p261
aS'enominc'
p262
atp263
Rp264
sS'whois.golddomainnamesllc.com'
p265
g1
((lp266
S'golddomainnamesllc'
p267
atp268
Rp269
sS'whois.gkg.net'
p270
g1
((lp271
S'gkgnetinc'
p272
atp273
Rp274
sS'whois.interdominios.com'
p275
g1
((lp276
S'interdominiosinc'
p277
atp278
Rp279
sS'whois.french-connexion.com'
p280
g1
((lp281
S'domainefr'
p282
aS'frenchconnexiondbadomainefr'
p283
atp284
Rp285
sS'whois.biglizarddomains.com'
p286
g1
((lp287
S'biglizarddomainscomllc'
p288
atp289
Rp290
sS'whois.dynadot16.com'
p291
g1
((lp292
S'dynadot16llc'
p293
atp294
Rp295
sS'whois.networking4all.com'
p296
g1
((lp297
S'networking4allbv'
p298
atp299
Rp300
sS'whois.goldminedomainsllc.com'
p301
g1
((lp302
S'goldminedomainsllc'
p303
atp304
Rp305
sS'who.planethoster.net'
p306
g1
((lp307
S'planethosterinc'
p308
aS'planethoster'
p309
atp310
Rp311
sS'whois.enom1009.com'
p312
g1
((lp313
S'enom1009inc'
p314
atp315
Rp316
sS'whois.instinctsolutions.com'
p317
g1
((lp318
S'instinctsolutionsinc'
p319
atp320
Rp321
sS'whois.enom421.com'
p322
g1
((lp323
S'enom421incorporated'
p324
atp325
Rp326
sS'whois.puredomain.com'
p327
g1
((lp328
S'variomediaagdbapuredomaincom'
p329
atp330
Rp331
sS'whois.alfena.com'
p332
g1
((lp333
S'alfenallc'
p334
atp335
Rp336
sS'whois.enom666.com'
p337
g1
((lp338
S'enom666inc'
p339
atp340
Rp341
sS'whois.apisrs.com'
p342
g1
((lp343
S'tuonomeitsrl'
p344
aS'tuonomeitsrldbatuonomecom'
p345
atp346
Rp347
sS'whois.tradewindsnames.com'
p348
g1
((lp349
S'tradewindsnamesllc'
p350
atp351
Rp352
sS'whois.rebel.com'
p353
g1
((lp354
S'rebelcomcorp'
p355
aS'rebelcom'
p356
atp357
Rp358
sS'whois.gandi.net'
p359
g1
((lp360
S'gandisas'
p361
atp362
Rp363
sS'whois.cn.hooyoo.com'
p364
g1
((lp365
S'hooyooinformationtechnologycoltd'
p366
atp367
Rp368
sS'whois.tname.com'
p369
g1
((lp370
S'domainnamerouteinc'
p371
atp372
Rp373
sS'whois.oregoneu.com'
p374
g1
((lp375
S'oregoneucomllc'
p376
atp377
Rp378
sS'whois.nic.ru'
p379
g1
((lp380
S'regionalnetworkinformationcenterjscdbarucenter'
p381
atp382
Rp383
sS'whois.hostingservicesinc.net'
p384
g1
((lp385
S'uk2limited'
p386
aS'uk2groupltd'
p387
atp388
Rp389
sS'whois.gotodomainsllc.com'
p390
g1
((lp391
S'gotodomainsllc'
p392
atp393
Rp394
sS'whois.netjuggler.com'
p395
g1
((lp396
S'netjugglerinc'
p397
atp398
Rp399
sS'whois.whiterhinodomains.com'
p400
g1
((lp401
S'whiterhinodomainsllc'
p402
atp403
Rp404
sS'whois.blueangeldomainsllc.com'
p405
g1
((lp406
S'blueangeldomainsllc'
p407
atp408
Rp409
sS'whois.fastdomain.com'
p410
g1
((lp411
S'fastdomaininc'
p412
atp413
Rp414
sS'whois.corehub.net'
p415
g1
((lp416
S'core993wmediagmbh'
p417
aS'core109weblandag'
p418
aS'core137bradlerkrantzgmbhcokg'
p419
aS'core104domainefrfrenchconnexion'
p420
aS'core136easygigacom'
p421
aS'core115serverservicegmbh'
p422
aS'core113media4websro'
p423
aS'core165ispprointernet'
p424
aS'core145titannetworksinternettelecommunicationsserviceprovidinggmbh'
p425
aS'core53bestregistrarcom'
p426
aS'core41teliaabnetworkservices'
p427
aS'core119hostnetmediengmbh'
p428
aS'core120hostservergmbh'
p429
aS'core152benjcaffedba'
p430
aS'core155lemaritgmbh'
p431
aS'core112providerdeinternetagenturgmbh'
p432
aS'core51oznicgmbh'
p433
aS'core126distma'
p434
aS'core110dnsnetgmbh'
p435
aS'core910coredirecttool'
p436
aS'core95olmllc'
p437
aS'corehubsrl'
p438
aS'core132dfnverein'
p439
aS'core127visionconsulting'
p440
aS'core118regicanet'
p441
aS'core50mediafusioninc'
p442
aS'core164globalipactionag'
p443
aS'core122speedboneinternetconnectivitygmbh'
p444
aS'core96globalvillagegmbh'
p445
aS'core30telecomitaliaspa'
p446
aS'core101kampnetzwerkdienstegmbh'
p447
aS'core111nameshield'
p448
aS'core709gpisoftware'
p449
aS'core142norplexcommunications'
p450
aS'core157keywebag'
p451
aS'core139teutonetnetzdienstegmbh'
p452
aS'core123ingenitgmbhcokg'
p453
aS'core79axoneservicesdeveloppementsa'
p454
aS'core85kpntelecombv'
p455
aS'core133blackpointartsinternetsolutionsgmbh'
p456
aS'core28netwizardsinc'
p457
aS'core39knippmedienundkommunikationgmbh'
p458
aS'core153ispserviceeg'
p459
aS'core41teliasonerasverigeab'
p460
aS'core138privianet'
p461
aS'core35vtxservicessa'
p462
atp463
Rp464
sS'whois.asiadomains.biz'
p465
g1
((lp466
S'asiadomainsincorporated'
p467
atp468
Rp469
sS'whois.ssandomain.com'
p470
g1
((lp471
S'koreacentercomcoltd'
p472
atp473
Rp474
sS'whois.intlregistrationservices.com'
p475
g1
((lp476
S'name119inc'
p477
atp478
Rp479
sS'whois.gi.net'
p480
g1
((lp481
S'globalinternet'
p482
aS'netracorpllcdbaglobalinternet'
p483
atp484
Rp485
sS'whois.deletingnamezonellc.com'
p486
g1
((lp487
S'deletingnamezonellc'
p488
atp489
Rp490
sS'whois.oldworldaliases.com'
p491
g1
((lp492
S'oldworldaliasescomllc'
p493
atp494
Rp495
sS'whois.domus-llc.com'
p496
g1
((lp497
S'domusenterprisesllcdbadomus'
p498
atp499
Rp500
sS'whois.gochinadomains.com'
p501
g1
((lp502
S'gochinadomainsllc'
p503
atp504
Rp505
sS'whois.enom672.com'
p506
g1
((lp507
S'enom672inc'
p508
atp509
Rp510
sS'whois.nordreg.com'
p511
g1
((lp512
S'nordregab'
p513
atp514
Rp515
sS'whois.asiaregister.com'
p516
g1
((lp517
S'asiaregisterinc'
p518
atp519
Rp520
sS'whois.enom425.com'
p521
g1
((lp522
S'enom425incorporated'
p523
atp524
Rp525
sS'whois.namepal.com'
p526
g1
((lp527
S'dropfall'
p528
aS'dropsavecominc'
p529
aS'southnamesinc'
p530
aS'bravenamesinc'
p531
aS'dropsave'
p532
aS'dropwalkcominc'
p533
aS'namepalcom8018'
p534
aS'namepalcom8019'
p535
aS'namepalcom8016'
p536
aS'namepalcom8017'
p537
aS'namepalcom8014'
p538
aS'namepalcom8015'
p539
aS'namepalcom8012'
p540
aS'namepalcom8013'
p541
aS'namepalcom8010'
p542
aS'namepalcom8011'
p543
aS'dropwalk'
p544
aS'dropweekcom'
p545
aS'drophub'
p546
aS'namepalcom8003'
p547
aS'namepalcom8028'
p548
aS'northnamesinc'
p549
aS'namepalcom8023'
p550
aS'dropextracominc'
p551
aS'empirestatedomainsinc'
p552
aS'greenzonedomainsinc'
p553
aS'namepalcom8027'
p554
aS'namepalcom8026'
p555
aS'namepalcom8025'
p556
aS'namepalcom8024'
p557
aS'namepalcom8009'
p558
aS'namepalcom8008'
p559
aS'namepalcom8021'
p560
aS'namepalcom8020'
p561
aS'namepalcom8005'
p562
aS'namepalcom8004'
p563
aS'namepalcom8007'
p564
aS'namepalcom8006'
p565
aS'namepalcom8001'
p566
aS'namepalcom8022'
p567
aS'namepalcom8002'
p568
aS'drophubcominc'
p569
aS'dropjumpcominc'
p570
aS'dropweekcominc'
p571
aS'namepalcomllc'
p572
aS'dancueinc'
p573
aS'anessiainc'
p574
aS'dropjump'
p575
atp576
Rp577
sS'whois.sourceddomains.com'
p578
g1
((lp579
S'sourceddomainsllc'
p580
atp581
Rp582
sS'whois.pairnic.com'
p583
g1
((lp584
S'pairnicinc'
p585
aS'pairnetworksincdbapairnic'
p586
atp587
Rp588
sS'whois.pdxprivatenames.com'
p589
g1
((lp590
S'pdxprivatenamescomllc'
p591
atp592
Rp593
sS'whois.freefalldomainsllc.com'
p594
g1
((lp595
S'freefalldomainsllc'
p596
atp597
Rp598
sS'whois.slamdunkdomainsllc.com'
p599
g1
((lp600
S'slamdunkdomainsllc'
p601
atp602
Rp603
sS'whois.glideslopedomains.com'
p604
g1
((lp605
S'registercom'
p606
aS'glideslopedomainsllc'
p607
atp608
Rp609
sS'whois.enom449.com'
p610
g1
((lp611
S'enom449incorporated'
p612
atp613
Rp614
sS'whois.domainlifestlye.com'
p615
g1
((lp616
S'domainlifestylellc'
p617
atp618
Rp619
sS'whois.allworldnames.com'
p620
g1
((lp621
S'allworldnamescomllc'
p622
atp623
Rp624
sS'whois.compuglobalhypermega.com'
p625
g1
((lp626
S'compuglobalhypermegacomllc'
p627
atp628
Rp629
sS'whois.hoapdi-inc.com'
p630
g1
((lp631
S'hoapdiinc'
p632
atp633
Rp634
sS'whois.afriregister.com'
p635
g1
((lp636
S'afriregistersa'
p637
atp638
Rp639
sS'whois.enom385.com'
p640
g1
((lp641
S'enom385incorporated'
p642
atp643
Rp644
sS'whois.barracudadomains.com'
p645
g1
((lp646
S'baracudadomainsllc'
p647
aS'registercom'
p648
atp649
Rp650
sS'whois.aitdomains.com'
p651
g1
((lp652
S'advancedinternettechnologiesinc'
p653
aS'thenameitcorporationdbanameservicesnet'
p654
aS'csmjbsenterprises'
p655
atp656
Rp657
sS'whois.yiyu.com'
p658
g1
((lp659
S'ejeegroupholdingslimited'
p660
atp661
Rp662
sS'whois.deschutesdomains.com'
p663
g1
((lp664
S'deschutesdomainscomllc'
p665
atp666
Rp667
sS'whois.puritynames.com'
p668
g1
((lp669
S'puritynamesincorporated'
p670
aS'puritynamescom'
p671
atp672
Rp673
sS'whois.shiningstardomains.com'
p674
g1
((lp675
S'shiningstardomainsllc'
p676
atp677
Rp678
sS'whois.domaingrabberllc.com'
p679
g1
((lp680
S'domaingrabberllc'
p681
atp682
Rp683
sS'whois.needservers.com'
p684
g1
((lp685
S'needserversinc'
p686
atp687
Rp688
sS'whois.internetters.co.uk'
p689
g1
((lp690
S'internettersltd'
p691
atp692
Rp693
sS'whois.enom389.com'
p694
g1
((lp695
S'enom389incorporated'
p696
atp697
Rp698
sS'whois.namesourcellc.com'
p699
g1
((lp700
S'namesourcellc'
p701
atp702
Rp703
sS'whois2.softlayer.com'
p704
g1
((lp705
S'softlayertechnologiesinc'
p706
atp707
Rp708
sS'whois.domainroyale.com'
p709
g1
((lp710
S'domainroyalecomllc'
p711
atp712
Rp713
sS'whois.webnames.ca'
p714
g1
((lp715
S'webnamescainc'
p716
atp717
Rp718
sS'whois.goldenfinddomainsllc.com'
p719
g1
((lp720
S'goldenfinddomainsllc'
p721
atp722
Rp723
sS'whois.sammamishdomains.com'
p724
g1
((lp725
S'sammamishdomainscomllc'
p726
atp727
Rp728
sS'whois.domainplacellc.com'
p729
g1
((lp730
S'domainplacellc'
p731
atp732
Rp733
sS'whois.enom377.com'
p734
g1
((lp735
S'enom377incorporated'
p736
atp737
Rp738
sS'whois.alpnames.com'
p739
g1
((lp740
S'alpnameslimited'
p741
atp742
Rp743
sS'whois.virtualregistrar.com'
p744
g1
((lp745
S'dootallinc'
p746
aS'virtualregistrarinc'
p747
atp748
Rp749
sS'whois.idindi.com'
p750
g1
((lp751
S'indirectionidentitycorporation'
p752
atp753
Rp754
sS'whois.victorynamesllc.com'
p755
g1
((lp756
S'victorynamesllc'
p757
atp758
Rp759
sS'whois.22.cn'
p760
g1
((lp761
S'cloudplumllc'
p762
aS'hangzhouaimingnetworkcoltd'
p763
aS'beijingtongguanxintiantechnologyltdnovaltel'
p764
aS'cloudsystemllc'
p765
aS'cloudboomllc'
p766
aS'cloudsharkllc'
p767
aS'cloudseedllc'
p768
aS'cloudsunllc'
p769
aS'cloudbamboollc'
p770
aS'22netinc'
p771
aS'cloudbeautyllc'
p772
aS'cloudcityllc'
p773
aS'cloudorchidllc'
p774
aS'clouddiamondllc'
p775
aS'hangzhouebusinessservicescoltd'
p776
atp777
Rp778
sS'whois.enom646.com'
p779
g1
((lp780
S'enom646inc'
p781
atp782
Rp783
sS'whois.svenskadomaner.se'
p784
g1
((lp785
S'absvenskadomner'
p786
aS'swedishdomainsab'
p787
atp788
Rp789
sS'whois.ourdomains.com'
p790
g1
((lp791
S'ourdomainslimited'
p792
atp793
Rp794
sS'whois.interdomain.net'
p795
g1
((lp796
S'acenstechnologiesslu'
p797
atp798
Rp799
sS'whois.enom419.com'
p800
g1
((lp801
S'enom419incorporated'
p802
atp803
Rp804
sS'whois.threepointdomainsllc.com'
p805
g1
((lp806
S'threepointdomainsllc'
p807
atp808
Rp809
sS'whois.magicfriday.com'
p810
g1
((lp811
S'magicfridayinc'
p812
atp813
Rp814
sS'whois.networksavior.com'
p815
g1
((lp816
S'networksaviorinc'
p817
atp818
Rp819
sS'whois.softlayer.com'
p820
g1
((lp821
S'everyonesinternetltddbasoftlayer'
p822
aS'everyonesinternetllcdbasoftlayer'
p823
atp824
Rp825
sS'whois.google.com'
p826
g1
((lp827
S'googleinc'
p828
atp829
Rp830
sS'whois.heavydomains.net'
p831
g1
((lp832
S'heavydomainsnetllc'
p833
atp834
Rp835
sS'whois.eurotrashnames.com'
p836
g1
((lp837
S'eurotrashnamescomllc'
p838
atp839
Rp840
sS'whois.nicproxy.com'
p841
g1
((lp842
S'nicstelekomunikasyonticltdsti'
p843
aS'nicstelekomunikasyonticaretltdsti'
p844
atp845
Rp846
sS'whois.neonic.com'
p847
g1
((lp848
S'neonicoy'
p849
atp850
Rp851
sS'whois.ipmirror.com'
p852
g1
((lp853
S'ipmirrorpteltddbaipmirror'
p854
aS'ipmirrorpteltd'
p855
atp856
Rp857
sS'whois.enom1037.com'
p858
g1
((lp859
S'enom1037inc'
p860
atp861
Rp862
sS'whois.cnolnic.com'
p863
g1
((lp864
S'xiamenchinasourceinternetservicecoltd'
p865
atp866
Rp867
sS'whois.findgooddomains.com'
p868
g1
((lp869
S'findgooddomainsinc'
p870
atp871
Rp872
sS'whois.dn.com'
p873
g1
((lp874
S'hangzhouduomaiecommercecoltd'
p875
atp876
Rp877
sS'whois.domainsonly.com'
p878
g1
((lp879
S'domainsonlycominc'
p880
atp881
Rp882
sS'whois.misternic.com'
p883
g1
((lp884
S'misternicllc'
p885
atp886
Rp887
sS'whois.commerceisland.com'
p888
g1
((lp889
S'commerceislandinc'
p890
atp891
Rp892
sS'whois.adomainofyourown.com'
p893
g1
((lp894
S'adomainofyourowncomllc'
p895
atp896
Rp897
sS'whois.enom1035.com'
p898
g1
((lp899
S'enom1035inc'
p900
atp901
Rp902
sS'whois.enom655.com'
p903
g1
((lp904
S'enom655inc'
p905
atp906
Rp907
sS'whois.blisternet.net'
p908
g1
((lp909
S'blisternetincorporated'
p910
atp911
Rp912
sS'whois.doregi.com'
p913
g1
((lp914
S'hangangsystemsincdbadoregicom'
p915
atp916
Rp917
sS'whois.freespiritdomains.com'
p918
g1
((lp919
S'registercom'
p920
aS'freespiritdomainsllc'
p921
atp922
Rp923
sS'whois.domerati.com'
p924
g1
((lp925
S'domeratiinc'
p926
atp927
Rp928
sS'whois.copperdomainnamesllc.com'
p929
g1
((lp930
S'copperdomainnamesllc'
p931
atp932
Rp933
sS'whois.freenom.com'
p934
g1
((lp935
S'openttldbv'
p936
aS'opentldbv'
p937
atp938
Rp939
sS'whois.hostinger.com'
p940
g1
((lp941
S'hostingeruab'
p942
atp943
Rp944
sS'whois.domainsoftheworld.net'
p945
g1
((lp946
S'domainsoftheworldnetllc'
p947
atp948
Rp949
sS'whois.distributeit.com.au'
p950
g1
((lp951
S'tppwholesaleptyltd'
p952
atp953
Rp954
sS'whois.gradeadomainnames.com'
p955
g1
((lp956
S'gradeadomainnamescomllc'
p957
atp958
Rp959
sS'whois.websitesource.com'
p960
g1
((lp961
S'websitesourceinc'
p962
atp963
Rp964
sS'whois.namesecure.com'
p965
g1
((lp966
S'namesecurecom'
p967
atp968
Rp969
sS'whois.domainnameorigin.com'
p970
g1
((lp971
S'domainnameoriginllc'
p972
aS'registercom'
p973
atp974
Rp975
sS'whois.toppicknamesllc.com'
p976
g1
((lp977
S'toppicknamesllc'
p978
atp979
Rp980
sS'whois.domainsecurellc.com'
p981
g1
((lp982
S'domainsecurellc'
p983
atp984
Rp985
sS'whois.circleofdomainsllc.com'
p986
g1
((lp987
S'circleofdomainsllc'
p988
atp989
Rp990
sS'whois.domainsatcost.ca'
p991
g1
((lp992
S'rebelcacorp'
p993
aS'domainsatcostca'
p994
aS'rebelca'
p995
atp996
Rp997
sS'whois.enom1013.com'
p998
g1
((lp999
S'enom1013inc'
p1000
atp1001
Rp1002
sS'whois.domainjungle.net'
p1003
g1
((lp1004
S'domainjunglenetllc'
p1005
atp1006
Rp1007
sS'whois.webbusiness.biz'
p1008
g1
((lp1009
S'webbusinessllc'
p1010
atp1011
Rp1012
sS'whois.signdomains.com'
p1013
g1
((lp1014
S'viseshinfotecnicsltddbasigndomainscom'
p1015
aS'mpsinfotecnicslimited'
p1016
atp1017
Rp1018
sS'whois.wildzebradomains.com'
p1019
g1
((lp1020
S'wildzebradomainsllc'
p1021
aS'registercom'
p1022
atp1023
Rp1024
sS'whois.names4ever.com'
p1025
g1
((lp1026
S'deluxesmallbusinesssalesincdbaaplusnet'
p1027
atp1028
Rp1029
sS'whois.sudu.cn'
p1030
g1
((lp1031
S'chengduflydigitaltechnologycoltd'
p1032
atp1033
Rp1034
sS'whois.dotearth.com'
p1035
g1
((lp1036
S'domainregistrationservicesincdbadotearthcom'
p1037
atp1038
Rp1039
sS'whois.enom455.com'
p1040
g1
((lp1041
S'enom455incorporated'
p1042
atp1043
Rp1044
sS'whois.moonshotdomains.com'
p1045
g1
((lp1046
S'moonshotdomainsllc'
p1047
aS'registercom'
p1048
atp1049
Rp1050
sS'whois.sterlingdomainsllc.com'
p1051
g1
((lp1052
S'sterlingdomainsllc'
p1053
atp1054
Rp1055
sS'whois.ekados.com'
p1056
g1
((lp1057
S'ekadosincdbagroundregistrycom'
p1058
atp1059
Rp1060
sS'whois.tigertech.net'
p1061
g1
((lp1062
S'tigertechnologiesllc'
p1063
atp1064
Rp1065
sS'whois.domainsails.net'
p1066
g1
((lp1067
S'domainsailsnetllc'
p1068
atp1069
Rp1070
sS'whois.imminentdomains.net'
p1071
g1
((lp1072
S'imminentdomainsnetllc'
p1073
atp1074
Rp1075
sS'whois.silverdomainnamesllc.com'
p1076
g1
((lp1077
S'silverdomainnamesllc'
p1078
atp1079
Rp1080
sS'whois.fujiandomains.com'
p1081
g1
((lp1082
S'fujiandomainsinc'
p1083
atp1084
Rp1085
sS'whois.enom417.com'
p1086
g1
((lp1087
S'enom417incorporated'
p1088
atp1089
Rp1090
sS'whois.enom447.com'
p1091
g1
((lp1092
S'enom447incorporated'
p1093
atp1094
Rp1095
sS'whois.zenregistry.com'
p1096
g1
((lp1097
S'webwerksindiapvtltddbazenregistrycom'
p1098
atp1099
Rp1100
sS'whois.rockenstein.de'
p1101
g1
((lp1102
S'rockensteinag'
p1103
atp1104
Rp1105
sS'whois.portlandnames.com'
p1106
g1
((lp1107
S'portlandnamescomllc'
p1108
atp1109
Rp1110
sS'whois.domaininfo.com'
p1111
g1
((lp1112
S'domaininfoab'
p1113
aS'domaininfoabdbadomaininfocom'
p1114
atp1115
Rp1116
sS'whois.enom399.com'
p1117
g1
((lp1118
S'enom399incorporated'
p1119
atp1120
Rp1121
sS'whois.51web.hk'
p1122
g1
((lp1123
S'centuryorientalinternationalcoltd'
p1124
atp1125
Rp1126
sS'whois.whitealligatordomains.com'
p1127
g1
((lp1128
S'whitealligatordomainsllc'
p1129
aS'registercom'
p1130
atp1131
Rp1132
sS'whois.enom441.com'
p1133
g1
((lp1134
S'enom441incorporated'
p1135
atp1136
Rp1137
sS'wh0is.pocketdomain.com'
p1138
g1
((lp1139
S'1hostisraelinc'
p1140
atp1141
Rp1142
sS'whois.enom662.com'
p1143
g1
((lp1144
S'enom662inc'
p1145
atp1146
Rp1147
sS'whois.enom445.com'
p1148
g1
((lp1149
S'enom445incorporated'
p1150
atp1151
Rp1152
sS'whois.enom1033.com'
p1153
g1
((lp1154
S'enom1033inc'
p1155
atp1156
Rp1157
sS'whois.snoqulamiedomains.com'
p1158
g1
((lp1159
S'snoqulamiedomainscomllc'
p1160
atp1161
Rp1162
sS'whois.enomten.com'
p1163
g1
((lp1164
S'enomteninc'
p1165
atp1166
Rp1167
sS'whois.domainoriginal.com'
p1168
g1
((lp1169
S'domainoriginalllc'
p1170
aS'registercom'
p1171
atp1172
Rp1173
sS'whois.domainsofcourse.com'
p1174
g1
((lp1175
S'domainsofcoursecomllc'
p1176
atp1177
Rp1178
sS'whois.gatekeeperdomains.net'
p1179
g1
((lp1180
S'gatekeeperdomainsnetllc'
p1181
atp1182
Rp1183
sS'whois.misk.com'
p1184
g1
((lp1185
S'miskcominc'
p1186
atp1187
Rp1188
sS'whois.enom403.com'
p1189
g1
((lp1190
S'enom403incorporated'
p1191
atp1192
Rp1193
sS'whois.lemonsharkdomains.com'
p1194
g1
((lp1195
S'lemonsharkdomainsllc'
p1196
atp1197
Rp1198
sS'whois.domainstreetdirect.com'
p1199
g1
((lp1200
S'domainstreetdirectcomllc'
p1201
atp1202
Rp1203
sS'whois.bighouseservices.com'
p1204
g1
((lp1205
S'bighouseservicesinc'
p1206
atp1207
Rp1208
sS'whois.ccdomain.co.kr'
p1209
g1
((lp1210
S'crosscertincdbacosmotowninc'
p1211
aS'cosmotowninc'
p1212
atp1213
Rp1214
sS'whois.isimtescil.net'
p1215
g1
((lp1216
S'fbsinc'
p1217
atp1218
Rp1219
sS'whois.housofdomains.com'
p1220
g1
((lp1221
S'houseofdomainsllc'
p1222
aS'registercom'
p1223
atp1224
Rp1225
sS'whois2.domain.com'
p1226
g1
((lp1227
S'allaccessdomainsllc'
p1228
aS'addresscreationllc'
p1229
aS'catincdbanamezerocom'
p1230
aS'24x7domainsllc'
p1231
aS'addressonthewebllc'
p1232
aS'diggitydotllc'
p1233
aS'1stfordomainnamesllc'
p1234
aS'domainprollc'
p1235
aS'niuedomainsllc'
p1236
aS'austriadomainsllc'
p1237
aS'universalregistrationservicesincdbanewdentitycom'
p1238
aS'tuvaludomainsllc'
p1239
aS'domainagogollc'
p1240
aS'995discountdomainsllc'
p1241
aS'domainbulkregistrationllc'
p1242
aS'austriandomainsllc'
p1243
aS'endurance'
p1244
aS'claimeddomainsllc'
p1245
aS'universalregistrationservicesincdbanewdentit'
p1246
aS'123domainrenewalsllc'
p1247
aS'domainbusinessnamesllc'
p1248
aS'domaincampingllc'
p1249
aS'domainnamelookupllc'
p1250
aS'alldomainsllc'
p1251
aS'chocolatecovereddomainsllc'
p1252
aS'unitedkingdomdomainsllc'
p1253
aS'domainnamebidderllc'
p1254
aS'domainducksincdbapersonalnamescom'
p1255
aS'capitaldomainsllc'
p1256
aS'registernamesllc'
p1257
aS'deutchdomainsllc'
p1258
aS'cocosislandsdomainsllc'
p1259
aS'privacypostinc'
p1260
aS'discountdomainservicesllc'
p1261
aS'1800websitellc'
p1262
aS'columbiadomainsllc'
p1263
aS'hostlaneinc'
p1264
aS'decentdomainsllc'
p1265
aS'enamecollc'
p1266
atp1267
Rp1268
sS'whois.dnspod.com'
p1269
g1
((lp1270
S'dnspodinc'
p1271
atp1272
Rp1273
sS'whois.enom1014.com'
p1274
g1
((lp1275
S'enom1014inc'
p1276
atp1277
Rp1278
sS'whois.nameconnectionspotllc.com'
p1279
g1
((lp1280
S'nameconnectionspotllc'
p1281
atp1282
Rp1283
sS'whois.domainjamboreellc.com'
p1284
g1
((lp1285
S'domainjamboreellc'
p1286
atp1287
Rp1288
sS'whois.netim.com'
p1289
g1
((lp1290
S'netimsarl'
p1291
aS'netim'
p1292
atp1293
Rp1294
sS'whois.genious.net'
p1295
g1
((lp1296
S'geniouscommunicationssarlau'
p1297
atp1298
Rp1299
sS'whois.pavietnam.vn'
p1300
g1
((lp1301
S'pavietnamcompanylimited'
p1302
atp1303
Rp1304
sS'whois.registrygate.com'
p1305
g1
((lp1306
S'registrygategmbh'
p1307
atp1308
Rp1309
sS'whois.ltnic.com'
p1310
g1
((lp1311
S'fujianlitiannetworktechnologycoltd'
p1312
atp1313
Rp1314
sS'whois.zw.cn'
p1315
g1
((lp1316
S'beijingzhongwannetworktechnologycoltd'
p1317
atp1318
Rp1319
sS'whois.threadagent.com'
p1320
g1
((lp1321
S'threadagentcominc'
p1322
atp1323
Rp1324
sS'whois.nametofame.com'
p1325
g1
((lp1326
S'nametofameinc'
p1327
atp1328
Rp1329
sS'whois.joker.com'
p1330
g1
((lp1331
S'cslcomputerservicelangenbachgmbhdbajokercom'
p1332
aS'pdrltddbapublicdomainregistrycomwhoisserver'
p1333
atp1334
Rp1335
sS'whois.namesaplentyllc.com'
p1336
g1
((lp1337
S'namesaplentyllc'
p1338
atp1339
Rp1340
sS'whois.protondomains.com'
p1341
g1
((lp1342
S'protondomainscomllc'
p1343
atp1344
Rp1345
sS'whois.yoursrs.com'
p1346
g1
((lp1347
S'realtimeregisterbv'
p1348
atp1349
Rp1350
sS'whois.powercarrier.com'
p1351
g1
((lp1352
S'powercarrierinc'
p1353
atp1354
Rp1355
sS'whois.swordfishdomainsllc.com'
p1356
g1
((lp1357
S'swordfishdomainsllc'
p1358
atp1359
Rp1360
sS'whois.enom429.com'
p1361
g1
((lp1362
S'enom429incorporated'
p1363
atp1364
Rp1365
sS'whois.reg.com'
p1366
g1
((lp1367
S'registrarofdomainnamesregrullc'
p1368
atp1369
Rp1370
sS'whois.soldierofonedomains.com'
p1371
g1
((lp1372
S'soldierofonedomainscomllc'
p1373
aS'registercom'
p1374
atp1375
Rp1376
sS'whois.domainlandingzonellc.com'
p1377
g1
((lp1378
S'domainlandingzonellc'
p1379
atp1380
Rp1381
sS'whois.riktad.se'
p1382
g1
((lp1383
S'abriktad'
p1384
atp1385
Rp1386
sS'whois.alices-registry.com'
p1387
g1
((lp1388
S'alicesregistryinc'
p1389
atp1390
Rp1391
sS'whois.gofrancedomains.com'
p1392
g1
((lp1393
S'gofrancedomainsllc'
p1394
atp1395
Rp1396
sS'whois.freeparking.co.uk'
p1397
g1
((lp1398
S'freeparkingdomainregistrarsinc'
p1399
atp1400
Rp1401
sS'whois.sfn.cn'
p1402
g1
((lp1403
S'beijingsanfrontinformationtechnologycoltd'
p1404
atp1405
Rp1406
sS'whois.mijninternetoplossing.nl'
p1407
g1
((lp1408
S'mijninternetoplossingbv'
p1409
atp1410
Rp1411
sS'whois.domainsoftheday.net'
p1412
g1
((lp1413
S'domainsofthedaynetllc'
p1414
atp1415
Rp1416
sS'whois.cloudflare.com'
p1417
g1
((lp1418
S'cloudflareinc'
p1419
atp1420
Rp1421
sS'whois.enom393.com'
p1422
g1
((lp1423
S'enom393incorporated'
p1424
atp1425
Rp1426
sS'whois.meganamesllc.com'
p1427
g1
((lp1428
S'meganamesllc'
p1429
atp1430
Rp1431
sS'whois.dynadot5.com'
p1432
g1
((lp1433
S'dynadot5llc'
p1434
atp1435
Rp1436
sS'whois.gomontenegrodomains.com'
p1437
g1
((lp1438
S'gomontenegrodomainsllc'
p1439
atp1440
Rp1441
sS'whois.ownidentity.com'
p1442
g1
((lp1443
S'ownidentityinc'
p1444
atp1445
Rp1446
sS'whois.namefindsourcellc.com'
p1447
g1
((lp1448
S'namefindsourcellc'
p1449
atp1450
Rp1451
sS'whois.tropicregistry.com'
p1452
g1
((lp1453
S'uniteddomainregistryinc'
p1454
atp1455
Rp1456
sS'whois.launchpad.com'
p1457
g1
((lp1458
S'launchpadinchostgator'
p1459
aS'enduranceretail'
p1460
aS'launchpadcominc'
p1461
atp1462
Rp1463
sS'whois.hupo.com'
p1464
g1
((lp1465
S'guangzhoumingyanginformationtechnologycoltd'
p1466
atp1467
Rp1468
sS'whois.visualmonster.com'
p1469
g1
((lp1470
S'visualmonsterinc'
p1471
atp1472
Rp1473
sS'whois.iconicnamesllc.com'
p1474
g1
((lp1475
S'iconicnamesllc'
p1476
atp1477
Rp1478
sS'whois.twt.it'
p1479
g1
((lp1480
S'twtspa'
p1481
atp1482
Rp1483
sS'whois.fetchregistrar.com'
p1484
g1
((lp1485
S'fetchregistrarllc'
p1486
atp1487
Rp1488
sS'whois.2imagen.net'
p1489
g1
((lp1490
S'tecnologiadesarrolloymercadosderldecv'
p1491
atp1492
Rp1493
sS'whois.sibername.com'
p1494
g1
((lp1495
S'sibernameinternetandsoftwaretechnologiesinc'
p1496
atp1497
Rp1498
sS'whois.slowputtdomainsllc.com'
p1499
g1
((lp1500
S'slowputtdomainsllc'
p1501
atp1502
Rp1503
sS'whois.namebay.com'
p1504
g1
((lp1505
S'namebay'
p1506
atp1507
Rp1508
sS'whois.namesstopherellc.com'
p1509
g1
((lp1510
S'namesstopherellc'
p1511
atp1512
Rp1513
sS'whois.moniker.com'
p1514
g1
((lp1515
S'monikeronlineservicesllc'
p1516
atp1517
Rp1518
sS'whois.domainsite.com'
p1519
g1
((lp1520
S'domainsiteinc'
p1521
atp1522
Rp1523
sS'whois.domainnamedriveway.com'
p1524
g1
((lp1525
S'domainnamedrivewayinc'
p1526
atp1527
Rp1528
sS'whois.planetdomain.com'
p1529
g1
((lp1530
S'planetdomainptyltd'
p1531
atp1532
Rp1533
sS'whois.bestdropnamesllc.com'
p1534
g1
((lp1535
S'bestdropnamesllc'
p1536
atp1537
Rp1538
sS'whois.eagleeyedomains.com'
p1539
g1
((lp1540
S'eagleeyedomainsllc'
p1541
aS'registercom'
p1542
atp1543
Rp1544
sS'whois.xiamendomains.com'
p1545
g1
((lp1546
S'xiamendomainsinc'
p1547
atp1548
Rp1549
sS'whois.enom379.com'
p1550
g1
((lp1551
S'enom379incorporated'
p1552
atp1553
Rp1554
sS'whois.nameconnectionareallc.com'
p1555
g1
((lp1556
S'nameconnectionareallc'
p1557
atp1558
Rp1559
sS'whois.enom397.com'
p1560
g1
((lp1561
S'enom397incorporated'
p1562
atp1563
Rp1564
sS'whois.domainclip.com'
p1565
g1
((lp1566
S'domainclipdomainsinc'
p1567
atp1568
Rp1569
sS'whois.bluerazor.com'
p1570
g1
((lp1571
S'bluerazordomainsllc'
p1572
atp1573
Rp1574
sS'whois.enom371.com'
p1575
g1
((lp1576
S'enom371incorporated'
p1577
atp1578
Rp1579
sS'whois.dynadot3.com'
p1580
g1
((lp1581
S'dynadot3llc'
p1582
atp1583
Rp1584
sS'whois.firstroundnamesllc.com'
p1585
g1
((lp1586
S'firstroundnamesllc'
p1587
atp1588
Rp1589
sS'whois.topleveldomainsllc.com'
p1590
g1
((lp1591
S'topleveldomainsllc'
p1592
atp1593
Rp1594
sS'whois.retailstudio.com'
p1595
g1
((lp1596
S'elbgroupinc'
p1597
atp1598
Rp1599
sS'whois.annulet.com'
p1600
g1
((lp1601
S'annuletinc'
p1602
aS'annuletllc'
p1603
atp1604
Rp1605
sS'whois.netestate.com'
p1606
g1
((lp1607
S'netestatellc'
p1608
atp1609
Rp1610
sS'whois.dotroll.com'
p1611
g1
((lp1612
S'dotrollkft'
p1613
atp1614
Rp1615
sS'whois.enom415.com'
p1616
g1
((lp1617
S'enom415incorporated'
p1618
atp1619
Rp1620
sS'whois.namegrabllc.com'
p1621
g1
((lp1622
S'namegrabllc'
p1623
atp1624
Rp1625
sS'whois.domaincatcherllc.com'
p1626
g1
((lp1627
S'domaincatcherllc'
p1628
atp1629
Rp1630
sS'whois.domainmonster.com'
p1631
g1
((lp1632
S'meshdigitallimited'
p1633
atp1634
Rp1635
sS'whois.binero.se'
p1636
g1
((lp1637
S'bineroab'
p1638
atp1639
Rp1640
sS'whois.domaincollage.com'
p1641
g1
((lp1642
S'domaincollagellc'
p1643
aS'registercom'
p1644
atp1645
Rp1646
sS'whois.registrar.amazon.com'
p1647
g1
((lp1648
S'amazonregistrarinc'
p1649
atp1650
Rp1651
sS'whois.oldtowndomains.com'
p1652
g1
((lp1653
S'oldtowndomainscomllc'
p1654
atp1655
Rp1656
sS'whois.eastenddomainsllc.com'
p1657
g1
((lp1658
S'eastenddomainsllc'
p1659
atp1660
Rp1661
sS'whois.platinumregistrar.com'
p1662
g1
((lp1663
S'platinumregistrarinc'
p1664
atp1665
Rp1666
sS'whois.hebeidomains.com'
p1667
g1
((lp1668
S'hebeiguojimaoyishanghailtddbahebeidomainscom'
p1669
atp1670
Rp1671
sS'whois.udag.net'
p1672
g1
((lp1673
S'uniteddomainsag'
p1674
atp1675
Rp1676
sS'whois.hosting.kr'
p1677
g1
((lp1678
S'megazonecorpdbahostingkr'
p1679
atp1680
Rp1681
sS'whois.paragonnames.net'
p1682
g1
((lp1683
S'paragoninternetgroupltdtaparagonnames'
p1684
aS'paragoninternetgroupltd'
p1685
atp1686
Rp1687
sS'whois.domaininthebasket.com'
p1688
g1
((lp1689
S'domaininthebasketcomllc'
p1690
atp1691
Rp1692
sS'whois.dynadot4.com'
p1693
g1
((lp1694
S'dynadot4llc'
p1695
atp1696
Rp1697
sS'whois.thirdroundnamesllc.com'
p1698
g1
((lp1699
S'thirdroundnamesllc'
p1700
atp1701
Rp1702
sS'whois.domainamania.com'
p1703
g1
((lp1704
S'domainamaniacomllc'
p1705
atp1706
Rp1707
sS'whois.duckbilleddomains.com'
p1708
g1
((lp1709
S'duckbilleddomainscomllc'
p1710
atp1711
Rp1712
sS'whois.trafficnames.net'
p1713
g1
((lp1714
S'trafficnamesincorporated'
p1715
atp1716
Rp1717
sS'whois.enom387.com'
p1718
g1
((lp1719
S'enom387incorporated'
p1720
atp1721
Rp1722
sS'whois.jumboname.com'
p1723
g1
((lp1724
S'jumbonameinc'
p1725
atp1726
Rp1727
sS'whois.magnoliadomains.com'
p1728
g1
((lp1729
S'magnoliadomainsllc'
p1730
aS'registercom'
p1731
atp1732
Rp1733
sS'whois.aquariusdomains.com'
p1734
g1
((lp1735
S'aquariusdomainsllc'
p1736
atp1737
Rp1738
sS'whois.myobnet.com'
p1739
g1
((lp1740
S'uberaustraliae1ptyltd'
p1741
aS'uberglobale1ptyltd'
p1742
atp1743
Rp1744
sS'whois.domain1source.com'
p1745
g1
((lp1746
S'1domainsourceltddbadomainonesourceinc'
p1747
aS'1domainsourceltddbadomain1sourceinc'
p1748
atp1749
Rp1750
sS'whois.nameperfections.com'
p1751
g1
((lp1752
S'nameperfectionsinc'
p1753
atp1754
Rp1755
sS'whois.encirca.com'
p1756
g1
((lp1757
S'encircainc'
p1758
atp1759
Rp1760
sS'whois.goaustraliadomains.com'
p1761
g1
((lp1762
S'goaustraliadomainsllc'
p1763
atp1764
Rp1765
sS'whois.pearlnamingservice.com'
p1766
g1
((lp1767
S'pearlnamingservicecomllc'
p1768
atp1769
Rp1770
sS'whois.pacificdomainsllc.com'
p1771
g1
((lp1772
S'pacificdomainsllc'
p1773
atp1774
Rp1775
sS'whois.lws.net'
p1776
g1
((lp1777
S'lwsdbalignewebservices'
p1778
aS'lwssarl'
p1779
aS'lignewebservicessarldbalws'
p1780
atp1781
Rp1782
sS'whois.1isi.com'
p1783
g1
((lp1784
S'1internetservicesinternationalincdba1isi'
p1785
atp1786
Rp1787
sS'whois.namestopllc.com'
p1788
g1
((lp1789
S'namestopllc'
p1790
atp1791
Rp1792
sS'whois.euturbo.com'
p1793
g1
((lp1794
S'euturbocomllc'
p1795
atp1796
Rp1797
sS'whois.domainparkblock.com'
p1798
g1
((lp1799
S'domainparkblockcomllc'
p1800
atp1801
Rp1802
sS'whois.dynadot7.com'
p1803
g1
((lp1804
S'dynadot7llc'
p1805
atp1806
Rp1807
sS'whois.majorleaguedomains.com'
p1808
g1
((lp1809
S'majorleaguedomainsllc'
p1810
aS'registercom'
p1811
atp1812
Rp1813
sS'whois.nameselite.com'
p1814
g1
((lp1815
S'nameselitellc'
p1816
atp1817
Rp1818
sS'whois.hangtendomains.com'
p1819
g1
((lp1820
S'hangtendomainsllc'
p1821
aS'registercom'
p1822
atp1823
Rp1824
sS'whois.raregemdomainsllc.com'
p1825
g1
((lp1826
S'raregemdomainsllc'
p1827
atp1828
Rp1829
sS'whois.catchdeletingnamesllc.com'
p1830
g1
((lp1831
S'catchdeletingnamesllc'
p1832
atp1833
Rp1834
sS'whois.communigal.net'
p1835
g1
((lp1836
S'communigalcommunicationltd'
p1837
aS'sitenamecomllc'
p1838
aS'galcommunicationcommunigalltd'
p1839
aS'no1registrarllc'
p1840
aS'sitenameltd'
p1841
atp1842
Rp1843
sS'whois.dynadot12.com'
p1844
g1
((lp1845
S'dynadot12llc'
p1846
atp1847
Rp1848
sS'whois.nameking.com'
p1849
g1
((lp1850
S'namekingcominc'
p1851
atp1852
Rp1853
sS'whois.vedacore.com'
p1854
g1
((lp1855
S'vedacore'
p1856
atp1857
Rp1858
sS'ewhois.sundns.com'
p1859
g1
((lp1860
S'shanghaiyovolenetworksinc'
p1861
atp1862
Rp1863
sS'whois.bizcn.com'
p1864
g1
((lp1865
S'bizcncominc'
p1866
atp1867
Rp1868
sS'whois.domainshype.com'
p1869
g1
((lp1870
S'domainshypecominc'
p1871
atp1872
Rp1873
sS'whois.azprivatez.com'
p1874
g1
((lp1875
S'azprivatezllc'
p1876
atp1877
Rp1878
sS'whois.openname.com'
p1879
g1
((lp1880
S'opennamellc'
p1881
atp1882
Rp1883
sS'whois.azdomainz.com'
p1884
g1
((lp1885
S'azdomainzllc'
p1886
atp1887
Rp1888
sS'whois.enom413.com'
p1889
g1
((lp1890
S'enom413incorporated'
p1891
atp1892
Rp1893
sS'whois.hostingireland.ie'
p1894
g1
((lp1895
S'protocolinternettechnologylimitedtahostingireland'
p1896
atp1897
Rp1898
sS'whois.storkregistry.com'
p1899
g1
((lp1900
S'storkregistryinc'
p1901
atp1902
Rp1903
sS'whois.domainestaaqui.com'
p1904
g1
((lp1905
S'domainestaaquillc'
p1906
atp1907
Rp1908
sS'whois.eb.com.cn'
p1909
g1
((lp1910
S'hangzhoudianshanginternettechnologycoltd'
p1911
atp1912
Rp1913
sS'whois.nayana.com'
p1914
g1
((lp1915
S'internetnayanainc'
p1916
atp1917
Rp1918
sS'whois.global-village.de'
p1919
g1
((lp1920
S'globalvillagegmbh'
p1921
atp1922
Rp1923
sS'whois.namethread.com'
p1924
g1
((lp1925
S'namethreadcorporation'
p1926
atp1927
Rp1928
sS'whois.gonbei.jp'
p1929
g1
((lp1930
S'interlinkcoltd'
p1931
atp1932
Rp1933
sS'whois.ilait.com'
p1934
g1
((lp1935
S'ilaitab'
p1936
atp1937
Rp1938
sS'whois.snagyournamellc.com'
p1939
g1
((lp1940
S'snagyournamellc'
p1941
atp1942
Rp1943
sS'whois.name.net'
p1944
g1
((lp1945
S'namenetinc'
p1946
atp1947
Rp1948
sS'whois-generic.marcaria.com'
p1949
g1
((lp1950
S'marcariacominternationalinc'
p1951
atp1952
Rp1953
sS'whois.markmonitor.com'
p1954
g1
((lp1955
S'markmonitorinc'
p1956
atp1957
Rp1958
sS'whois.maffavenue.com'
p1959
g1
((lp1960
S'maffavenueinc'
p1961
atp1962
Rp1963
sS'whois.chinanet.cc'
p1964
g1
((lp1965
S'chinanettechnologysuzhoucoltd'
p1966
atp1967
Rp1968
sS'whois.eunamesoregon.com'
p1969
g1
((lp1970
S'eunamesoregoncomllc'
p1971
atp1972
Rp1973
sS'whois.enomv.com'
p1974
g1
((lp1975
S'enomvinc'
p1976
atp1977
Rp1978
sS'whois.fenominal.com'
p1979
g1
((lp1980
S'fenominalinc'
p1981
atp1982
Rp1983
sS'whois.domainsovereigns.com'
p1984
g1
((lp1985
S'domainsovereignscomllc'
p1986
atp1987
Rp1988
sS'whois.catalog.com'
p1989
g1
((lp1990
S'catalogcominc'
p1991
atp1992
Rp1993
sS'whois.advaloremdomains.com'
p1994
g1
((lp1995
S'advaloremdomainsllc'
p1996
atp1997
Rp1998
sS'whois.internetcap.us'
p1999
g1
((lp2000
S'name118inc'
p2001
atp2002
Rp2003
sS'whois.namearsenal.com'
p2004
g1
((lp2005
S'namearsenalcomllc'
p2006
atp2007
Rp2008
sS'whois.1hostcanada.com'
p2009
g1
((lp2010
S'1hostcanadainc'
p2011
atp2012
Rp2013
sS'whois.enom443.com'
p2014
g1
((lp2015
S'enom443incorporated'
p2016
atp2017
Rp2018
sS'whois.enom661.com'
p2019
g1
((lp2020
S'enom661inc'
p2021
atp2022
Rp2023
sS'whois.porkbun.com'
p2024
g1
((lp2025
S'porkbunllc'
p2026
atp2027
Rp2028
sS'whois.webnic.cc'
p2029
g1
((lp2030
S'webcc'
p2031
aS'webcommercecommunicationslimiteddbawebniccc'
p2032
atp2033
Rp2034
sS'whois.topshelfdomainsllc.com'
p2035
g1
((lp2036
S'topshelfdomainsllc'
p2037
atp2038
Rp2039
sS'whois.extranetdeclientes.com'
p2040
g1
((lp2041
S'estrategiaswebsitesl'
p2042
aS'tecnocraticacentrodedatossl'
p2043
atp2044
Rp2045
sS'whois.enomfor.com'
p2046
g1
((lp2047
S'enomforinc'
p2048
atp2049
Rp2050
sS'whois.enom635.com'
p2051
g1
((lp2052
S'enom635inc'
p2053
atp2054
Rp2055
sS'whois.worldbizdomains.com'
p2056
g1
((lp2057
S'worldbizdomainsllc'
p2058
atp2059
Rp2060
sS'whois.akky.mx'
p2061
g1
((lp2062
S'networkinformationcentermexicosc'
p2063
aS'akkyunadivisiondenicmexico'
p2064
atp2065
Rp2066
sS'whois.gocanadadomains.com'
p2067
g1
((lp2068
S'gocanadadomainsllc'
p2069
atp2070
Rp2071
sS'whois.internet.bs'
p2072
g1
((lp2073
S'tldregistrarsolutionsltd'
p2074
aS'internetdomainservicebscorp'
p2075
aS'internetbscorp'
p2076
aS'pakihostingcom'
p2077
atp2078
Rp2079
sS'whois.turbonamesllc.com'
p2080
g1
((lp2081
S'turbonamesllc'
p2082
atp2083
Rp2084
sS'whois.devildogdomains.com'
p2085
g1
((lp2086
S'devildogdomainscomllc'
p2087
atp2088
Rp2089
sS'whois.domainingoro.com'
p2090
g1
((lp2091
S'domainingorollc'
p2092
atp2093
Rp2094
sS'whois.reg.cn'
p2095
g1
((lp2096
S'zhengzhoucenturyconnectelectronictechnologydevelopmentcoltd'
p2097
atp2098
Rp2099
sS'whois.flancrestdomains.com'
p2100
g1
((lp2101
S'flancrestdomainscomllc'
p2102
atp2103
Rp2104
sS'whois.enom663.com'
p2105
g1
((lp2106
S'enom663inc'
p2107
atp2108
Rp2109
sS'whois.catchdomainsllc.com'
p2110
g1
((lp2111
S'catchdomainsllc'
p2112
atp2113
Rp2114
sS'whois.enom1012.com'
p2115
g1
((lp2116
S'enom1012inc'
p2117
atp2118
Rp2119
sS'whois.registrationtek.com'
p2120
g1
((lp2121
S'registrationtechnologiesinc'
p2122
atp2123
Rp2124
sS'whois.nameemperor.com'
p2125
g1
((lp2126
S'nameemperorcomllc'
p2127
atp2128
Rp2129
sS'whois.enom375.com'
p2130
g1
((lp2131
S'enom375incorporated'
p2132
atp2133
Rp2134
sS'whois.domaincomesaround.com'
p2135
g1
((lp2136
S'domaincomesaroundcomllc'
p2137
atp2138
Rp2139
sS'whois.dropcatchmarketplacellc.com'
p2140
g1
((lp2141
S'dropcatchmarketplacellc'
p2142
atp2143
Rp2144
sS'whois.techtyrants.com'
p2145
g1
((lp2146
S'techtyrantsinc'
p2147
atp2148
Rp2149
sS'whois.ename.com'
p2150
g1
((lp2151
S'enametechnologycoltd'
p2152
aS'domainnamenetworkptyltd'
p2153
atp2154
Rp2155
sS'whois.rumahweb.com'
p2156
g1
((lp2157
S'cvrumahwebindonesia'
p2158
atp2159
Rp2160
sS'whois.linedrivedomains.com'
p2161
g1
((lp2162
S'linedrivedomainsllc'
p2163
atp2164
Rp2165
sS'whois.cirs.us'
p2166
g1
((lp2167
S'name112inc'
p2168
atp2169
Rp2170
sS'whois.psi.jp'
p2171
g1
((lp2172
S'psijapaninc'
p2173
atp2174
Rp2175
sS'whois.sitefrenzy.com'
p2176
g1
((lp2177
S'sitefrenzycomllc'
p2178
atp2179
Rp2180
sS'whois.domainsurgeon.com'
p2181
g1
((lp2182
S'domainsurgeoncomllc'
p2183
atp2184
Rp2185
sS'whois.youdamain.com'
p2186
g1
((lp2187
S'youdamaincomllc'
p2188
atp2189
Rp2190
sS'whois.authenticweb.com'
p2191
g1
((lp2192
S'authenticwebinc'
p2193
atp2194
Rp2195
sS'whois.fabulous.com'
p2196
g1
((lp2197
S'fabulouscomptyltd'
p2198
atp2199
Rp2200
sS'whois.domainsourcellc.com'
p2201
g1
((lp2202
S'domainsourcellc'
p2203
atp2204
Rp2205
sS'whois.ladasdomains.com'
p2206
g1
((lp2207
S'ladasdomainsllc'
p2208
atp2209
Rp2210
sS'whois.luckyelephantdomains.com'
p2211
g1
((lp2212
S'luckyelephantdomainsllc'
p2213
atp2214
Rp2215
sS'whois.ccireg.com'
p2216
g1
((lp2217
S'cciregsa'
p2218
atp2219
Rp2220
sS'whois.crystalcoal.com'
p2221
g1
((lp2222
S'crystalcoalinc'
p2223
atp2224
Rp2225
sS'whois.dotmedia.com'
p2226
g1
((lp2227
S'dotmedialimited'
p2228
atp2229
Rp2230
sS'whois.dns.com.cn'
p2231
g1
((lp2232
S'beijinginnovativelinkagetechnologyltddbadnscomcn'
p2233
aS'beijinginnovativelinkagetechnologyltd'
p2234
atp2235
Rp2236
sS'whois.nicreg.com'
p2237
g1
((lp2238
S'nicregllc'
p2239
atp2240
Rp2241
sS'whois.toglodo.com'
p2242
g1
((lp2243
S'toglodosa'
p2244
atp2245
Rp2246
sS'whois.everreadynames.com'
p2247
g1
((lp2248
S'everreadynamesinc'
p2249
atp2250
Rp2251
sS'whois.dattatec.com'
p2252
g1
((lp2253
S'dattateccomsrl'
p2254
atp2255
Rp2256
sS'whois.namecroc.com'
p2257
g1
((lp2258
S'namecroccomllc'
p2259
atp2260
Rp2261
sS'whois.enom1034.com'
p2262
g1
((lp2263
S'enom1034inc'
p2264
atp2265
Rp2266
sS'whois.burnsidedomains.com'
p2267
g1
((lp2268
S'burnsidedomainscomllc'
p2269
atp2270
Rp2271
sS'whois.eranet.com'
p2272
g1
((lp2273
S'eranetinternationallimited'
p2274
atp2275
Rp2276
sS'whois.cronon.net'
p2277
g1
((lp2278
S'crononag'
p2279
atp2280
Rp2281
sS'whois.domainyeti.com'
p2282
g1
((lp2283
S'domainyeticomllc'
p2284
atp2285
Rp2286
sS'whois.website.ws'
p2287
g1
((lp2288
S'globaldomainsinternationalincdbadomaincostclubcom'
p2289
aS'domaincostclub'
p2290
aS'globaldomainsinternational'
p2291
atp2292
Rp2293
sS'whois.rankusa.com'
p2294
g1
((lp2295
S'rankusainc'
p2296
atp2297
Rp2298
sS'whois.enom395.com'
p2299
g1
((lp2300
S'enom395incorporated'
p2301
atp2302
Rp2303
sS'whois.namesilo.com'
p2304
g1
((lp2305
S'toekienterprisesco'
p2306
aS'namesilollc'
p2307
atp2308
Rp2309
sS'whois.1and1.com'
p2310
g1
((lp2311
S'11internetse'
p2312
atp2313
Rp2314
sS'whois.bigrock.com'
p2315
g1
((lp2316
S'bigrocksolutionslimited'
p2317
aS'bigrocksolutionsltd'
p2318
atp2319
Rp2320
sS'whois.nictrade.se'
p2321
g1
((lp2322
S'nictradeinternetidentidyproviderab'
p2323
aS'nictradeinternetidentityproviderab'
p2324
atp2325
Rp2326
sS'whois.enom439.com'
p2327
g1
((lp2328
S'enom439incorporated'
p2329
atp2330
Rp2331
sS'whois.comlaude.com'
p2332
g1
((lp2333
S'nomiqltddbacomlaude'
p2334
atp2335
Rp2336
sS'whois.ascio.com'
p2337
g1
((lp2338
S'asciotechnologiesinc'
p2339
aS'asciotechnologiesincdanmarkfilialafasciotechnologiesincusa'
p2340
atp2341
Rp2342
sS'whois.backslapdomains.com'
p2343
g1
((lp2344
S'backslapdomainsinc'
p2345
aS'backslapdomains'
p2346
atp2347
Rp2348
sS'whois.yourdomainking.com'
p2349
g1
((lp2350
S'yourdomainkinginc'
p2351
atp2352
Rp2353
sS'whois.endeavourdomains.com'
p2354
g1
((lp2355
S'endeavourdomainsllc'
p2356
aS'registercom'
p2357
atp2358
Rp2359
sS'whois.snapsourcellc.com'
p2360
g1
((lp2361
S'snapsourcellc'
p2362
atp2363
Rp2364
sS'whois.bonamfortunamdomains.com'
p2365
g1
((lp2366
S'bonamfortunamdomainsllc'
p2367
aS'registercom'
p2368
atp2369
Rp2370
sS'whois.magnatedomains.com'
p2371
g1
((lp2372
S'magnatedomainsllc'
p2373
aS'registercom'
p2374
atp2375
Rp2376
sS'whois.yourdomainllc.com'
p2377
g1
((lp2378
S'yourdomainllc'
p2379
atp2380
Rp2381
sS'whois.deepseadomainsllc.com'
p2382
g1
((lp2383
S'deepseadomainsllc'
p2384
atp2385
Rp2386
sS'whois.streamlinedomains.com'
p2387
g1
((lp2388
S'streamlinedomainsllc'
p2389
aS'registercom'
p2390
atp2391
Rp2392
sS'whois.eunameflood.com'
p2393
g1
((lp2394
S'eunamefloodcomllc'
p2395
atp2396
Rp2397
sS'whois.naugus.com'
p2398
g1
((lp2399
S'nauguslimitedllc'
p2400
atp2401
Rp2402
sS'whois.srsplus.com'
p2403
g1
((lp2404
S'tldsllcdbasrsplus'
p2405
aS'registercom'
p2406
atp2407
Rp2408
sS'whois.enetica.com.au'
p2409
g1
((lp2410
S'eneticaptyltd'
p2411
atp2412
Rp2413
sS'whois.8hy.cn'
p2414
g1
((lp2415
S'huyiglobalinformationhongkonglimited'
p2416
aS'huyiglobalinformationresourcesholdingcompanyhongkonglimited'
p2417
atp2418
Rp2419
sS'whois.savethename.com'
p2420
g1
((lp2421
S'savethenamecomllc'
p2422
atp2423
Rp2424
sS'whois.maprilis.com.vn'
p2425
g1
((lp2426
S'aprilseainformationtechnologycorporation'
p2427
atp2428
Rp2429
sS'whois.dynadot11.com'
p2430
g1
((lp2431
S'dynadot11llc'
p2432
atp2433
Rp2434
sS'whois.enom5.com'
p2435
g1
((lp2436
S'enom5inc'
p2437
atp2438
Rp2439
sS'whois.midwestdomainsllc.com'
p2440
g1
((lp2441
S'midwestdomainsllc'
p2442
atp2443
Rp2444
sS'whois.octopusdomains.net'
p2445
g1
((lp2446
S'octopusdomainsnetllc'
p2447
atp2448
Rp2449
sS'whois.belmontdomains.com'
p2450
g1
((lp2451
S'belmontdomainscomllc'
p2452
atp2453
Rp2454
sS'whois.gozerdomains.com'
p2455
g1
((lp2456
S'gozerdomainscomllc'
p2457
atp2458
Rp2459
sS'whois.register.eu'
p2460
g1
((lp2461
S'registernvdbaregistereu'
p2462
atp2463
Rp2464
sS'whois.web4africa.net'
p2465
g1
((lp2466
S'web4africainc'
p2467
atp2468
Rp2469
sS'whois.corporatedomains.com'
p2470
g1
((lp2471
S'csccorporatedomainsinc'
p2472
atp2473
Rp2474
sS'whois.neubox.com'
p2475
g1
((lp2476
S'neuboxinternetsadecv'
p2477
atp2478
Rp2479
sS'whois.sbsnames.com'
p2480
g1
((lp2481
S'sbsnamesincorporated'
p2482
atp2483
Rp2484
sS'whois.enom373.com'
p2485
g1
((lp2486
S'enom373incorporated'
p2487
atp2488
Rp2489
sS'whois.flappydomain.com'
p2490
g1
((lp2491
S'flappydomaininc'
p2492
atp2493
Rp2494
sS'whois.biwo.com'
p2495
g1
((lp2496
S'chinaspringboardinc'
p2497
aS'ejeegroupholdingslimited'
p2498
atp2499
Rp2500
sS'whois.publicdomainregistry.com'
p2501
g1
((lp2502
S'clickregistrarincdbapublicdomainregistrycom'
p2503
aS'logicboxesnamingservicesltd'
p2504
aS'pdrltddbapublicdomainregistrycom'
p2505
atp2506
Rp2507
sS'nswhois.domainregistry.com'
p2508
g1
((lp2509
S'domainregistrycominc'
p2510
atp2511
Rp2512
sS'whois.yesnic.com'
p2513
g1
((lp2514
S'whoisnetworkscoltd'
p2515
atp2516
Rp2517
sS'whois.nameiconllc.com'
p2518
g1
((lp2519
S'nameiconllc'
p2520
atp2521
Rp2522
sS'whois.netlogistics.com.au'
p2523
g1
((lp2524
S'netlogisticsptyltd'
p2525
atp2526
Rp2527
sS'whois.alldomainsllc.com'
p2528
g1
((lp2529
S'alldomainsllc'
p2530
atp2531
Rp2532
sS'whois.chocolatechipdomains.com'
p2533
g1
((lp2534
S'chocolatechipdomainsllc'
p2535
aS'registercom'
p2536
atp2537
Rp2538
sS'whois.jarheaddomains.com'
p2539
g1
((lp2540
S'jarheaddomainscomllc'
p2541
atp2542
Rp2543
sS'whois.onlinenic.com'
p2544
g1
((lp2545
S'hostingukraineltd'
p2546
aS'onlinenicinc'
p2547
atp2548
Rp2549
sS'whois.sliceofheavendomains.com'
p2550
g1
((lp2551
S'sliceofheavendomainsllc'
p2552
atp2553
Rp2554
sS'whois.europeanconnectiononline.com'
p2555
g1
((lp2556
S'europeanconnectiononlinecomllc'
p2557
atp2558
Rp2559
sS'whois.your-server.de'
p2560
g1
((lp2561
S'hetzneronlinegmbh'
p2562
atp2563
Rp2564
sS'whois.longdrivedomainsllc.com'
p2565
g1
((lp2566
S'longdrivedomainsllc'
p2567
atp2568
Rp2569
sS'whois.namemaster.de'
p2570
g1
((lp2571
S'namemasterrcgmbh'
p2572
atp2573
Rp2574
sS'whois.searchnresq.com'
p2575
g1
((lp2576
S'searchnresqinc'
p2577
atp2578
Rp2579
sS'whois.sdsns.com'
p2580
g1
((lp2581
S'samjungdataservicecoltd'
p2582
atp2583
Rp2584
sS'whois.register4less.com'
p2585
g1
((lp2586
S'register4lessinc'
p2587
atp2588
Rp2589
sS'whois.fushitarazu.com'
p2590
g1
((lp2591
S'fushitarazuincorporated'
p2592
atp2593
Rp2594
sS'whois.62.net'
p2595
g1
((lp2596
S'shenzheninternetworksonlinetechnologycoltd62com'
p2597
aS'shenzheninternetworksonlinecoltd'
p2598
aS'shenzheninternetworksonlinetechnologycoltd'
p2599
atp2600
Rp2601
sS'whois.entrustdomains.com'
p2602
g1
((lp2603
S'entrustdomainsllc'
p2604
aS'registercom'
p2605
atp2606
Rp2607
sS'whois.instra.net'
p2608
g1
((lp2609
S'instracorporationptyltd'
p2610
atp2611
Rp2612
sS'vividwhois.vividdomains.com'
p2613
g1
((lp2614
S'vividdomainsinc'
p2615
aS'vividdomains'
p2616
atp2617
Rp2618
sS'whois.1hostjapan.com'
p2619
g1
((lp2620
S'1hostjapaninc'
p2621
atp2622
Rp2623
sS'whois.netzadresse.at'
p2624
g1
((lp2625
S'netzadresseatdomainservicegmbh'
p2626
atp2627
Rp2628
sS'whois.pinkelephantdomains.com'
p2629
g1
((lp2630
S'registercom'
p2631
aS'pinkelephantdomainsllc'
p2632
atp2633
Rp2634
sS'whois.domainnamefwy.com'
p2635
g1
((lp2636
S'domainnamefwyinc'
p2637
atp2638
Rp2639
sS'whois.crazydomains.com'
p2640
g1
((lp2641
S'crazydomainsfzllc'
p2642
atp2643
Rp2644
sS'whois.melbourneit.com'
p2645
g1
((lp2646
S'melbourneitltddbainternetnamesworldwide'
p2647
aS'melbourneitltd'
p2648
atp2649
Rp2650
sS'whois.dropcatchingnamesllc.com'
p2651
g1
((lp2652
S'dropcatchingnamesllc'
p2653
atp2654
Rp2655
sS'whois.tldregistrarsolutions.com'
p2656
g1
((lp2657
S'tldregistrarsolutionsltd'
p2658
atp2659
Rp2660
sS'whois.webinfinityinc.com'
p2661
g1
((lp2662
S'name107inc'
p2663
atp2664
Rp2665
sS'whois.domainsoverboard.com'
p2666
g1
((lp2667
S'domainsoverboardcomllc'
p2668
atp2669
Rp2670
sS'whois.v12domains.com'
p2671
g1
((lp2672
S'v12domainsllc'
p2673
atp2674
Rp2675
sS'whois.enom427.com'
p2676
g1
((lp2677
S'enom427incorporated'
p2678
atp2679
Rp2680
sS'whois.iserveyourdomain.com'
p2681
g1
((lp2682
S'iserveyourdomaincomllc'
p2683
atp2684
Rp2685
sS'whois.iaregistry.com'
p2686
g1
((lp2687
S'theregistryatinfoavenuellcdbaspiritcommunications'
p2688
aS'theregistryatinfoavenue'
p2689
atp2690
Rp2691
sS'whois.lcn.com'
p2692
g1
((lp2693
S'lcncomltd'
p2694
atp2695
Rp2696
sS'whois.35.com'
p2697
g1
((lp2698
S'35technologycoltd'
p2699
atp2700
Rp2701
sS'whois.cloudninedomains.com'
p2702
g1
((lp2703
S'cloudninedomainllc'
p2704
aS'registercom'
p2705
atp2706
Rp2707
sS'whois.findyouadomain.com'
p2708
g1
((lp2709
S'findyouadomaincomllc'
p2710
atp2711
Rp2712
sS'whois.z-core.com'
p2713
g1
((lp2714
S'oneputtinc'
p2715
aS'oneputtincformerly'
p2716
atp2717
Rp2718
sS'whois.omnis.com'
p2719
g1
((lp2720
S'omnisnetworkllc'
p2721
atp2722
Rp2723
sS'com.whois.ods.vn'
p2724
g1
((lp2725
S'onlinedataservicesjointstockcompany'
p2726
atp2727
Rp2728
sS'whois.enom463.com'
p2729
g1
((lp2730
S'enom463incorporated'
p2731
atp2732
Rp2733
sS'whois.domainthenet.com'
p2734
g1
((lp2735
S'domainthenettechnologiesltd'
p2736
aS'domainthenetcom'
p2737
atp2738
Rp2739
sS'whois.atakteknoloji.com'
p2740
g1
((lp2741
S'atakdomain'
p2742
aS'atakdomainhostinginternetvebilgiteknolojilerilimitedsirketidbaatakteknoloji'
p2743
atp2744
Rp2745
sS'whois.dropoutlet.com'
p2746
g1
((lp2747
S'dropoutletincorporated'
p2748
atp2749
Rp2750
sS'whois.domainnovations.com'
p2751
g1
((lp2752
S'domainnovationsincorporated'
p2753
atp2754
Rp2755
sS'whois.namesourcedomains.com'
p2756
g1
((lp2757
S'namesourcedomainsllc'
p2758
aS'registercom'
p2759
atp2760
Rp2761
sS'whois.backstopnamesllc.com'
p2762
g1
((lp2763
S'backstopnamesllc'
p2764
atp2765
Rp2766
sS'whois.fastballdomainsllc.com'
p2767
g1
((lp2768
S'fastballdomainsllc'
p2769
atp2770
Rp2771
sS'whois.getyername.com'
p2772
g1
((lp2773
S'aimhighincdbagetyername'
p2774
atp2775
Rp2776
sS'whois.tirupatidomains.in'
p2777
g1
((lp2778
S'tirupatidomainsandhostingprivatelimited'
p2779
atp2780
Rp2781
sS'whois.inic.ch'
p2782
g1
((lp2783
S'inicgmbh'
p2784
atp2785
Rp2786
sS'whois.domainsnapperllc.com'
p2787
g1
((lp2788
S'domainsnapperllc'
p2789
atp2790
Rp2791
sS'whois.sharkweekdomainsllc.com'
p2792
g1
((lp2793
S'sharkweekdomainsllc'
p2794
atp2795
Rp2796
sS'whois.domaincirclellc.com'
p2797
g1
((lp2798
S'domaincirclellc'
p2799
atp2800
Rp2801
sS'whois.domaindropsllc.com'
p2802
g1
((lp2803
S'domaindropllc'
p2804
atp2805
Rp2806
sS'whois.nordnet.net'
p2807
g1
((lp2808
S'nordnet'
p2809
atp2810
Rp2811
sS'whois.lionsharedomains.com'
p2812
g1
((lp2813
S'lionsharedomainsllc'
p2814
atp2815
Rp2816
sS'whois.dharanadomains.com'
p2817
g1
((lp2818
S'name114inc'
p2819
atp2820
Rp2821
sS'whois.afterdarkdomainsincorporated.com'
p2822
g1
((lp2823
S'afterdarkdomainsincorporated'
p2824
atp2825
Rp2826
sS'whois.oregonurls.com'
p2827
g1
((lp2828
S'oregonurlscomllc'
p2829
atp2830
Rp2831
sS'whois.domainerschoice.com'
p2832
g1
((lp2833
S'nanjingimperiosustechnologycoltd'
p2834
atp2835
Rp2836
sS'whois.tag-domains.com'
p2837
g1
((lp2838
S'tagidomains'
p2839
atp2840
Rp2841
sS'whois.nameweb.biz'
p2842
g1
((lp2843
S'namewebbvba'
p2844
atp2845
Rp2846
sS'whois.noteworthydomains.com'
p2847
g1
((lp2848
S'registercom'
p2849
aS'noteworthydomainsllc'
p2850
atp2851
Rp2852
sS'whois.bottledomains.com'
p2853
g1
((lp2854
S'bottledomainsinc'
p2855
atp2856
Rp2857
sS'whois.domainmantra.com'
p2858
g1
((lp2859
S'domainmantrainc'
p2860
atp2861
Rp2862
sS'whois.enom1010.com'
p2863
g1
((lp2864
S'enom1010inc'
p2865
atp2866
Rp2867
sS'whois.anchovy.com'
p2868
g1
((lp2869
S'hoganlovellsinternationalllp'
p2870
atp2871
Rp2872
sS'whois.findyouaname.com'
p2873
g1
((lp2874
S'findyouanamecomllc'
p2875
atp2876
Rp2877
sS'whois.dynadot10.com'
p2878
g1
((lp2879
S'dynadot10llc'
p2880
atp2881
Rp2882
sS'whois.domaininthehole.com'
p2883
g1
((lp2884
S'domainintheholecomllc'
p2885
atp2886
Rp2887
sS'whois.onlinenameservices.com'
p2888
g1
((lp2889
S'name109inc'
p2890
atp2891
Rp2892
sS'whois.extrathreads.com'
p2893
g1
((lp2894
S'extrathreadscorporation'
p2895
atp2896
Rp2897
sS'whois.topsystem.com'
p2898
g1
((lp2899
S'topsystemllc'
p2900
atp2901
Rp2902
sS'whois.domainnamepath.com'
p2903
g1
((lp2904
S'domainnamepathinc'
p2905
atp2906
Rp2907
sS'whois.pananames.com'
p2908
g1
((lp2909
S'urlsolutionsinc'
p2910
atp2911
Rp2912
sS'whois.millennialnamesllc.com'
p2913
g1
((lp2914
S'millennialnamesllc'
p2915
atp2916
Rp2917
sS'whois.pararescuedomains.com'
p2918
g1
((lp2919
S'pararescuedomainscomllc'
p2920
atp2921
Rp2922
sS'whois.dynadot9.com'
p2923
g1
((lp2924
S'dynadot9llc'
p2925
atp2926
Rp2927
sS'whois.resellercamp.com'
p2928
g1
((lp2929
S'cvjogjacamp'
p2930
atp2931
Rp2932
sS'whois.layupdomainsllc.com'
p2933
g1
((lp2934
S'layupdomainsllc'
p2935
atp2936
Rp2937
sS'whois.ukrnames.com'
p2938
g1
((lp2939
S'centerofukrainianinternetnames'
p2940
aS'hostingukraineltd'
p2941
aS'centerofukrainianinternetnamesukrnames'
p2942
atp2943
Rp2944
sS'whois.topvhost.net'
p2945
g1
((lp2946
S'guangzhouehosttechcoltd'
p2947
atp2948
Rp2949
sS'whois.dynadot.com'
p2950
g1
((lp2951
S'dynadotllc'
p2952
atp2953
Rp2954
sS'whois.profilebuilder.com'
p2955
g1
((lp2956
S'interwebadvertisingdbaprofilebuilder'
p2957
aS'profilebuildercomllc'
p2958
atp2959
Rp2960
sS'whois.123-reg.co.uk'
p2961
g1
((lp2962
S'webfusionlimited'
p2963
aS'123reglimited'
p2964
aS'meshdigitallimited'
p2965
atp2966
Rp2967
sS'whois.fiducia.lv'
p2968
g1
((lp2969
S'fiduciallclatvijasparstavnieciba'
p2970
atp2971
Rp2972
sS'whois.domainalacarte.com'
p2973
g1
((lp2974
S'domainalacartellc'
p2975
aS'registercom'
p2976
atp2977
Rp2978
sS'whois.iisp.com'
p2979
g1
((lp2980
S'zhuhainaisinikeinformationtechnologycoltd'
p2981
aS'guangdongnaisinikeinformationtechnologycoltd'
p2982
atp2983
Rp2984
sS'whois.domaincentral.com.au'
p2985
g1
((lp2986
S'domaincentralaustraliaptyltd'
p2987
atp2988
Rp2989
sS'whois.domainadministration.com'
p2990
g1
((lp2991
S'domainadministrationcomllc'
p2992
atp2993
Rp2994
sS'whois.1198.cn'
p2995
g1
((lp2996
S'shenzhenhulianxianfengtechnologycoltd'
p2997
atp2998
Rp2999
sS'whois.enom461.com'
p3000
g1
((lp3001
S'enom461incorporated'
p3002
atp3003
Rp3004
sS'whois.domainshopllc.com'
p3005
g1
((lp3006
S'domainshopllc'
p3007
atp3008
Rp3009
sS'whois.dropcatchminingllc.com'
p3010
g1
((lp3011
S'dropcatchminingllc'
p3012
atp3013
Rp3014
sS'whois.discountdomainsuk.com'
p3015
g1
((lp3016
S'discountdomainsukltd'
p3017
aS'discountdomainsltd'
p3018
atp3019
Rp3020
sS'whois.west263.com'
p3021
g1
((lp3022
S'chengduwestdimensiondigitaltechnologycoltd'
p3023
atp3024
Rp3025
sS'whois.neworderdomains.com'
p3026
g1
((lp3027
S'neworderdomainsllc'
p3028
aS'registercom'
p3029
atp3030
Rp3031
sS'whois.namespro.ca'
p3032
g1
((lp3033
S'namesprosolutionsinc'
p3034
atp3035
Rp3036
sS'whois.namecatchzonellc.com'
p3037
g1
((lp3038
S'namecatchzonellc'
p3039
atp3040
Rp3041
sS'whois.namemax.cn'
p3042
g1
((lp3043
S'beijingwangzuntechnologycoltd'
p3044
atp3045
Rp3046
sS'whois.enterprice.net'
p3047
g1
((lp3048
S'epagdomainservicesgmbh'
p3049
atp3050
Rp3051
sS'whois.activeregistrar.com'
p3052
g1
((lp3053
S'activeregistrarinc'
p3054
atp3055
Rp3056
sS'whois.1hostchina.com'
p3057
g1
((lp3058
S'1hostchinainc'
p3059
atp3060
Rp3061
sS'whois.touchdowndomainsllc.com'
p3062
g1
((lp3063
S'touchdowndomainsllc'
p3064
atp3065
Rp3066
sS'whois.domainpeople.com'
p3067
g1
((lp3068
S'domainpeopleinc'
p3069
atp3070
Rp3071
sS'whois.hazeldomains.com'
p3072
g1
((lp3073
S'hazeldomainsinc'
p3074
atp3075
Rp3076
sS'whois.betterthanaveragedomains.com'
p3077
g1
((lp3078
S'betterthanaveragedomainscomllc'
p3079
atp3080
Rp3081
sS'whois.domain.com'
p3082
g1
((lp3083
S'domaincomllc'
p3084
atp3085
Rp3086
sS'whois.nominfinitum.com'
p3087
g1
((lp3088
S'nominfinitumincorporated'
p3089
atp3090
Rp3091
sS'whois.domainregservices.com'
p3092
g1
((lp3093
S'name115inc'
p3094
atp3095
Rp3096
sS'whois.oleane.net'
p3097
g1
((lp3098
S'orange'
p3099
atp3100
Rp3101
sS'whois.king-domains.com'
p3102
g1
((lp3103
S'kingdomainsincorporated'
p3104
atp3105
Rp3106
sS'whois.freestyleholdings.com'
p3107
g1
((lp3108
S'name116inc'
p3109
atp3110
Rp3111
sS'whois.0101domain.com'
p3112
g1
((lp3113
S'0101internetinc'
p3114
aS'friendsmarketinginc0101hostcom'
p3115
atp3116
Rp3117
sS'whois.whiteglovedomains.com'
p3118
g1
((lp3119
S'whiteglovedomainsincorporated'
p3120
atp3121
Rp3122
sS'whois.enom659.com'
p3123
g1
((lp3124
S'enom659inc'
p3125
atp3126
Rp3127
sS'whois.goodluckdomain.com'
p3128
g1
((lp3129
S'goodluckinternetservicespvtltd'
p3130
atp3131
Rp3132
sS'whois.guoxuwang.cn'
p3133
g1
((lp3134
S'beijingguoxunetworktechnologycoltd'
p3135
atp3136
Rp3137
sS'whois.sugarcubedomains.com'
p3138
g1
((lp3139
S'sugarcubedomainsllc'
p3140
aS'registercom'
p3141
atp3142
Rp3143
sS'whois.extremelywild.com'
p3144
g1
((lp3145
S'extremelywildinc'
p3146
atp3147
Rp3148
sS'whois.imena.ua'
p3149
g1
((lp3150
S'internetinvestltddbaimenaua'
p3151
atp3152
Rp3153
sS'whois.world4you.com'
p3154
g1
((lp3155
S'world4youinternetservicesgmbh'
p3156
atp3157
Rp3158
sS'whois.clouddomainregistry.com'
p3159
g1
((lp3160
S'siliconhousenetpvtltd'
p3161
atp3162
Rp3163
sS'whois.discount-domain.com'
p3164
g1
((lp3165
S'gmointernetincdbaonamaecom'
p3166
aS'gmointernetinc'
p3167
atp3168
Rp3169
sS'whois.enom409.com'
p3170
g1
((lp3171
S'enom409incorporated'
p3172
atp3173
Rp3174
sS'whois.psi-usa.info'
p3175
g1
((lp3176
S'psiusaincdbadomainrobot'
p3177
atp3178
Rp3179
sS'whois.joinup.jp'
p3180
g1
((lp3181
S'wixiincorporated'
p3182
atp3183
Rp3184
sS'whois.columbianames.com'
p3185
g1
((lp3186
S'columbianamescomllc'
p3187
atp3188
Rp3189
sS'whois.cndns.cn'
p3190
g1
((lp3191
S'henanweichuangnetworktechnologycoltd'
p3192
atp3193
Rp3194
sS'whois.toptierdomainsllc.com'
p3195
g1
((lp3196
S'toptierdomainsllc'
p3197
atp3198
Rp3199
sS'whois.dotalliance.com'
p3200
g1
((lp3201
S'dotallianceinc'
p3202
atp3203
Rp3204
sS'whois.squidsailerdomains.com'
p3205
g1
((lp3206
S'squidsailerdomainscomllc'
p3207
aS'registercom'
p3208
atp3209
Rp3210
sS'whois.zoneofdomainsllc.com'
p3211
g1
((lp3212
S'zoneofdomainsllc'
p3213
atp3214
Rp3215
sS'whois.enom431.com'
p3216
g1
((lp3217
S'enom431incorporated'
p3218
atp3219
Rp3220
sS'whois.coralreefdomainsllc.com'
p3221
g1
((lp3222
S'coralreefdomainsllc'
p3223
atp3224
Rp3225
sS'whois.1api.net'
p3226
g1
((lp3227
S'1apigmbh'
p3228
atp3229
Rp3230
sS'whois.bonzaidomains.com'
p3231
g1
((lp3232
S'bonzaidomainsllc'
p3233
aS'registercom'
p3234
atp3235
Rp3236
sS'whois.blacknight.com'
p3237
g1
((lp3238
S'blacknightinternetsolutionsltd'
p3239
atp3240
Rp3241
sS'whois.netdorm.com'
p3242
g1
((lp3243
S'netdormincdbadnsexitcom'
p3244
atp3245
Rp3246
sS'whois.thirdfloordns.com'
p3247
g1
((lp3248
S'thirdfloordnscomllc'
p3249
atp3250
Rp3251
sS'whois.namecheap.com'
p3252
g1
((lp3253
S'namecheapinc'
p3254
atp3255
Rp3256
sS'whois.paimi.com'
p3257
g1
((lp3258
S'paimicom'
p3259
aS'paimiinc'
p3260
aS'namepalcom8022'
p3261
aS'namepalcom8020'
p3262
aS'namepalcom8005'
p3263
aS'agrinooninc'
p3264
aS'namepalcom8003'
p3265
atp3266
Rp3267
sS'whois.mobilenameservices.com'
p3268
g1
((lp3269
S'mobilenameservicesinc'
p3270
atp3271
Rp3272
sS'whois.dinahosting.com'
p3273
g1
((lp3274
S'dinahostingsl'
p3275
atp3276
Rp3277
sS'whois.maff.com'
p3278
g1
((lp3279
S'maffinc'
p3280
atp3281
Rp3282
sS'grs-whois.cndns.com'
p3283
g1
((lp3284
S'shanghaimeichengtechnologyinformationdevelopmentcoltd'
p3285
atp3286
Rp3287
sS'whois.bookmyname.com'
p3288
g1
((lp3289
S'onlinesas'
p3290
atp3291
Rp3292
sS'whois.sunmounta.in'
p3293
g1
((lp3294
S'name108inc'
p3295
atp3296
Rp3297
sS'whois.dynadot8.com'
p3298
g1
((lp3299
S'dynadot8llc'
p3300
atp3301
Rp3302
sS'whois.secondroundnamesllc.com'
p3303
g1
((lp3304
S'secondroundnamesllc'
p3305
atp3306
Rp3307
sS'whois.astutium.com'
p3308
g1
((lp3309
S'astutiumlimited'
p3310
atp3311
Rp3312
sS'whois.serveisweb.com'
p3313
g1
((lp3314
S'swhostingcommunicationstechnologiessl'
p3315
atp3316
Rp3317
sS'whois.meshdigital.com'
p3318
g1
((lp3319
S'meshdigitallimited'
p3320
atp3321
Rp3322
sS'whois.brennercom.com'
p3323
g1
((lp3324
S'brennercomlimited'
p3325
atp3326
Rp3327
sS'whois.enom1.com'
p3328
g1
((lp3329
S'enom1inc'
p3330
atp3331
Rp3332
sS'whois.bouncepassdomainsllc.com'
p3333
g1
((lp3334
S'bouncepassdomainsllc'
p3335
atp3336
Rp3337
sS'whois.rrpproxy.net'
p3338
g1
((lp3339
S'keysystemsgmbh'
p3340
aS'delinkgmbh'
p3341
aS'iptwinssas'
p3342
atp3343
Rp3344
sS'whois.powernamers.com'
p3345
g1
((lp3346
S'powernamersinc'
p3347
atp3348
Rp3349
sS'whois.seymourdomains.com'
p3350
g1
((lp3351
S'seymourdomainsllc'
p3352
atp3353
Rp3354
sS'whois.curveballdomainsllc.com'
p3355
g1
((lp3356
S'curveballdomainsllc'
p3357
atp3358
Rp3359
sS'whois-all.nameshare.com'
p3360
g1
((lp3361
S'nameshareinc'
p3362
atp3363
Rp3364
sS'whois.gofullhouse.com'
p3365
g1
((lp3366
S'gofullhouseinc'
p3367
atp3368
Rp3369
sS'whois.brandnames.com'
p3370
g1
((lp3371
S'brandnamescomsarl'
p3372
atp3373
Rp3374
sS'whois.domainagent.co.nz'
p3375
g1
((lp3376
S'webdriveltd'
p3377
atp3378
Rp3379
sS'whois.uniregistrar.com'
p3380
g1
((lp3381
S'uniregistrarcorp'
p3382
atp3383
Rp3384
sS'whois2016.jprs.jp'
p3385
g1
((lp3386
S'japanregistryservicescoltdjprs'
p3387
aS'japanregistryservicescoltd'
p3388
atp3389
Rp3390
sS'whois.ibi.net'
p3391
g1
((lp3392
S'netpiacominc'
p3393
atp3394
Rp3395
sS'whois.dreamhost.com'
p3396
g1
((lp3397
S'dreamhostllc'
p3398
aS'dreamhost'
p3399
atp3400
Rp3401
sS'whois.ultraregistrar.com'
p3402
g1
((lp3403
S'ultraregistrarinc'
p3404
atp3405
Rp3406
sS'whois.nominalia.com'
p3407
g1
((lp3408
S'nominaliainternetsl'
p3409
atp3410
Rp3411
sS'whois.myorderbox.com'
p3412
g1
((lp3413
S'nic1inc'
p3414
atp3415
Rp3416
sS'whois.deerwood.name'
p3417
g1
((lp3418
S'name113inc'
p3419
atp3420
Rp3421
sS'whois.willamettenames.com'
p3422
g1
((lp3423
S'willamettenamescomllc'
p3424
atp3425
Rp3426
sS'whois.oiinternet.com.br'
p3427
g1
((lp3428
S'oiinternetsa'
p3429
atp3430
Rp3431
sS'whois.slowmotiondomainsllc.com'
p3432
g1
((lp3433
S'slowmotiondomainsllc'
p3434
atp3435
Rp3436
sS'whois.ireg.net'
p3437
g1
((lp3438
S'imperialregistrationsinc'
p3439
atp3440
Rp3441
sS'whois.entorno.com'
p3442
g1
((lp3443
S'entornodigitalsa'
p3444
atp3445
Rp3446
sS'whois.enomgmpservices.com'
p3447
g1
((lp3448
S'enomgmpservicesinc'
p3449
atp3450
Rp3451
sS'whois.dynadot6.com'
p3452
g1
((lp3453
S'dynadot6llc'
p3454
atp3455
Rp3456
sS'whois.notsofamousnames.com'
p3457
g1
((lp3458
S'notsofamousnamescomllc'
p3459
atp3460
Rp3461
sS'whois.finduaname.com'
p3462
g1
((lp3463
S'finduanamecomllc'
p3464
atp3465
Rp3466
sS'whois.dotology.com'
p3467
g1
((lp3468
S'dotholdinginc'
p3469
atp3470
Rp3471
sS'whois.nuxit.com'
p3472
g1
((lp3473
S'nuxit'
p3474
atp3475
Rp3476
sS'whois.bullrundomains.com'
p3477
g1
((lp3478
S'bullrundomainscomllc'
p3479
atp3480
Rp3481
sS'whois.101domain.com'
p3482
g1
((lp3483
S'101domaininc'
p3484
aS'101domaingrsltd'
p3485
atp3486
Rp3487
sS'whois.vertexnames.com'
p3488
g1
((lp3489
S'vertexnamescominc'
p3490
atp3491
Rp3492
sS'whois.easydns.com'
p3493
g1
((lp3494
S'easydnstechnologiesinc'
p3495
atp3496
Rp3497
sS'whois.625domains.com'
p3498
g1
((lp3499
S'enom625inc'
p3500
aS'625domainsnetworkincdbamy3com'
p3501
atp3502
Rp3503
sS'whois.domainsuccessllc.com'
p3504
g1
((lp3505
S'domainsuccessllc'
p3506
atp3507
Rp3508
sS'whois.extendnames.com'
p3509
g1
((lp3510
S'extendnamesinc'
p3511
atp3512
Rp3513
sS'whois.star-domain.jp'
p3514
g1
((lp3515
S'netowlinc'
p3516
atp3517
Rp3518
sS'whois.enom654.com'
p3519
g1
((lp3520
S'enom654inc'
p3521
atp3522
Rp3523
sS'whois.webair.com'
p3524
g1
((lp3525
S'webairinternetdevelopmentinc'
p3526
aS'webairinternetdevelopment'
p3527
atp3528
Rp3529
sS'whois.argotech.us'
p3530
g1
((lp3531
S'name104inc'
p3532
atp3533
Rp3534
sS'whois.gzidc.com'
p3535
g1
((lp3536
S'guangdongjinwanbangtechnologyinvestmentcoltd'
p3537
atp3538
Rp3539
sS'whois.domainhysteria.com'
p3540
g1
((lp3541
S'domainhysteriacomllc'
p3542
atp3543
Rp3544
sS'whois.easyspace.com'
p3545
g1
((lp3546
S'easyspaceltd'
p3547
atp3548
Rp3549
sS'whois.dropcatchlandingspotllc.com'
p3550
g1
((lp3551
S'dropcatchlandingspotllc'
p3552
atp3553
Rp3554
sS'whois.bigdipperdomains.com'
p3555
g1
((lp3556
S'bigdipperdomainsllc'
p3557
atp3558
Rp3559
sS'whois.namefinger.com'
p3560
g1
((lp3561
S'namefingercomllc'
p3562
atp3563
Rp3564
sS'whois.suempresa.com'
p3565
g1
((lp3566
S'wingunetworkssadecv'
p3567
aS'interplanetsadecv'
p3568
atp3569
Rp3570
sS'whois.enom467.com'
p3571
g1
((lp3572
S'enom467incorporated'
p3573
atp3574
Rp3575
sS'whois.namescout.com'
p3576
g1
((lp3577
S'namescoutcorp'
p3578
aS'namescoutcom'
p3579
atp3580
Rp3581
sS'whois.evonames.com'
p3582
g1
((lp3583
S'evoplusltd'
p3584
atp3585
Rp3586
sS'whois.enom435.com'
p3587
g1
((lp3588
S'enom435incorporated'
p3589
aS'namepalcom8001inc'
p3590
atp3591
Rp3592
sS'whois.name.cc'
p3593
g1
((lp3594
S'nameccinc'
p3595
aS'namepalcom8020'
p3596
atp3597
Rp3598
sS'whois.freedropzonellc.com'
p3599
g1
((lp3600
S'freedropzonellc'
p3601
atp3602
Rp3603
sS'whois.tradeindia.com'
p3604
g1
((lp3605
S'tradeindiainc'
p3606
aS'infocomnetworkltd'
p3607
atp3608
Rp3609
sS'whois.mainreg.com'
p3610
g1
((lp3611
S'mainreginc'
p3612
atp3613
Rp3614
sS'whois.tucows.com'
p3615
g1
((lp3616
S'tucowsdomainsinc'
p3617
aS'tucowsinc'
p3618
atp3619
Rp3620
sS'whois.do-reg.jp'
p3621
g1
((lp3622
S'firstserverinc'
p3623
atp3624
Rp3625
sS'whois.dropcatchauctionllc.com'
p3626
g1
((lp3627
S'dropcatchauctionllc'
p3628
atp3629
Rp3630
sS'whois.domainnamehighway.com'
p3631
g1
((lp3632
S'domainnamehighwayllc'
p3633
atp3634
Rp3635
sS'whois.enomworld.com'
p3636
g1
((lp3637
S'enomworldinc'
p3638
atp3639
Rp3640
sS'whois.libris.com'
p3641
g1
((lp3642
S'domregltd'
p3643
aS'domregltddbalibriscom'
p3644
atp3645
Rp3646
sS'whois.enom433.com'
p3647
g1
((lp3648
S'enom433incorporated'
p3649
atp3650
Rp3651
sS'whois.72dns.com'
p3652
g1
((lp3653
S'foshanyidongnetworkcoltd'
p3654
atp3655
Rp3656
sS'whois.domainnameroot.com'
p3657
g1
((lp3658
S'domainnamerootllc'
p3659
aS'registercom'
p3660
atp3661
Rp3662
sS'whois.treasuretrovedomainsllc.com'
p3663
g1
((lp3664
S'treasuretrovedomainsllc'
p3665
atp3666
Rp3667
sS'whois.domainsouffle.com'
p3668
g1
((lp3669
S'domainsoufflecomllc'
p3670
atp3671
Rp3672
sS'whois.privatedomains.biz'
p3673
g1
((lp3674
S'privatedomainsincorporated'
p3675
atp3676
Rp3677
sS'whois.netregistry.net'
p3678
g1
((lp3679
S'netregistryptyltd'
p3680
atp3681
Rp3682
sS'whois.totalregistrations.com'
p3683
g1
((lp3684
S'totalregistrations'
p3685
aS'totalwebsolutionslimitedtradingastotalregistrations'
p3686
atp3687
Rp3688
sS'whois.aerotek.com.tr'
p3689
g1
((lp3690
S'aerotekbilisimtaahutsanayiveticaretltdsti'
p3691
aS'aerotekbilisimsanayiveticaretas'
p3692
atp3693
Rp3694
sS'whois.ukraine.com.ua'
p3695
g1
((lp3696
S'hostingukrainellc'
p3697
atp3698
Rp3699
sS'whois.wildbunchdomains.com'
p3700
g1
((lp3701
S'registercom'
p3702
aS'wildbunchdomainsllc'
p3703
atp3704
Rp3705
sS'whois.host.uol.com.br'
p3706
g1
((lp3707
S'universoonlinesauol'
p3708
atp3709
Rp3710
sS'whois.alantron.com'
p3711
g1
((lp3712
S'alantronbilisimltdsti'
p3713
atp3714
Rp3715
sS'whois.namewinnerllc.com'
p3716
g1
((lp3717
S'namewinnerllc'
p3718
atp3719
Rp3720
sS'whois.domainbazaarllc.com'
p3721
g1
((lp3722
S'domainbazaarllc'
p3723
atp3724
Rp3725
sS'whois.secura-gmbh.de'
p3726
g1
((lp3727
S'securagmbh'
p3728
atp3729
Rp3730
sS'whois.domainsinthebag.com'
p3731
g1
((lp3732
S'domainsinthebagcomllc'
p3733
atp3734
Rp3735
sS'whois.canyongate.biz'
p3736
g1
((lp3737
S'name111inc'
p3738
atp3739
Rp3740
sS'whois.domainnameblvd.com'
p3741
g1
((lp3742
S'domainnameblvdinc'
p3743
atp3744
Rp3745
sS'whois.reg2c.com'
p3746
g1
((lp3747
S'reg2ccominc'
p3748
atp3749
Rp3750
sS'whois.namepanther.com'
p3751
g1
((lp3752
S'namepanthercomllc'
p3753
atp3754
Rp3755
sS'whois.antagus.de'
p3756
g1
((lp3757
S'vautronrechenzentrumag'
p3758
atp3759
Rp3760
sS'whois.netistrar.com'
p3761
g1
((lp3762
S'netistrarltd'
p3763
atp3764
Rp3765
sS'whois.soyouwantadomain.com'
p3766
g1
((lp3767
S'soyouwantadomaincomllc'
p3768
atp3769
Rp3770
sS'whois.enombre.com'
p3771
g1
((lp3772
S'enombrecorporation'
p3773
atp3774
Rp3775
sS'whois.tradestarter.com'
p3776
g1
((lp3777
S'tradestarterinc'
p3778
atp3779
Rp3780
sS'whois.ripcorddomains.com'
p3781
g1
((lp3782
S'ripcorddomainsllc'
p3783
aS'registercom'
p3784
atp3785
Rp3786
sS'whois.enom383.com'
p3787
g1
((lp3788
S'enom383incorporated'
p3789
atp3790
Rp3791
sS'whois.mailclub.net'
p3792
g1
((lp3793
S'safebrandssas'
p3794
atp3795
Rp3796
sS'whois.enom381.com'
p3797
g1
((lp3798
S'enom381incorporated'
p3799
atp3800
Rp3801
sS'whois.enom423.com'
p3802
g1
((lp3803
S'enom423incorporated'
p3804
atp3805
Rp3806
sS'whois.namecatchllc.com'
p3807
g1
((lp3808
S'namecatchllc'
p3809
atp3810
Rp3811
sS'whois.santiamdomains.com'
p3812
g1
((lp3813
S'santiamdomainscomllc'
p3814
atp3815
Rp3816
sS'whois.domaintoorder.com'
p3817
g1
((lp3818
S'domaintoorderllc'
p3819
aS'registercom'
p3820
atp3821
Rp3822
sS'whois.190.com'
p3823
g1
((lp3824
S'eimsshenzhenculturetechnologycoltd'
p3825
atp3826
Rp3827
sS'whois.namesbeyond.com'
p3828
g1
((lp3829
S'2030138ontarioincdbanamesbeyondcomanddbagoodluckdomaincom'
p3830
atp3831
Rp3832
sS'whois.liquidnetlimited.com'
p3833
g1
((lp3834
S'liquidnetltd'
p3835
atp3836
Rp3837
sS'whois.zigzagnames.com'
p3838
g1
((lp3839
S'zigzagnamescomllc'
p3840
atp3841
Rp3842
sS'whois.zonecasting.com'
p3843
g1
((lp3844
S'zonecastinginc'
p3845
atp3846
Rp3847
sS'whois.allearthdomains.com'
p3848
g1
((lp3849
S'allearthdomainscomllc'
p3850
atp3851
Rp3852
sS'whois.resellerid.com'
p3853
g1
((lp3854
S'ptardhglobalindonesia'
p3855
atp3856
Rp3857
sS'whois.eastnames.com'
p3858
g1
((lp3859
S'eastnamesinc'
p3860
atp3861
Rp3862
sS'whois.ininaf.com'
p3863
g1
((lp3864
S'registercom'
p3865
atp3866
Rp3867
sS'whois.kagoya.net'
p3868
g1
((lp3869
S'kagoyajapaninc'
p3870
atp3871
Rp3872
sS'whois.enom465.com'
p3873
g1
((lp3874
S'enom465incorporated'
p3875
atp3876
Rp3877
sS'whois.namejuice.com'
p3878
g1
((lp3879
S'brandongrayinternetservicesincdbanamejuicecom'
p3880
atp3881
Rp3882
sS'whois.nhanhoa.com'
p3883
g1
((lp3884
S'nhanhoasoftwarecompanyltd'
p3885
atp3886
Rp3887
sS'whois.finegraindomains.com'
p3888
g1
((lp3889
S'finegraindomainsllc'
p3890
aS'registercom'
p3891
atp3892
Rp3893
sS'whois.alohanic.com'
p3894
g1
((lp3895
S'name105inc'
p3896
atp3897
Rp3898
sS'whois.chipshotdomainsllc.com'
p3899
g1
((lp3900
S'chipshotdomainsllc'
p3901
atp3902
Rp3903
sS'whois.resellserv.com'
p3904
g1
((lp3905
S'resellerservicesinc'
p3906
aS'resellerservicesincdbaresellservcom'
p3907
atp3908
Rp3909
sS'whois.guangzhoudomains.com'
p3910
g1
((lp3911
S'guangzhoudomainsinc'
p3912
atp3913
Rp3914
sS'whois.domainnameshop.com'
p3915
g1
((lp3916
S'domeneshopasdbadomainnameshopcom'
p3917
aS'domeneshopas'
p3918
atp3919
Rp3920
sS'whois.ksdom.kr'
p3921
g1
((lp3922
S'koreaserverhostinginc'
p3923
atp3924
Rp3925
sS'whois.paknic.com'
p3926
g1
((lp3927
S'paknicprivatelimited'
p3928
atp3929
Rp3930
sS'whois.rallycrydomains.com'
p3931
g1
((lp3932
S'rallycrydomainsllc'
p3933
aS'registercom'
p3934
atp3935
Rp3936
sS'whois.beartrapdomains.com'
p3937
g1
((lp3938
S'beartrapdomainscomllc'
p3939
atp3940
Rp3941
sS'whois.kuwaitnet.net'
p3942
g1
((lp3943
S'kuwaitnetgeneraltradingco'
p3944
atp3945
Rp3946
sS'whois.domrobot.com'
p3947
g1
((lp3948
S'internetworxltdcokg'
p3949
aS'inwxgmbhcokg'
p3950
atp3951
Rp3952
sS'whois.enom411.com'
p3953
g1
((lp3954
S'enom411incorporated'
p3955
atp3956
Rp3957
sS'whois.cloudbreakdomains.com'
p3958
g1
((lp3959
S'registercom'
p3960
aS'cloudbreakdomainsllc'
p3961
atp3962
Rp3963
sS'whois.widerightdomainsllc.com'
p3964
g1
((lp3965
S'widerightdomainsllc'
p3966
atp3967
Rp3968
sS'whois.serverplan.com'
p3969
g1
((lp3970
S'serverplansrl'
p3971
atp3972
Rp3973
sS'whois.godaddy.com'
p3974
g1
((lp3975
S'godaddycomllc'
p3976
atp3977
Rp3978
sS'whois.hellodotnyc.com'
p3979
g1
((lp3980
S'hellointernetcorp'
p3981
atp3982
Rp3983
sS'whois.dotarai.com'
p3984
g1
((lp3985
S'dotaraicoltd'
p3986
atp3987
Rp3988
sS'whois.theregistrarcompany.com'
p3989
g1
((lp3990
S'theregistrarcompanybv'
p3991
atp3992
Rp3993
sS'whois.goserveyourdomain.com'
p3994
g1
((lp3995
S'goserveyourdomaincomllc'
p3996
atp3997
Rp3998
sS'whois.domainsofvalue.com'
p3999
g1
((lp4000
S'domainsofvaluecomllc'
p4001
atp4002
Rp4003
sS'whois.1hostgermany.com'
p4004
g1
((lp4005
S'1hostgermanyinc'
p4006
atp4007
Rp4008
sS'whois.r01.ru'
p4009
g1
((lp4010
S'cjscregistrarr01'
p4011
aS'jscregistrarr01'
p4012
atp4013
Rp4014
sS'whois.paintedponynames.com'
p4015
g1
((lp4016
S'paintedponynamesllc'
p4017
aS'registercom'
p4018
atp4019
Rp4020
sS'whois.yourdomaincasa.com'
p4021
g1
((lp4022
S'registercom'
p4023
aS'yourdomaincasallc'
p4024
atp4025
Rp4026
sS'whois.instantnames.com'
p4027
g1
((lp4028
S'instantnamesllc'
p4029
atp4030
Rp4031
sS'whois.demys.com'
p4032
g1
((lp4033
S'demyslimited'
p4034
atp4035
Rp4036
sS'whois.domaingoldzonellc.com'
p4037
g1
((lp4038
S'domaingoldzonellc'
p4039
atp4040
Rp4041
sS'whois.1hostkorea.com'
p4042
g1
((lp4043
S'1hostkoreainc'
p4044
atp4045
Rp4046
sS'whois.in2net.com'
p4047
g1
((lp4048
S'in2netnetworkinc'
p4049
atp4050
Rp4051
sS'whois.kh86.cn'
p4052
g1
((lp4053
S'beijinglanhaijiyetechnologycoltd'
p4054
atp4055
Rp4056
sS'whois.name.com'
p4057
g1
((lp4058
S'namecominc'
p4059
atp4060
Rp4061
sS'whois.namenelly.com'
p4062
g1
((lp4063
S'namenellycorporation'
p4064
atp4065
Rp4066
sS'whois.entertainmentnames.com'
p4067
g1
((lp4068
S'entertainmentnamesincorporated'
p4069
atp4070
Rp4071
sS'whois.domainernamesllc.com'
p4072
g1
((lp4073
S'domainernamesllc'
p4074
atp4075
Rp4076
sS'whois.udomainname.com'
p4077
g1
((lp4078
S'udomainnamecomllc'
p4079
atp4080
Rp4081
sS'whois.domainlocale.com'
p4082
g1
((lp4083
S'domainlocalellc'
p4084
aS'registercom'
p4085
atp4086
Rp4087
sS'whois.enomcorporate.com'
p4088
g1
((lp4089
S'enomcorporateinc'
p4090
atp4091
Rp4092
sS'whois.cyandomains.com'
p4093
g1
((lp4094
S'cyandomainsinc'
p4095
atp4096
Rp4097
sS'whois.baronofdomains.com'
p4098
g1
((lp4099
S'baronofdomainscomllc'
p4100
atp4101
Rp4102
sS'whois.namesinmotion.com'
p4103
g1
((lp4104
S'namesinmotioninc'
p4105
atp4106
Rp4107
sS'whois.microbreweddomains.com'
p4108
g1
((lp4109
S'microbreweddomainscomllc'
p4110
atp4111
Rp4112
sS'whois.theregistrarservice.com'
p4113
g1
((lp4114
S'theregistrarserviceinc'
p4115
atp4116
Rp4117
sS'whois.dotname.co.kr'
p4118
g1
((lp4119
S'dotnamekoreacorp'
p4120
atp4121
Rp4122
sS'whois.neen.it'
p4123
g1
((lp4124
S'neensrl'
p4125
atp4126
Rp4127
sS'whois.plisk.com'
p4128
g1
((lp4129
S'plisk'
p4130
aS'privatelabelinternetservicekioskincdbapliskcom'
p4131
atp4132
Rp4133
sS'whois.lexsynergy.com'
p4134
g1
((lp4135
S'lexsynergylimited'
p4136
atp4137
Rp4138
sS'whois.purenic.com'
p4139
g1
((lp4140
S'purenicjapaninc'
p4141
atp4142
Rp4143
sS'whois.dianmei.co'
p4144
g1
((lp4145
S'xiamendianmeinetworktechnologycoltd'
p4146
atp4147
Rp4148
sS'whois.register.com'
p4149
g1
((lp4150
S'registercominc'
p4151
atp4152
Rp4153
sS'whois.synergywholesale.com'
p4154
g1
((lp4155
S'synergywholesaleptyltd'
p4156
aS'synergywholesale'
p4157
atp4158
Rp4159
sS'whois.keyregistrar.com'
p4160
g1
((lp4161
S'keyregistrarinc'
p4162
atp4163
Rp4164
sS'whois.matbao.net'
p4165
g1
((lp4166
S'matbaotradingservicecompanylimiteddbamatbao'
p4167
aS'matbaocorporation'
p4168
atp4169
Rp4170
sS'whois.masterofmydomains.net'
p4171
g1
((lp4172
S'masterofmydomainsnetllc'
p4173
atp4174
Rp4175
sS'whois.domainit.com'
p4176
g1
((lp4177
S'domainitinc'
p4178
aS'domainit'
p4179
atp4180
Rp4181
sS'whois.mountaindomains.net'
p4182
g1
((lp4183
S'name120inc'
p4184
atp4185
Rp4186
sS'whois.veritasdomains.com'
p4187
g1
((lp4188
S'veritasdomainsllc'
p4189
atp4190
Rp4191
sS'whois.safenames.net'
p4192
g1
((lp4193
S'safenamesltd'
p4194
atp4195
Rp4196
sS'whois.mypreciousdomain.com'
p4197
g1
((lp4198
S'mypreciousdomaincomllc'
p4199
atp4200
Rp4201
sS'whois.register.it'
p4202
g1
((lp4203
S'registeritspa'
p4204
atp4205
Rp4206
sS'whois.straight8domains.com'
p4207
g1
((lp4208
S'registercom'
p4209
aS'straight8domainsllc'
p4210
atp4211
Rp4212
sS'whois.targeteddropcatchllc.com'
p4213
g1
((lp4214
S'targeteddropcatchllc'
p4215
atp4216
Rp4217
sS'whois.pipelinedomains.com'
p4218
g1
((lp4219
S'pipelinedomainsllc'
p4220
atp4221
Rp4222
sS'whois.namesexpressllc.com'
p4223
g1
((lp4224
S'namesexpressllc'
p4225
atp4226
Rp4227
sS'whois.soaringeagledomains.com'
p4228
g1
((lp4229
S'registercom'
p4230
aS'soaringeagledomainsllc'
p4231
atp4232
Rp4233
sS'whois.namesnapllc.com'
p4234
g1
((lp4235
S'namesnapllc'
p4236
atp4237
Rp4238
sS'whois.zincdomainnamesllc.com'
p4239
g1
((lp4240
S'zincdomainnamesllc'
p4241
atp4242
Rp4243
sS'whois.enommx.com'
p4244
g1
((lp4245
S'enommxinc'
p4246
atp4247
Rp4248
sS'whois.netart-registrar.com'
p4249
g1
((lp4250
S'netartspzoo'
p4251
atp4252
Rp4253
sS'whois.kheweul.org'
p4254
g1
((lp4255
S'kheweulcomsa'
p4256
atp4257
Rp4258
sS'whois.freshbreweddomains.com'
p4259
g1
((lp4260
S'freshbreweddomainscomllc'
p4261
atp4262
Rp4263
sS'whois.frontstreetdomains.com'
p4264
g1
((lp4265
S'frontstreetdomainscomllc'
p4266
atp4267
Rp4268
sS'whois.55hl.com'
p4269
g1
((lp4270
S'jiangsubangningsciencetechnologycoltd'
p4271
atp4272
Rp4273
sS'whois.inames.co.kr'
p4274
g1
((lp4275
S'inamescoltd'
p4276
atp4277
Rp4278
sS'whois.ovh.com'
p4279
g1
((lp4280
S'ovh'
p4281
aS'ovhsas'
p4282
atp4283
Rp4284
sS'whois.domaintimemachine.com'
p4285
g1
((lp4286
S'domaintimemachinecomllc'
p4287
atp4288
Rp4289
sS'whois.allglobalnames.com'
p4290
g1
((lp4291
S'allglobalnamessadbacyberegistrocom'
p4292
atp4293
Rp4294
sS'whois.atlanticfriendnames.com'
p4295
g1
((lp4296
S'atlanticfriendnamescomllc'
p4297
atp4298
Rp4299
sS'whois.winnamesllc.com'
p4300
g1
((lp4301
S'winnamesllc'
p4302
atp4303
Rp4304
sS'whois.todaynic.com'
p4305
g1
((lp4306
S'todayniccominc'
p4307
atp4308
Rp4309
sS'whois.prodomaines.com'
p4310
g1
((lp4311
S'bdlsystemessasdbaprodomaines'
p4312
aS'bdlsystmessasdbaprodomaines'
p4313
atp4314
Rp4315
sS'whois.gesloten.cw'
p4316
g1
((lp4317
S'geslotendomainnv'
p4318
atp4319
Rp4320
sS'whois.alethiadomains.com'
p4321
g1
((lp4322
S'alethiadomainsllc'
p4323
aS'registercom'
p4324
atp4325
Rp4326
sS'whois.sawbuck.com'
p4327
g1
((lp4328
S'automatticinc'
p4329
atp4330
Rp4331
sS'whois.domains.co.za'
p4332
g1
((lp4333
S'diamatrixcc'
p4334
atp4335
Rp4336
sS'whois.interlakenames.com'
p4337
g1
((lp4338
S'interlakenamescomllc'
p4339
atp4340
Rp4341
sS'whois.pheenix.com'
p4342
g1
((lp4343
S'pheenix56llc'
p4344
aS'williamwallacellc'
p4345
aS'pheenix87llc'
p4346
aS'nimzo95llc'
p4347
aS'threadwisecominc'
p4348
aS'joanofarcllc'
p4349
aS'mahatmagandhillc'
p4350
aS'pheenix37llc'
p4351
aS'plato888llc'
p4352
aS'pheenix6llc'
p4353
aS'pheenix78llc'
p4354
aS'erwinrommelllc'
p4355
aS'wildbillhickokllc'
p4356
aS'hruntingllc'
p4357
aS'pheenix68llc'
p4358
aS'pheenix73llc'
p4359
aS'dwightdeisenhowerllc'
p4360
aS'pheenix80llc'
p4361
aS'georgespattonllc'
p4362
aS'pheenix26llc'
p4363
aS'intersolvedwacominc'
p4364
aS'scipioafricanusllc'
p4365
aS'robertelee888llc'
p4366
aS'pheenix72llc'
p4367
aS'yenkosllc'
p4368
aS'pheenix24llc'
p4369
aS'pheenix50llc'
p4370
aS'pheenix46llc'
p4371
aS'intersolvedflcominc'
p4372
aS'pheenix71llc'
p4373
aS'isorokuyamamotollc'
p4374
aS'pheenix1llc'
p4375
aS'pheenix45llc'
p4376
aS'omni888llc'
p4377
aS'latizonellc'
p4378
aS'hannibalbarcallc'
p4379
aS'pheenix14llc'
p4380
aS'pheenix83llc'
p4381
aS'pheenix95llc'
p4382
aS'pheenix27llc'
p4383
aS'stormbringerllc'
p4384
aS'pheenix34llc'
p4385
aS'aristotle888llc'
p4386
aS'radudamianllc'
p4387
aS'williamtheconquerorllc'
p4388
aS'pheenix85llc'
p4389
aS'pheenix65llc'
p4390
aS'pheenix16llc'
p4391
aS'pheenix8llc'
p4392
aS'pheenix43llc'
p4393
aS'thomasedisonllc'
p4394
aS'pheenix55llc'
p4395
aS'richardthelionheart888llc'
p4396
aS'pheenix38llc'
p4397
aS'camelot64llc'
p4398
aS'pheenix69llc'
p4399
aS'pheenix91llc'
p4400
aS'pheenixinc'
p4401
aS'pheenix11llc'
p4402
aS'alexanderthegreatllc'
p4403
aS'pheenix22llc'
p4404
aS'spartacusllc'
p4405
aS'poseidon888llc'
p4406
aS'leonardodavincillc'
p4407
aS'pheenix29llc'
p4408
aS'pheenix82llc'
p4409
aS'maximusllc'
p4410
aS'pheenix33llc'
p4411
aS'pheenix89llc'
p4412
aS'pheenix49llc'
p4413
aS'karlvonclausewitzllc'
p4414
aS'nimzo70llc'
p4415
aS'pheenix20llc'
p4416
aS'pheenix44llc'
p4417
aS'napoleonbonapartellc'
p4418
aS'pheenix90llc'
p4419
aS'pheenix48llc'
p4420
aS'billythekidllc'
p4421
aS'pheenix63llc'
p4422
aS'pheenix54llc'
p4423
aS'georgewashington888llc'
p4424
aS'pheenix23llc'
p4425
aS'zulfigarllc'
p4426
aS'confuciusllc'
p4427
aS'excaliburllc'
p4428
aS'pheenix62llc'
p4429
aS'titus888llc'
p4430
aS'vladtheimpalerllc'
p4431
aS'greendestinyllc'
p4432
aS'pheenix4llc'
p4433
aS'pheenix12llc'
p4434
aS'heavenswillllc'
p4435
aS'hercules888llc'
p4436
aS'threadwalkercominc'
p4437
aS'ulyssessgrantllc'
p4438
aS'pheenix100llc'
p4439
aS'intersolvedhicominc'
p4440
aS'pheenix60llc'
p4441
aS'pheenix25llc'
p4442
aS'pheenix19llc'
p4443
aS'pheenix88llc'
p4444
aS'pheenix67llc'
p4445
aS'ignitelainc'
p4446
aS'mailinhllc'
p4447
aS'pheenix47llc'
p4448
aS'leonidasllc'
p4449
aS'pheenix3llc'
p4450
aS'charlesdarwinllc'
p4451
aS'sirlancelotdulacllc'
p4452
aS'gonametncominc'
p4453
aS'arthurpendragonllc'
p4454
aS'apollo888llc'
p4455
aS'pheenix15llc'
p4456
aS'isaacnewtonllc'
p4457
aS'pheenix96llc'
p4458
aS'pheenix35llc'
p4459
aS'charlemagne888llc'
p4460
aS'joyeusellc'
p4461
aS'zeus888llc'
p4462
aS'pheenix93llc'
p4463
aS'constantinethegreatllc'
p4464
aS'abrahamlincolnllc'
p4465
aS'gonamehicominc'
p4466
aS'intersolvedtxcominc'
p4467
aS'tantranllc'
p4468
aS'pheenix51llc'
p4469
aS'pheenix58llc'
p4470
aS'pheenix28llc'
p4471
aS'domainsnapllc'
p4472
aS'ares888llc'
p4473
aS'peterthegreatllc'
p4474
aS'winstonchurchillllc'
p4475
aS'pheenix36llc'
p4476
aS'gonamewacominc'
p4477
aS'pheenix64llc'
p4478
aS'pheenix79llc'
p4479
aS'honjomasamunellc'
p4480
aS'juliuscaesarllc'
p4481
aS'cyrusthegreatllc'
p4482
aS'perseus888llc'
p4483
aS'suntzu888llc'
p4484
aS'pheenix66llc'
p4485
aS'jamesmadisonllc'
p4486
aS'pheenix17llc'
p4487
aS'pheenix74llc'
p4488
aS'pheenix21llc'
p4489
aS'vonguyengiapllc'
p4490
aS'pheenix42llc'
p4491
aS'pheenix75llc'
p4492
aS'gonameflcominc'
p4493
aS'pheenix92llc'
p4494
aS'douglasmacarthurllc'
p4495
aS'odysseus888llc'
p4496
aS'pheenix52llc'
p4497
aS'pheenix86llc'
p4498
aS'galileogalileillc'
p4499
aS'pheenix99llc'
p4500
aS'pheenix7llc'
p4501
aS'annamllc'
p4502
aS'thomasjeffersonllc'
p4503
aS'pheenix13llc'
p4504
aS'pheenix98llc'
p4505
aS'pheenix9llc'
p4506
aS'gonametxcominc'
p4507
aS'intersolvedtncominc'
p4508
aS'pheenix77llc'
p4509
aS'pheenix84llc'
p4510
aS'leifericsonllc'
p4511
aS'dalailamallc'
p4512
aS'pheenix18llc'
p4513
aS'pheenix94llc'
p4514
aS'genghiskhanllc'
p4515
aS'pheenix32llc'
p4516
aS'pheenix40llc'
p4517
aS'pheenix57llc'
p4518
aS'pheenix81llc'
p4519
aS'attilathehunllc'
p4520
aS'pheenix41llc'
p4521
aS'pheenix10llc'
p4522
aS'threadwatchcominc'
p4523
aS'pheenix76llc'
p4524
aS'pheenix31llc'
p4525
aS'nametrancellc'
p4526
aS'pheenix39llc'
p4527
aS'theseus888llc'
p4528
aS'pheenix2llc'
p4529
aS'pheenix70llc'
p4530
aS'ulfberhtllc'
p4531
aS'erictheredllc'
p4532
aS'buddhallc'
p4533
aS'pheenix30llc'
p4534
aS'benjaminfranklin888llc'
p4535
aS'achilles888llc'
p4536
aS'ramsesiillc'
p4537
aS'pheenix5llc'
p4538
atp4539
Rp4540
sS'whois.domainmonkeys.com'
p4541
g1
((lp4542
S'domainmonkeysllc'
p4543
atp4544
Rp4545
sS'whois.godomaingo.com'
p4546
g1
((lp4547
S'godomaingocomllc'
p4548
atp4549
Rp4550
sS'whois.skykomishdomains.com'
p4551
g1
((lp4552
S'skykomishdomainscomllc'
p4553
atp4554
Rp4555
sS'whois.riptidedomains.com'
p4556
g1
((lp4557
S'registercom'
p4558
aS'riptidedomainsllc'
p4559
atp4560
Rp4561
sS'whois.neudomain.com'
p4562
g1
((lp4563
S'neudomainllc'
p4564
atp4565
Rp4566
sS'grs-whois.hichina.com'
p4567
g1
((lp4568
S'hichinazhichengtechnologyltd'
p4569
atp4570
Rp4571
sS'whois.scip.es'
p4572
g1
((lp4573
S'solucionescorporativasipsl'
p4574
aS'dondominioscip'
p4575
atp4576
Rp4577
sS'whois.registermatrix.com'
p4578
g1
((lp4579
S'mediaeliteholdingslimited'
p4580
atp4581
Rp4582
sS'whois.regtons.com'
p4583
g1
((lp4584
S'gransysrodbasubregcz'
p4585
atp4586
Rp4587
sS'whois.pocketdomain.com'
p4588
g1
((lp4589
S'pocketdomaincominc'
p4590
atp4591
Rp4592
sS'whois.nameisp.com'
p4593
g1
((lp4594
S'abnameisp'
p4595
atp4596
Rp4597
sS'whois.domaincapitan.com'
p4598
g1
((lp4599
S'domaincapitancomllc'
p4600
atp4601
Rp4602
sS'whois.webtechnames.com'
p4603
g1
((lp4604
S'name106inc'
p4605
atp4606
Rp4607
sS'whois.domaindiscover.com'
p4608
g1
((lp4609
S'tierranetincdbadomaindiscover'
p4610
atp4611
Rp4612
sS'whois.haveaname.com'
p4613
g1
((lp4614
S'haveanamellc'
p4615
atp4616
Rp4617
sS'whois.enom451.com'
p4618
g1
((lp4619
S'enom451incorporated'
p4620
atp4621
Rp4622
sS'whois.atomicdomainnames.com'
p4623
g1
((lp4624
S'atomicdomainnamescomllc'
p4625
atp4626
Rp4627
sS'whois.arcticnames.com'
p4628
g1
((lp4629
S'arcticnamesinc'
p4630
atp4631
Rp4632
sS'whois.enomtoo.com'
p4633
g1
((lp4634
S'enomtooinc'
p4635
atp4636
Rp4637
sS'whois.domainstopoverllc.com'
p4638
g1
((lp4639
S'domainstopoverllc'
p4640
atp4641
Rp4642
sS'whois.domainclub.com'
p4643
g1
((lp4644
S'domainclubcomllc'
p4645
atp4646
Rp4647
sS'whois.enoma1.com'
p4648
g1
((lp4649
S'enoma1inc'
p4650
atp4651
Rp4652
sS'whois.domainarmada.com'
p4653
g1
((lp4654
S'domainarmadacomllc'
p4655
atp4656
Rp4657
sS'whois.oldetymedomains.com'
p4658
g1
((lp4659
S'oldtymedomainsllc'
p4660
atp4661
Rp4662
sS'whois.enomnz.com'
p4663
g1
((lp4664
S'enomnzinc'
p4665
atp4666
Rp4667
sS'whois.cps-datensysteme.de'
p4668
g1
((lp4669
S'cpsdatensystemegmbh'
p4670
atp4671
Rp4672
sS'whois.domainsprouts.com'
p4673
g1
((lp4674
S'domainsproutscomllc'
p4675
atp4676
Rp4677
sS'whois.kqw.com'
p4678
g1
((lp4679
S'kqwinc'
p4680
atp4681
Rp4682
sS'whois.namesnapperllc.com'
p4683
g1
((lp4684
S'namesnapperllc'
p4685
atp4686
Rp4687
sS'whois.namefull.com'
p4688
g1
((lp4689
S'nhntechoruscorp'
p4690
atp4691
Rp4692
sS'whois.ownregistrar.com'
p4693
g1
((lp4694
S'trunkoztechnologiespvtltddbaownregistrarcom'
p4695
atp4696
Rp4697
sS'whois.dyndns.com'
p4698
g1
((lp4699
S'dynamicnetworkservicesinc'
p4700
atp4701
Rp4702
sS'whois.net-chinese.com.tw'
p4703
g1
((lp4704
S'netchinesecoltd'
p4705
atp4706
Rp4707
sS'whois.hosteur.com'
p4708
g1
((lp4709
S'hosteursarl'
p4710
atp4711
Rp4712
sS'whois.nic.ae'
p4713
g1
((lp4714
S'emiratestelecommunicationscorporationetisalat'
p4715
atp4716
Rp4717
sS'whois.enomsky.com'
p4718
g1
((lp4719
S'enomskyinc'
p4720
atp4721
Rp4722
sS'whois.yellowstart.com'
p4723
g1
((lp4724
S'yellowstartinc'
p4725
atp4726
Rp4727
sS'whois.hostnameservices.net'
p4728
g1
((lp4729
S'name117inc'
p4730
atp4731
Rp4732
sS'whois.oray.com'
p4733
g1
((lp4734
S'shanghaibestorayinformationstcoltd'
p4735
atp4736
Rp4737
sS'whois.ilovewww.com'
p4738
g1
((lp4739
S'shinjirumscsdnbhd'
p4740
atp4741
Rp4742
sS'whois.postaldomains.com'
p4743
g1
((lp4744
S'postaldomainsincorporated'
p4745
atp4746
Rp4747
sS'whois.nerdnames.com'
p4748
g1
((lp4749
S'nerdnamescorporation'
p4750
atp4751
Rp4752
sS'whois.atlanticdomainsllc.com'
p4753
g1
((lp4754
S'atlanticdomainsllc'
p4755
atp4756
Rp4757
sS'whois.http.net'
p4758
g1
((lp4759
S'httpnetinternetgmbh'
p4760
atp4761
Rp4762
sS'whois.paycenter.com.cn'
p4763
g1
((lp4764
S'xinnettechnologycorporation'
p4765
atp4766
Rp4767
sS'whois.enom437.com'
p4768
g1
((lp4769
S'enom437incorporated'
p4770
atp4771
Rp4772
sS'whois.net4domains.com'
p4773
g1
((lp4774
S'net4indialimited'
p4775
atp4776
Rp4777
sS'whois.tigersharkdomains.com'
p4778
g1
((lp4779
S'tigersharkdomainsllc'
p4780
atp4781
Rp4782
sS'whois.enomau.com'
p4783
g1
((lp4784
S'enomauinc'
p4785
aS'enomeuinc'
p4786
atp4787
Rp4788
sS'whois.inlanddomainsllc.com'
p4789
g1
((lp4790
S'inlanddomainsllc'
p4791
atp4792
Rp4793
sS'whois.coolbreezedomains.com'
p4794
g1
((lp4795
S'coolbreezedomainsllc'
p4796
aS'registercom'
p4797
atp4798
Rp4799
sS'whois.udamain.com'
p4800
g1
((lp4801
S'udamaincomllc'
p4802
atp4803
Rp4804
sS'whois.enom1036.com'
p4805
g1
((lp4806
S'enom1036inc'
p4807
atp4808
Rp4809
sS'whois.desertsanddomains.com'
p4810
g1
((lp4811
S'registercom'
p4812
aS'desertsanddomainsllc'
p4813
atp4814
Rp4815
sS'whois.domainpickupllc.com'
p4816
g1
((lp4817
S'domainpickupllc'
p4818
atp4819
Rp4820
sS'whois.wildwestdomains.com'
p4821
g1
((lp4822
S'wildwestdomainsllc'
p4823
atp4824
Rp4825
sS'whois.domainprocessor.com'
p4826
g1
((lp4827
S'funpeasmediaventuresllcdbadomainprocessorcom'
p4828
aS'wwwdomainprocessorcom'
p4829
atp4830
Rp4831
sS'whois.gooddomainregistry.com'
p4832
g1
((lp4833
S'gooddomainregistrypvtltd'
p4834
aS'gooddomainregistrycom'
p4835
atp4836
Rp4837
sS'whois.hawthornedomains.com'
p4838
g1
((lp4839
S'hawthornedomainscomllc'
p4840
atp4841
Rp4842
sS'whois.webnames.ru'
p4843
g1
((lp4844
S'regtimeltd'
p4845
atp4846
Rp4847
sS'whois.thedomainsllc.com'
p4848
g1
((lp4849
S'thedomainsllc'
p4850
atp4851
Rp4852
sS'whois.cdmon.com'
p4853
g1
((lp4854
S'10dencehispahardsl'
p4855
atp4856
Rp4857
sS'whois.namebright.com'
p4858
g1
((lp4859
S'dropcatchcom434llc'
p4860
aS'dropcatchcom1035llc'
p4861
aS'dropcatchcom711llc'
p4862
aS'dropcatchcom609llc'
p4863
aS'dropcatchcom530llc'
p4864
aS'dropcatchcom896llc'
p4865
aS'dropcatchcom465llc'
p4866
aS'dropcatchcom392llc'
p4867
aS'dropcatchcom556llc'
p4868
aS'dropcatchcom919llc'
p4869
aS'dropcatchcom838llc'
p4870
aS'dropcatchcom523llc'
p4871
aS'domaindelightsllc'
p4872
aS'nameforwardllc'
p4873
aS'dropcatchcom510llc'
p4874
aS'dropcatchcom621llc'
p4875
aS'dropcatchcom825llc'
p4876
aS'dropcatchcom1033llc'
p4877
aS'dropcatchcom1358llc'
p4878
aS'dropcatchcom938llc'
p4879
aS'dropcatchcom860llc'
p4880
aS'dropcatchcom916llc'
p4881
aS'dropcatchcom443llc'
p4882
aS'dropcatchcom427llc'
p4883
aS'dropcatchcom414llc'
p4884
aS'dropcatchcom1040llc'
p4885
aS'dropcatchcom893llc'
p4886
aS'nametellcomllc'
p4887
aS'dropcatchcom634llc'
p4888
aS'dropcatchcom758llc'
p4889
aS'reclaimdomainsllc'
p4890
aS'dropcatchcom1005llc'
p4891
aS'dropcatchcom1230llc'
p4892
aS'dropcatchcom796llc'
p4893
aS'dropcatchcom1114llc'
p4894
aS'dropcatchcom723llc'
p4895
aS'dropcatchcom944llc'
p4896
aS'dropcatchcom784llc'
p4897
aS'dropcatchcom540llc'
p4898
aS'dropcatchcom875llc'
p4899
aS'dropcatchcom850llc'
p4900
aS'dropcatchcom424llc'
p4901
aS'dropcatchcom582llc'
p4902
aS'noticeddomainsllc'
p4903
aS'dropcatchcom774llc'
p4904
aS'dropcatchcom469llc'
p4905
aS'dropcatchcom819llc'
p4906
aS'dropcatchcom409llc'
p4907
aS'dropcatchcom904llc'
p4908
aS'dropcatchcom853llc'
p4909
aS'dropcatchcom511llc'
p4910
aS'dropcatchcom889llc'
p4911
aS'dropcatchcom536llc'
p4912
aS'dropcatchcom549llc'
p4913
aS'dropcatchcom430llc'
p4914
aS'dropcatchcom928llc'
p4915
aS'dropcatchcom751llc'
p4916
aS'dropcatchcom660llc'
p4917
aS'dropcatchcom972llc'
p4918
aS'dropcatchcom619llc'
p4919
aS'dropcatchcom550llc'
p4920
aS'dropcatchcom1391llc'
p4921
aS'dropcatchcom374llc'
p4922
aS'dropcatchcom1354llc'
p4923
aS'dropcatchcom468llc'
p4924
aS'dropcatchcom718llc'
p4925
aS'dropcatchcom368llc'
p4926
aS'dropcatchcom909llc'
p4927
aS'dropcatchcom748llc'
p4928
aS'dropcatchcom970llc'
p4929
aS'dropcatchcom1148llc'
p4930
aS'dropcatchcom558llc'
p4931
aS'dropcatchcom448llc'
p4932
aS'dropcatchcom386llc'
p4933
aS'dropcatchcom910llc'
p4934
aS'dropcatchcom1128llc'
p4935
aS'dropcatchcom707llc'
p4936
aS'dropcatchcom1014llc'
p4937
aS'dropcatchcom602llc'
p4938
aS'dropcatchcom895llc'
p4939
aS'dropcatchcom963llc'
p4940
aS'dropcatchcom931llc'
p4941
aS'dropcatchcom599llc'
p4942
aS'dropcatchcom399llc'
p4943
aS'dropcatchcom1003llc'
p4944
aS'dropcatchcom927llc'
p4945
aS'dropcatchcom489llc'
p4946
aS'dropcatchcom480llc'
p4947
aS'dropcatchcom410llc'
p4948
aS'dropcatchcom351llc'
p4949
aS'dropcatchcom997llc'
p4950
aS'dropcatchcom509llc'
p4951
aS'dropcatchcom630llc'
p4952
aS'dropcatchcom898llc'
p4953
aS'dropcatchcom1001llc'
p4954
aS'dropcatchcom1171llc'
p4955
aS'dropcatchcom578llc'
p4956
aS'dropcatchcom836llc'
p4957
aS'dropcatchcom391llc'
p4958
aS'dropcatchcom398llc'
p4959
aS'dropcatchcom651llc'
p4960
aS'dropcatchcom905llc'
p4961
aS'dropcatchcom515llc'
p4962
aS'dropcatchcom547llc'
p4963
aS'tradenamedllc'
p4964
aS'dropcatchcom372llc'
p4965
aS'dropcatchcom937llc'
p4966
aS'dropcatchcom727llc'
p4967
aS'dropcatchcom756llc'
p4968
aS'dropcatchcom670llc'
p4969
aS'dropcatchcom699llc'
p4970
aS'dropcatchcom759llc'
p4971
aS'dropcatchcom907llc'
p4972
aS'dropcatchcom380llc'
p4973
aS'dropcatchcom976llc'
p4974
aS'dropcatchcom754llc'
p4975
aS'dropcatchcom421llc'
p4976
aS'dropcatchcom953llc'
p4977
aS'dropcatchcom345llc'
p4978
aS'dropcatchcom709llc'
p4979
aS'dropcatchcom691llc'
p4980
aS'dropcatchcom604llc'
p4981
aS'dropcatchcom778llc'
p4982
aS'dropcatchcom581llc'
p4983
aS'dropcatchcom760llc'
p4984
aS'dropcatchcom554llc'
p4985
aS'dropcatchcom719llc'
p4986
aS'dropcatchcom347llc'
p4987
aS'dropcatchcom942llc'
p4988
aS'dropcatchcom486llc'
p4989
aS'dropcatchcom460llc'
p4990
aS'dropcatchcom728llc'
p4991
aS'glamdomainsllc'
p4992
aS'dropcatchcom367llc'
p4993
aS'dropcatchcom703llc'
p4994
aS'dropcatchcom397llc'
p4995
aS'aviddomainllc'
p4996
aS'visualnamesllc'
p4997
aS'dropcatchcom484llc'
p4998
aS'dropcatchcom458llc'
p4999
aS'dropcatchcom805llc'
p5000
aS'dropcatchcom903llc'
p5001
aS'dropcatchcom743llc'
p5002
aS'dropcatchcom611llc'
p5003
aS'dropcatchcom1106llc'
p5004
aS'dropcatchcom791llc'
p5005
aS'namelingcomllc'
p5006
aS'dropcatchcom1501llc'
p5007
aS'namesayllc'
p5008
aS'dropcatchcom777llc'
p5009
aS'dropcatchcom623llc'
p5010
aS'dropcatchcom417llc'
p5011
aS'dropcatchcom894llc'
p5012
aS'dropcatchcom912llc'
p5013
aS'dropcatchcom887llc'
p5014
aS'blockhostllc'
p5015
aS'dropcatchcom715llc'
p5016
aS'dropcatchcom353llc'
p5017
aS'dropcatchcom451llc'
p5018
aS'dropcatchcom992llc'
p5019
aS'dropcatchcom569llc'
p5020
aS'dropcatchcom475llc'
p5021
aS'dropcatchcom933llc'
p5022
aS'dotnamedllc'
p5023
aS'dropcatchcom957llc'
p5024
aS'dropcatchcom613llc'
p5025
aS'dropcatchcom553llc'
p5026
aS'dropcatchcom697llc'
p5027
aS'dropcatchcom525llc'
p5028
aS'dropcatchcom574llc'
p5029
aS'dropcatchcom587llc'
p5030
aS'dropcatchcom835llc'
p5031
aS'dropcatchcom425llc'
p5032
aS'dropcatchcom349llc'
p5033
aS'dropcatchcom742llc'
p5034
aS'dropcatchcom1008llc'
p5035
aS'dropcatchcom695llc'
p5036
aS'dropcatchcom527llc'
p5037
aS'dropcatchcom766llc'
p5038
aS'dropcatchcom712llc'
p5039
aS'dropcatchcom596llc'
p5040
aS'dropcatchcom384llc'
p5041
aS'dropcatchcom1023llc'
p5042
aS'dropcatchcom1153llc'
p5043
aS'dropcatchcom1271llc'
p5044
aS'dropcatchcom829llc'
p5045
aS'dropcatchcom705llc'
p5046
aS'dropcatchcom801llc'
p5047
aS'dropcatchcom659llc'
p5048
aS'dropcatchcom763llc'
p5049
aS'dropcatchcom566llc'
p5050
aS'dropcatchcom1400llc'
p5051
aS'dropcatchcom990llc'
p5052
aS'dropcatchcom733llc'
p5053
aS'dropcatchcom532llc'
p5054
aS'dropcatchcom544llc'
p5055
aS'dropcatchcom617llc'
p5056
aS'dropcatchcom873llc'
p5057
aS'dropcatchcom969llc'
p5058
aS'dropcatchcom357llc'
p5059
aS'dropcatchcom498llc'
p5060
aS'dropcatchcom411llc'
p5061
aS'dropcatchcom795llc'
p5062
aS'dropcatchcom1060llc'
p5063
aS'dropcatchcom606llc'
p5064
aS'dropcatchcom855llc'
p5065
aS'dropcatchcom637llc'
p5066
aS'dropcatchcom473llc'
p5067
aS'dropcatchcom781llc'
p5068
aS'domaincriticsllc'
p5069
aS'dropcatchcom1356llc'
p5070
aS'dropcatchcom627llc'
p5071
aS'dropcatchcom985llc'
p5072
aS'dropcatchcom736llc'
p5073
aS'dropcatchcom1117llc'
p5074
aS'dropcatchcom857llc'
p5075
aS'dropcatchcom572llc'
p5076
aS'dropcatchcom359llc'
p5077
aS'dropcatchcom787llc'
p5078
aS'dropcatchcom948llc'
p5079
aS'dropcatchcom833llc'
p5080
aS'dropcatchcom1365llc'
p5081
aS'dropcatchcom642llc'
p5082
aS'dropcatchcom995llc'
p5083
aS'dropcatchcom628llc'
p5084
aS'dropcatchcom548llc'
p5085
aS'dropcatchcom989llc'
p5086
aS'dropcatchcom521llc'
p5087
aS'dropcatchcom764llc'
p5088
aS'dropcatchcom479llc'
p5089
aS'dropcatchcom377llc'
p5090
aS'domaingetterllc'
p5091
aS'dropcatchcom1025llc'
p5092
aS'dropcatchcom822llc'
p5093
aS'dropcatchcom965llc'
p5094
aS'dropcatchcom665llc'
p5095
aS'dropcatchcom747llc'
p5096
aS'dropcatchcom884llc'
p5097
aS'dropcatchcom529llc'
p5098
aS'dropcatchcom534llc'
p5099
aS'dropcatchcom355llc'
p5100
aS'dropcatchcom542llc'
p5101
aS'dropcatchcom1027llc'
p5102
aS'dropcatchcom496llc'
p5103
aS'dropcatchcom967llc'
p5104
aS'dropcatchcom1254llc'
p5105
aS'dropcatchcom457llc'
p5106
aS'dropcatchcom780llc'
p5107
aS'dropcatchcom761llc'
p5108
aS'dropcatchcom376llc'
p5109
aS'dropcatchcom1174llc'
p5110
aS'dropcatchcom677llc'
p5111
aS'dropcatchcom1007llc'
p5112
aS'dropcatchcom923llc'
p5113
aS'dropcatchcom436llc'
p5114
aS'dropcatchcom360llc'
p5115
aS'dropcatchcom1045llc'
p5116
aS'dropcatchcom561llc'
p5117
aS'dropcatchcom920llc'
p5118
aS'dropcatchcom900llc'
p5119
aS'dropcatchcom818llc'
p5120
aS'dropcatchcom701llc'
p5121
aS'dropcatchcom631llc'
p5122
aS'zoomregistrarllc'
p5123
aS'dropcatchcom585llc'
p5124
aS'dropcatchcom1432llc'
p5125
aS'dropcatchcom1105llc'
p5126
aS'dropcatchcom1071llc'
p5127
aS'namebakellc'
p5128
aS'dropcatchcom730llc'
p5129
aS'dropcatchcom1172llc'
p5130
aS'dropcatchcom921llc'
p5131
aS'dropcatchcom851llc'
p5132
aS'dropcatchcom949llc'
p5133
aS'dropcatchcom633llc'
p5134
aS'dropcatchcom870llc'
p5135
aS'dropcatchcom720llc'
p5136
aS'dropcatchcom717llc'
p5137
aS'dropcatchcom752llc'
p5138
aS'domainextremellc'
p5139
aS'dropcatchcom373llc'
p5140
aS'dropcatchcom947llc'
p5141
aS'dropcatchcom477llc'
p5142
aS'dropcatchcom663llc'
p5143
aS'dropcatchcom807llc'
p5144
aS'dropcatchcom741llc'
p5145
aS'nameturnllc'
p5146
aS'dropcatchcom882llc'
p5147
aS'dropcatchcom1048llc'
p5148
aS'dropcatchcom999llc'
p5149
aS'dropcatchcom492llc'
p5150
aS'dropcatchcom1161llc'
p5151
aS'dropcatchcom1029llc'
p5152
aS'dropcatchcom646llc'
p5153
aS'dropcatchcom379llc'
p5154
aS'dropcatchcom961llc'
p5155
aS'dropcatchcom950llc'
p5156
aS'dropcatchcom668llc'
p5157
aS'dropcatchcom432llc'
p5158
aS'dropcatchcom863llc'
p5159
aS'dropcatchcom370llc'
p5160
aS'dropcatchcom679llc'
p5161
aS'dropcatchcom470llc'
p5162
aS'dropcatchcom925llc'
p5163
aS'dropcatchcom1296llc'
p5164
aS'dropcatchcom482llc'
p5165
aS'domainfalconllc'
p5166
aS'dropcatchcom1498llc'
p5167
aS'dropcatchcom1019llc'
p5168
aS'dropcatchcom614llc'
p5169
aS'dropcatchcom686llc'
p5170
aS'pronamedllc'
p5171
aS'dropcatchcom364llc'
p5172
aS'dropcatchcom831llc'
p5173
aS'dropcatchcom429llc'
p5174
aS'dropcatchcom773llc'
p5175
aS'dropcatchcom941llc'
p5176
aS'dropcatchcom503llc'
p5177
aS'dropcatchcom453llc'
p5178
aS'dropcatchcom955llc'
p5179
aS'dropcatchcom874llc'
p5180
aS'dropcatchcom404llc'
p5181
aS'echodomainllc'
p5182
aS'dropcatchcom579llc'
p5183
aS'dropcatchcom1004llc'
p5184
aS'dropcatchcom394llc'
p5185
aS'dropcatchcom869llc'
p5186
aS'dropcatchcom557llc'
p5187
aS'dropcatchcom512llc'
p5188
aS'dropcatchcom975llc'
p5189
aS'dropcatchcom946llc'
p5190
aS'dropcatchcom813llc'
p5191
aS'domainaheadllc'
p5192
aS'dropcatchcom1163llc'
p5193
aS'dropcatchcom648llc'
p5194
aS'domaincreekllc'
p5195
aS'dropcatchcom917llc'
p5196
aS'dropcatchcom522llc'
p5197
aS'dropcatchcom981llc'
p5198
aS'dropcatchcom693llc'
p5199
aS'dropcatchcom803llc'
p5200
aS'accentdomainsllc'
p5201
aS'dropcatchcom867llc'
p5202
aS'domaintactllc'
p5203
aS'dropcatchcom666llc'
p5204
aS'dropcatchcom463llc'
p5205
aS'dropcatchcom1017llc'
p5206
aS'dropcatchcom731llc'
p5207
aS'dropcatchcom650llc'
p5208
aS'dropcatchcom415llc'
p5209
aS'dropcatchcom562llc'
p5210
aS'dropcatchcom639llc'
p5211
aS'dropcatchcom724llc'
p5212
aS'dropcatchcom592llc'
p5213
aS'dropcatchcom388llc'
p5214
aS'dropcatchcom983llc'
p5215
aS'dropcatchcom688llc'
p5216
aS'dropcatchcom750llc'
p5217
aS'dropcatchcom775llc'
p5218
aS'dropcatchcom505llc'
p5219
aS'dropcatchcom828llc'
p5220
aS'dropcatchcom455llc'
p5221
aS'acquirednamesllc'
p5222
aS'dropcatchcom897llc'
p5223
aS'dropcatchcom1000llc'
p5224
aS'dropcatchcom590llc'
p5225
aS'dropcatchcom655llc'
p5226
aS'dropcatchcom551llc'
p5227
aS'dropcatchcom945llc'
p5228
aS'dropcatchcom375llc'
p5229
aS'dropcatchcom481llc'
p5230
aS'dropcatchcom514llc'
p5231
aS'dropcatchcom815llc'
p5232
aS'dropcatchcom929llc'
p5233
aS'dropcatchcom844llc'
p5234
aS'dropcatchcom978llc'
p5235
aS'dropcatchcom1140llc'
p5236
aS'dropcatchcom661llc'
p5237
aS'dropcatchcom516llc'
p5238
aS'dropcatchcom494llc'
p5239
aS'dropcatchcom918llc'
p5240
aS'dropcatchcom808llc'
p5241
aS'dropcatchcom603llc'
p5242
aS'dropcatchcom576llc'
p5243
aS'dropcatchcom892llc'
p5244
aS'dropcatchcom783llc'
p5245
aS'dropcatchcom1013llc'
p5246
aS'dropcatchcom413llc'
p5247
aS'dropcatchcom564llc'
p5248
aS'dropcatchcom519llc'
p5249
aS'dropcatchcom594llc'
p5250
aS'dropcatchcom962llc'
p5251
aS'dropcatchcom1021llc'
p5252
aS'dropcatchcom826llc'
p5253
aS'dropcatchcom793llc'
p5254
aS'dropcatchcom346llc'
p5255
aS'dropcatchcom708llc'
p5256
aS'dropcatchcom464llc'
p5257
aS'dropcatchcom924llc'
p5258
aS'dropcatchcom926llc'
p5259
aS'dropcatchcom872llc'
p5260
aS'dropcatchcom644llc'
p5261
aS'dropcatchcom1378llc'
p5262
aS'dropcatchcom393llc'
p5263
aS'dropcatchcom1043llc'
p5264
aS'dropcatchcom520llc'
p5265
aS'dropcatchcom653llc'
p5266
aS'dropcatchcom485llc'
p5267
aS'dropcatchcom964llc'
p5268
aS'dropcatchcom824llc'
p5269
aS'dropcatchcom531llc'
p5270
aS'dropcatchcom538llc'
p5271
aS'dropcatchcom713llc'
p5272
aS'dropcatchcom880llc'
p5273
aS'dropcatchcom1041llc'
p5274
aS'dropcatchcom706llc'
p5275
aS'dropcatchcom541llc'
p5276
aS'dropcatchcom771llc'
p5277
aS'litedomainsllc'
p5278
aS'dropcatchcom698llc'
p5279
aS'dropcatchcom635llc'
p5280
aS'dropcatchcom1326llc'
p5281
aS'dropcatchcom371llc'
p5282
aS'dropcatchcom640llc'
p5283
aS'dropcatchcom1030llc'
p5284
aS'dropcatchcom518llc'
p5285
aS'dropcatchcom605llc'
p5286
aS'dropcatchcom861llc'
p5287
aS'dropcatchcom734llc'
p5288
aS'dropcatchcom683llc'
p5289
aS'dropcatchcom555llc'
p5290
aS'dropcatchcom580llc'
p5291
aS'dropcatchcom589llc'
p5292
aS'dropcatchcom785llc'
p5293
aS'dropcatchcom958llc'
p5294
aS'dropcatchcom1143llc'
p5295
aS'dropcatchcom490llc'
p5296
aS'dropcatchcom973llc'
p5297
aS'dropcatchcom914llc'
p5298
aS'comfydomainsllc'
p5299
aS'dropcatchcom797llc'
p5300
aS'dropcatchcom994llc'
p5301
aS'dropcatchcom682llc'
p5302
aS'dropcatchcom820llc'
p5303
aS'dropcatchcom745llc'
p5304
aS'dropcatchcom694llc'
p5305
aS'dropcatchcom524llc'
p5306
aS'dropcatchcom1255llc'
p5307
aS'dropcatchcom966llc'
p5308
aS'dropcatchcom848llc'
p5309
aS'dropcatchcom902llc'
p5310
aS'dropcatchcom1006llc'
p5311
aS'dropcatchcom817llc'
p5312
aS'dropcatchcom610llc'
p5313
aS'dropcatchcom804llc'
p5314
aS'domainprimecomllc'
p5315
aS'dropcatchcom446llc'
p5316
aS'dropcatchcom439llc'
p5317
aS'dropcatchcom876llc'
p5318
aS'dropcatchcom456llc'
p5319
aS'dropcatchcom568llc'
p5320
aS'dropcatchcom1022llc'
p5321
aS'dropcatchcom915llc'
p5322
aS'dropcatchcom402llc'
p5323
aS'dropcatchcom474llc'
p5324
aS'dropcatchcom431llc'
p5325
aS'dropcatchcom960llc'
p5326
aS'dropcatchcom852llc'
p5327
aS'dropcatchcom598llc'
p5328
aS'dropcatchcom737llc'
p5329
aS'dropcatchcom879llc'
p5330
aS'dropcatchcom770llc'
p5331
aS'dropcatchcom687llc'
p5332
aS'dropcatchcom971llc'
p5333
aS'dropcatchcom586llc'
p5334
aS'dropcatchcom913llc'
p5335
aS'dropcatchcom1015llc'
p5336
aS'dropcatchcom500llc'
p5337
aS'dropcatchcom400llc'
p5338
aS'namesherellc'
p5339
aS'dropcatchcom710llc'
p5340
aS'dropcatchcom348llc'
p5341
aS'dropcatchcom834llc'
p5342
aS'dropcatchcom934llc'
p5343
aS'dropcatchcom1214llc'
p5344
aS'dropcatchcom390llc'
p5345
aS'dropcatchcom865llc'
p5346
aS'dropcatchcom600llc'
p5347
aS'dropcatchcom526llc'
p5348
aS'dropcatchcom408llc'
p5349
aS'dropcatchcom449llc'
p5350
aS'namestrategiesllc'
p5351
aS'dropcatchcom652llc'
p5352
aS'dropcatchcom684llc'
p5353
aS'dropcatchcom676llc'
p5354
aS'dropcatchcom383llc'
p5355
aS'dropcatchcom762llc'
p5356
aS'dropcatchcom467llc'
p5357
aS'dropcatchcom501llc'
p5358
aS'dropcatchcom977llc'
p5359
aS'dropcatchcom702llc'
p5360
aS'dropcatchcom789llc'
p5361
aS'dropcatchcom362llc'
p5362
aS'dropcatchcom571llc'
p5363
aS'dropcatchcom769llc'
p5364
aS'dropcatchcom616llc'
p5365
aS'dropcatchcom597llc'
p5366
aS'dropcatchcom440llc'
p5367
aS'dropcatchcom483llc'
p5368
aS'dropcatchcom690llc'
p5369
aS'presidentialdomainsllc'
p5370
aS'dropcatchcom802llc'
p5371
aS'dropcatchcom993llc'
p5372
aS'dropcatchcom546llc'
p5373
aS'dropcatchcom899llc'
p5374
aS'dropcatchcom649llc'
p5375
aS'dropcatchcom658llc'
p5376
aS'dropcatchcom1063llc'
p5377
aS'dropcatchcom1002llc'
p5378
aS'dropcatchcom1026llc'
p5379
aS'dropcatchcom726llc'
p5380
aS'domainladderllc'
p5381
aS'dropcatchcom673llc'
p5382
aS'dropcatchcom472llc'
p5383
aS'dropcatchcom800llc'
p5384
aS'dropcatchcom987llc'
p5385
aS'dropcatchcom746llc'
p5386
aS'dropcatchcom437llc'
p5387
aS'dropcatchcom906llc'
p5388
aS'dropcatchcom466llc'
p5389
aS'dropcatchcom1367llc'
p5390
aS'dropcatchcom890llc'
p5391
aS'dropcatchcom943llc'
p5392
aS'dropcatchcom1274llc'
p5393
aS'dropcatchcom504llc'
p5394
aS'dropcatchcom996llc'
p5395
aS'dropcatchcom832llc'
p5396
aS'dropcatchcom406llc'
p5397
aS'dropcatchcom607llc'
p5398
aS'dropcatchcom435llc'
p5399
aS'dropcatchcom779llc'
p5400
aS'dropcatchcom932llc'
p5401
aS'dropcatchcom842llc'
p5402
aS'dropcatchcom629llc'
p5403
aS'dropcatchcom620llc'
p5404
aS'dropcatchcom739llc'
p5405
aS'dropcatchcom396llc'
p5406
aS'dropcatchcom1038llc'
p5407
aS'dropcatchcom459llc'
p5408
aS'dropcatchcom1011llc'
p5409
aS'dropcatchcom908llc'
p5410
aS'dropcatchcom583llc'
p5411
aS'dropcatchcom461llc'
p5412
aS'dropcatchcom839llc'
p5413
aS'dropcatchcom366llc'
p5414
aS'dropcatchcom618llc'
p5415
aS'dropcatchcom840llc'
p5416
aS'dropcatchcom507llc'
p5417
aS'dropcatchcom798llc'
p5418
aS'dropcatchcom881llc'
p5419
aS'dropcatchcom988llc'
p5420
aS'dropcatchcom1166llc'
p5421
aS'dropcatchcom886llc'
p5422
aS'dropcatchcom823llc'
p5423
aS'dropcatchcom575llc'
p5424
aS'namesectorllc'
p5425
aS'dropcatchcom922llc'
p5426
aS'dropcatchcom497llc'
p5427
aS'dropcatchcom535llc'
p5428
aS'dropcatchcom984llc'
p5429
aS'dropcatchcom387llc'
p5430
aS'dropcatchcom487llc'
p5431
aS'dropcatchcom675llc'
p5432
aS'dropcatchcom669llc'
p5433
aS'dropcatchcom350llc'
p5434
aS'dropcatchcom416llc'
p5435
aS'dropcatchcom681llc'
p5436
aS'dropcatchcom471llc'
p5437
aS'dropcatchcom704llc'
p5438
aS'dropcatchcom643llc'
p5439
aS'dropcatchcom567llc'
p5440
aS'dropcatchcom612llc'
p5441
aS'dropcatchcom939llc'
p5442
aS'dropcatchcom570llc'
p5443
aS'dropcatchcom488llc'
p5444
aS'dropcatchcom508llc'
p5445
aS'dropcatchcom859llc'
p5446
aS'dropcatchcom584llc'
p5447
aS'dropcatchcom657llc'
p5448
aS'turncommerceincdbanamebrightcom'
p5449
aS'dropcatchcom968llc'
p5450
aS'dropcatchcom626llc'
p5451
aS'dropcatchcom980llc'
p5452
aS'dropcatchcom476llc'
p5453
aS'dropcatchcom1036llc'
p5454
aS'dropcatchcom506llc'
p5455
aS'dropcatchcom545llc'
p5456
aS'dropcatchcom755llc'
p5457
aS'dropcatchcom854llc'
p5458
aS'dropcatchcom837llc'
p5459
aS'dropcatchcom846llc'
p5460
aS'dropcatchcom625llc'
p5461
aS'dropcatchcom624llc'
p5462
aS'dropcatchcom1034llc'
p5463
aS'dropcatchcom1028llc'
p5464
aS'reclaimdomains'
p5465
aS'dropcatchcom799llc'
p5466
aS'dropcatchcom608llc'
p5467
aS'totallydomainllc'
p5468
aS'dropcatchcom559llc'
p5469
aS'namechildllc'
p5470
aS'dropcatchcom478llc'
p5471
aS'dropcatchcom1466llc'
p5472
aS'dropcatchcom1020llc'
p5473
aS'dropcatchcom768llc'
p5474
aS'dropcatchcom491llc'
p5475
aS'dropcatchcom862llc'
p5476
aS'dropcatchcom381llc'
p5477
aS'dropcatchcom735llc'
p5478
aS'dropcatchcom420llc'
p5479
aS'registrardirectllc'
p5480
aS'dropcatchcom419llc'
p5481
aS'dropcatchcom729llc'
p5482
aS'dropcatchcom877llc'
p5483
aS'dropcatchcom493llc'
p5484
aS'dropcatchcom502llc'
p5485
aS'dropcatchcom528llc'
p5486
aS'dropcatchcom389llc'
p5487
aS'dropcatchcom452llc'
p5488
aS'dropcatchcom794llc'
p5489
aS'dropcatchcom767llc'
p5490
aS'dropcatchcom654llc'
p5491
aS'dropcatchcom685llc'
p5492
aS'dropcatchcom856llc'
p5493
aS'dropcatchcom830llc'
p5494
aS'dropcatchcom445llc'
p5495
aS'dropcatchcom749llc'
p5496
aS'dropcatchcom776llc'
p5497
aS'dropcatchcom812llc'
p5498
aS'dropcatchcom952llc'
p5499
aS'namebrewllc'
p5500
aS'dropcatchcom543llc'
p5501
aS'dropcatchcom405llc'
p5502
aS'dropcatchcom1459llc'
p5503
aS'dropcatchcom700llc'
p5504
aS'worthydomainsllc'
p5505
aS'dropcatchcom1032llc'
p5506
aS'namejoltcomllc'
p5507
aS'dropcatchcom674llc'
p5508
aS'dropcatchcom369llc'
p5509
aS'dropcatchcom667llc'
p5510
aS'dropcatchcom885llc'
p5511
aS'dropcatchcom444llc'
p5512
aS'dropcatchcom786llc'
p5513
aS'dropcatchcom647llc'
p5514
aS'domainwardscomllc'
p5515
aS'dropcatchcom722llc'
p5516
aS'dropcatchcom517llc'
p5517
aS'dropcatchcom1442llc'
p5518
aS'dropcatchcom638llc'
p5519
aS'dropcatchcom738llc'
p5520
aS'dropcatchcom426llc'
p5521
aS'dropcatchcom744llc'
p5522
aS'dropcatchcom858llc'
p5523
aS'dropcatchcom864llc'
p5524
aS'dropcatchcom1009llc'
p5525
aS'dropcatchcom593llc'
p5526
aS'dropcatchcom1082llc'
p5527
aS'dropcatchcom1016llc'
p5528
aS'dropcatchcom1024llc'
p5529
aS'dropcatchcom716llc'
p5530
aS'whatisyourdomainllc'
p5531
aS'dropcatchcom454llc'
p5532
aS'dropcatchcom866llc'
p5533
aS'dropcatchcom911llc'
p5534
aS'dropcatchcom1248llc'
p5535
aS'dropcatchcom792llc'
p5536
aS'dropcatchcom810llc'
p5537
aS'dropcatchcom1044llc'
p5538
aS'dropcatchcom358llc'
p5539
aS'dropcatchcom806llc'
p5540
aS'dropcatchcom539llc'
p5541
aS'dropcatchcom1539llc'
p5542
aS'dropcatchcom441llc'
p5543
aS'dropcatchcom533llc'
p5544
aS'dropcatchcom385llc'
p5545
aS'dropcatchcom814llc'
p5546
aS'dropcatchcom790llc'
p5547
aS'dropcatchcom753llc'
p5548
aS'dropcatchcom1216llc'
p5549
aS'dropcatchcom954llc'
p5550
aS'dropcatchcom378llc'
p5551
aS'dropcatchcom433llc'
p5552
aS'thenamecollc'
p5553
aS'dropcatchcom1525llc'
p5554
aS'dropcatchcom883llc'
p5555
aS'dropcatchcom956llc'
p5556
aS'dropcatchcom636llc'
p5557
aS'dropcatchcom418llc'
p5558
aS'dropcatchcom442llc'
p5559
aS'dropcatchcom714llc'
p5560
aS'dropcatchcom499llc'
p5561
aS'dropcatchcom845llc'
p5562
aS'dropcatchcom1290llc'
p5563
aS'dropcatchcom936llc'
p5564
aS'dropcatchcom696llc'
p5565
aS'dropcatchcom974llc'
p5566
aS'dropcatchcom788llc'
p5567
aS'dropcatchcom428llc'
p5568
aS'dropcatchcom595llc'
p5569
aS'dropcatchcom809llc'
p5570
aS'domainlocalllc'
p5571
aS'dropcatchcom513llc'
p5572
aS'dropcatchcom1010llc'
p5573
aS'dropcatchcom765llc'
p5574
aS'insanenamesllc'
p5575
aS'dropcatchcom827llc'
p5576
aS'dropcatchcom407llc'
p5577
aS'dropcatchcom1439llc'
p5578
aS'dropcatchcom412llc'
p5579
aS'dropcatchcom888llc'
p5580
aS'domainhoodllc'
p5581
aS'dropcatchcom849llc'
p5582
aS'dropcatchcom740llc'
p5583
aS'dropcatchcom843llc'
p5584
aS'dropcatchcom868llc'
p5585
aS'dropcatchcom382llc'
p5586
aS'dropcatchcom1012llc'
p5587
aS'dropcatchcom588llc'
p5588
aS'dropcatchcom641llc'
p5589
aS'dropcatchcom462llc'
p5590
aS'dropcatchcom356llc'
p5591
aS'dropcatchcom365llc'
p5592
aS'dropcatchcom721llc'
p5593
aS'dropcatchcom664llc'
p5594
aS'domaincrazellc'
p5595
aS'dropcatchcom1541llc'
p5596
aS'dropcatchcom951llc'
p5597
aS'dropcatchcom671llc'
p5598
aS'dropcatchcom354llc'
p5599
aS'dropcatchcom982llc'
p5600
aS'dropcatchcom901llc'
p5601
aS'dropcatchcom450llc'
p5602
aS'dropcatchcom537llc'
p5603
aS'dropcatchcom991llc'
p5604
aS'dropcatchcom979llc'
p5605
aS'dropcatchcom563llc'
p5606
aS'dropcatchcom757llc'
p5607
aS'dropcatchcom1321llc'
p5608
aS'dropcatchcom632llc'
p5609
aS'dropcatchcom811llc'
p5610
aS'dropcatchcom395llc'
p5611
aS'dropcatchcom692llc'
p5612
aS'dropcatchcom891llc'
p5613
aS'dropcatchcom552llc'
p5614
aS'dropcatchcom560llc'
p5615
aS'dropcatchcom1031llc'
p5616
aS'dropcatchcom732llc'
p5617
aS'dropcatchcom622llc'
p5618
aS'dropcatchcom573llc'
p5619
aS'dropcatchcom403llc'
p5620
aS'dropcatchcom841llc'
p5621
aS'dropcatchcom821llc'
p5622
aS'dropcatchcom689llc'
p5623
aS'domainpickingllc'
p5624
aS'dropcatchcom656llc'
p5625
aS'dropcatchcom930llc'
p5626
aS'dropcatchcom1037llc'
p5627
aS'dropcatchcom680llc'
p5628
aS'dropcatchcom447llc'
p5629
aS'dropcatchcom935llc'
p5630
aS'dropcatchcom363llc'
p5631
aS'dropcatchcom591llc'
p5632
aS'dropcatchcom438llc'
p5633
aS'dropcatchcom959llc'
p5634
aS'dropcatchcom847llc'
p5635
aS'dropcatchcom662llc'
p5636
aS'dropcatchcom495llc'
p5637
aS'dropcatchcom672llc'
p5638
aS'dropcatchcom678llc'
p5639
aS'dropcatchcom352llc'
p5640
aS'dropcatchcom816llc'
p5641
aS'dropcatchcom361llc'
p5642
aS'blastdomainsllc'
p5643
aS'dropcatchcom423llc'
p5644
aS'dropcatchcom1039llc'
p5645
aS'dropcatchcom615llc'
p5646
aS'dropcatchcom1302llc'
p5647
aS'dropcatchcom878llc'
p5648
aS'dropcatchcom871llc'
p5649
aS'dropcatchcom565llc'
p5650
aS'dropcatchcom645llc'
p5651
aS'dropcatchcom1042llc'
p5652
aS'dropcatchcom401llc'
p5653
aS'dropcatchcom725llc'
p5654
aS'dropcatchcom577llc'
p5655
aS'dropcatchcom1436llc'
p5656
aS'dropcatchcom940llc'
p5657
aS'dropcatchcom1099llc'
p5658
aS'dropcatchcom1533llc'
p5659
aS'dropcatchcom998llc'
p5660
aS'dropcatchcom601llc'
p5661
aS'dropcatchcom782llc'
p5662
aS'dropcatchcom422llc'
p5663
aS'dropcatchcom1018llc'
p5664
aS'dropcatchcom986llc'
p5665
aS'dropcatchcom772llc'
p5666
atp5667
Rp5668
sS'whois.directnic.com'
p5669
g1
((lp5670
S'dncholdingsinc'
p5671
atp5672
Rp5673
sS'whois.enom391.com'
p5674
g1
((lp5675
S'enom391incorporated'
p5676
atp5677
Rp5678
sS'whois.dns-net.de'
p5679
g1
((lp5680
S'dnsnetinternetservicegmbh'
p5681
aS'dns'
p5682
atp5683
Rp5684
sS'whois.eztimesdomains.com'
p5685
g1
((lp5686
S'eztimesdomainsllc'
p5687
aS'registercom'
p5688
atp5689
Rp5690
sS'whois.silverbackdomains.com'
p5691
g1
((lp5692
S'silverbackdomainscomllc'
p5693
atp5694
Rp5695
sS'whois.leatherneckdomains.com'
p5696
g1
((lp5697
S'registercom'
p5698
aS'leatherneckdomainscomllc'
p5699
atp5700
Rp5701
sS'whois.ihs.com.tr'
p5702
g1
((lp5703
S'ihstelekominc'
p5704
atp5705
Rp5706
sS'whois.enom459.com'
p5707
g1
((lp5708
S'enom459incorporated'
p5709
atp5710
Rp5711
sS'whois.networksolutions.com'
p5712
g1
((lp5713
S'networksolutionsllc'
p5714
atp5715
Rp5716
sS'whois.tppinternet.com'
p5717
g1
((lp5718
S'tppdomainsptyltddbatppinternet'
p5719
aS'tppinternetptyltd'
p5720
atp5721
Rp5722
sS'whois.domainhawks.net'
p5723
g1
((lp5724
S'domainhawksnetllc'
p5725
atp5726
Rp5727
sS'whois.domainz.com'
p5728
g1
((lp5729
S'domainzlimited'
p5730
atp5731
Rp5732
sS'whois.easystreetdomain.com'
p5733
g1
((lp5734
S'easystreetdomainsllc'
p5735
aS'registercom'
p5736
atp5737
Rp5738
sS'whois.jumpshotdomainsllc.com'
p5739
g1
((lp5740
S'jumpshotdomainsllc'
p5741
atp5742
Rp5743
sS'whois.web.com'
p5744
g1
((lp5745
S'snappyregistrarcomllc'
p5746
aS'skykomishdomainscomllc'
p5747
aS'enom646inc'
p5748
aS'enom425incorporated'
p5749
aS'advaloremdomainsllc'
p5750
aS'glideslopedomainsllc'
p5751
aS'domainoriginalllc'
p5752
aS'belmontdomainscomllc'
p5753
aS'deletingnamezonellc'
p5754
aS'atomicdomainnamescomllc'
p5755
aS'domainsofvaluecomllc'
p5756
aS'jarheaddomainscomllc'
p5757
aS'dropextracominc'
p5758
aS'ethosdomainsllc'
p5759
aS'bigdipperdomainsllc'
p5760
aS'namepalcom8018inc'
p5761
aS'fairtradedomainsllc'
p5762
aS'enommxinc'
p5763
aS'1hostjapaninc'
p5764
aS'enom459incorporated'
p5765
aS'domainplacellc'
p5766
aS'masterofmydomainsnetllc'
p5767
aS'oldtowndomainscomllc'
p5768
aS'soyouwantadomaincomllc'
p5769
aS'gotodomainsllc'
p5770
aS'octopusdomainsnetllc'
p5771
aS'compuglobalhypermegacomllc'
p5772
aS'goserveyourdomaincomllc'
p5773
aS'enom393incorporated'
p5774
aS'godomaingocomllc'
p5775
aS'enom377incorporated'
p5776
aS'enom413incorporated'
p5777
aS'catchdeletingnamesllc'
p5778
aS'notsofamousnamescomllc'
p5779
aS'udomainnamecomllc'
p5780
aS'beartrapdomainscomllc'
p5781
aS'finegraindomainsllc'
p5782
aS'riptidedomainsllc'
p5783
aS'pdxprivatenamescomllc'
p5784
aS'fastballdomainsllc'
p5785
aS'slamdunkdomainsllc'
p5786
aS'atlanticdomainsllc'
p5787
aS'tigersharkdomainsllc'
p5788
aS'anessiainc'
p5789
aS'mvpdomainnamescomllc'
p5790
aS'enoma1inc'
p5791
aS'whiterhinodomainsllc'
p5792
aS'entertainmentnamesincorporated'
p5793
aS'namepalcom8009inc'
p5794
aS'enom1008inc'
p5795
aS'domaingoldzonellc'
p5796
aS'exclusivedomainfindllc'
p5797
aS'domainstopoverllc'
p5798
aS'bouncepassdomainsllc'
p5799
aS'enom1013inc'
p5800
aS'namearsenalcomllc'
p5801
aS'topshelfdomainsllc'
p5802
aS'searchnresqinc'
p5803
aS'domainshopllc'
p5804
aS'gatekeeperdomainsnetllc'
p5805
aS'sbsnamesincorporated'
p5806
aS'thirdroundnamesllc'
p5807
aS'enom421incorporated'
p5808
aS'domainsinthebagcomllc'
p5809
aS'enom661inc'
p5810
aS'enomxinc'
p5811
aS'dropcatchmarketplacellc'
p5812
aS'yourdomainllc'
p5813
aS'enom663inc'
p5814
aS'domaincirclellc'
p5815
aS'magnoliadomainsllc'
p5816
aS'namesexpressllc'
p5817
aS'raregemdomainsllc'
p5818
aS'namewinnerllc'
p5819
aS'sliceofheavendomainsllc'
p5820
aS'namegrabllc'
p5821
aS'frontstreetdomainscomllc'
p5822
aS'iconicnamesllc'
p5823
aS'coolbreezedomainsllc'
p5824
aS'majorleaguedomainsllc'
p5825
aS'domainsovereignscomllc'
p5826
aS'snoqulamiedomainscomllc'
p5827
aS'domaincollagellc'
p5828
aS'domainlocalellc'
p5829
aS'pacificdomainsllc'
p5830
aS'eunamesoregoncomllc'
p5831
aS'nameemperorcomllc'
p5832
aS'findyouadomaincomllc'
p5833
aS'indirectionidentitycorporation'
p5834
aS'domainsoforiginllc'
p5835
aS'touchdowndomainsllc'
p5836
aS'enom652inc'
p5837
aS'domainsnapperllc'
p5838
aS'noteworthydomainsllc'
p5839
aS'allworldnamescomllc'
p5840
aS'namepalcom8011'
p5841
aS'domainestaaquillc'
p5842
aS'sharkweekdomainsllc'
p5843
aS'bonamfortunamdomainsllc'
p5844
aS'layupdomainsllc'
p5845
aS'alldomainsllc'
p5846
aS'paintedponynamesllc'
p5847
aS'enom415incorporated'
p5848
aS'fushitarazuincorporated'
p5849
aS'threepointdomainsllc'
p5850
aS'domainintheholecomllc'
p5851
aS'enom371incorporated'
p5852
aS'namefindsourcellc'
p5853
aS'domainlandingzonellc'
p5854
aS'deepseadomainsllc'
p5855
aS'enom391incorporated'
p5856
aS'udamaincomllc'
p5857
aS'draftpickdomainsllc'
p5858
aS'oregonurlscomllc'
p5859
aS'enom672inc'
p5860
aS'entrustdomainsllc'
p5861
aS'duckbilleddomainscomllc'
p5862
aS'smallbusinessnamesandcertsincorporated'
p5863
aS'goldminedomainsllc'
p5864
aS'domainalacartellc'
p5865
aS'coralreefdomainsllc'
p5866
aS'domainyeticomllc'
p5867
aS'eztimesdomainsllc'
p5868
aS'domainhysteriacomllc'
p5869
aS'eastenddomainsllc'
p5870
aS'curveballdomainsllc'
p5871
aS'domainpickupllc'
p5872
aS'luckyelephantdomainsllc'
p5873
aS'eagleeyedomainsllc'
p5874
aS'fetchregistrarllc'
p5875
aS'enom1038inc'
p5876
aS'oldworldaliasescomllc'
p5877
aS'sssasssincorporated'
p5878
aS'dropoutletincorporated'
p5879
aS'enom407incorporated'
p5880
aS'enom1inc'
p5881
aS'namesnapllc'
p5882
aS'enom403incorporated'
p5883
aS'dancueinc'
p5884
aS'blisternetincorporated'
p5885
aS'dagnabitincorporated'
p5886
aS'postaldomainsincorporated'
p5887
aS'linedrivedomainsllc'
p5888
aS'freshbreweddomainscomllc'
p5889
aS'bestdropnamesllc'
p5890
aS'enom423incorporated'
p5891
aS'zigzagnamescomllc'
p5892
aS'empirestatedomainsinc'
p5893
aS'secondroundnamesllc'
p5894
aS'eurotrashnamescomllc'
p5895
aS'domainnamerootllc'
p5896
aS'pinkelephantdomainsllc'
p5897
aS'ripcurldomainsllc'
p5898
aS'domainsoverboardcomllc'
p5899
aS'enom5inc'
p5900
aS'drophubcominc'
p5901
aS'oregoneucomllc'
p5902
aS'blueangeldomainsllc'
p5903
aS'slowputtdomainsllc'
p5904
aS'domainstreetdirectcomllc'
p5905
aS'ripcorddomainsllc'
p5906
aS'namepalcom8021inc'
p5907
aS'enom431incorporated'
p5908
aS'namepalcom8017inc'
p5909
aS'whiteglovedomainsinc'
p5910
aS'enom451incorporated'
p5911
aS'sterlingdomainsllc'
p5912
aS'straight8domainsllc'
p5913
aS'domaincatcherllc'
p5914
aS'meganamesllc'
p5915
aS'enomateinc'
p5916
aS'enom437incorporated'
p5917
aS'thirdfloordnscomllc'
p5918
aS'circleofdomainsllc'
p5919
aS'domainsofthedaynetllc'
p5920
aS'enom453incorporated'
p5921
aS'wideleftdomainsllc'
p5922
aS'gradeadomainnamescomllc'
p5923
aS'shiningstardomainsllc'
p5924
aS'slowmotiondomainsllc'
p5925
aS'inlanddomainsllc'
p5926
aS'youdamaincomllc'
p5927
aS'namevolcanocomllc'
p5928
aS'enom1036inc'
p5929
aS'domainsofcoursecomllc'
p5930
aS'pararescuedomainscomllc'
p5931
aS'lionsharedomainsllc'
p5932
aS'enom1014inc'
p5933
aS'allearthdomainscomllc'
p5934
aS'dropfallcominc'
p5935
aS'1hostcanadainc'
p5936
aS'interlakenamescomllc'
p5937
aS'enom654inc'
p5938
aS'namesaplentyllc'
p5939
aS'snagyournamellc'
p5940
aS'lemonsharkdomainsllc'
p5941
aS'catchdomainsllc'
p5942
aS'klaatudomainscomllc'
p5943
aS'domainsexpressllc'
p5944
aS'oldtymedomainsllc'
p5945
aS'coolrivernamesllc'
p5946
aS'dropcatchingnamesllc'
p5947
aS'greenzonedomainsinc'
p5948
aS'victorynamesllc'
p5949
aS'enom1009inc'
p5950
aS'imminentdomainsnetllc'
p5951
aS'namepalcom8013inc'
p5952
aS'willamettenamescomllc'
p5953
aS'enom465incorporated'
p5954
aS'enom383incorporated'
p5955
aS'v12domainsllc'
p5956
aS'wildzebradomainsllc'
p5957
aS'columbianamescomllc'
p5958
aS'biglizarddomainscomllc'
p5959
aS'squidsailerdomainscomllc'
p5960
aS'domainsareforevernetllc'
p5961
aS'copperdomainnamesllc'
p5962
aS'savethenamecomllc'
p5963
aS'dropwalkcominc'
p5964
aS'baronofdomainscomllc'
p5965
aS'enomvinc'
p5966
aS'dropsavecominc'
p5967
aS'namesnapperllc'
p5968
aS'enom381incorporated'
p5969
aS'hangtendomainsllc'
p5970
aS'namesstopherellc'
p5971
aS'namepalcom8027'
p5972
aS'namepalcom8026'
p5973
aS'namepalcom8025'
p5974
aS'namepalcom8024'
p5975
aS'namepalcom8023'
p5976
aS'namepalcom8021'
p5977
aS'namepalcom8025inc'
p5978
aS'enom647inc'
p5979
aS'namepalcom8028'
p5980
aS'enom463incorporated'
p5981
aS'domainnameoriginllc'
p5982
aS'enom1034inc'
p5983
aS'enom443incorporated'
p5984
aS'aquariusdomainsllc'
p5985
aS'domainingorollc'
p5986
aS'namesourcellc'
p5987
aS'domainernamesllc'
p5988
aS'bravenamesinc'
p5989
aS'lakeodomainscomllc'
p5990
aS'domainsoufflecomllc'
p5991
aS'dropcatchauctionllc'
p5992
aS'domainlifestylellc'
p5993
aS'1hostgermanyinc'
p5994
aS'privatedomainsincorporated'
p5995
aS'backstopnamesllc'
p5996
aS'enom650inc'
p5997
aS'burnsidedomainscomllc'
p5998
aS'baracudadomainsllc'
p5999
aS'sitefrenzycomllc'
p6000
aS'enomnzinc'
p6001
aS'enom655inc'
p6002
aS'domainsurgeoncomllc'
p6003
aS'enom445incorporated'
p6004
aS'whitealligatordomainsllc'
p6005
aS'freedropzonellc'
p6006
aS'topleveldomainsllc'
p6007
aS'nameconnectionspotllc'
p6008
aS'winnamesllc'
p6009
aS'houseofdomainsllc'
p6010
aS'bullrundomainscomllc'
p6011
aS'enombrecorporation'
p6012
aS'namenellycorporation'
p6013
aS'leatherneckdomainscomllc'
p6014
aS'swordfishdomainsllc'
p6015
aS'thedomainsllc'
p6016
aS'nameselitellc'
p6017
aS'southnamesinc'
p6018
aS'enomauinc'
p6019
aS'adomainofyourowncomllc'
p6020
aS'yourdomaincasallc'
p6021
aS'magnatedomainsllc'
p6022
aS'hawthornedomainscomllc'
p6023
aS'bighouseservicesinc'
p6024
aS'domainsuccessllc'
p6025
aS'enomworldinc'
p6026
aS'namesalacartecomllc'
p6027
aS'namepalcom8004inc'
p6028
aS'enom1035inc'
p6029
aS'enom449incorporated'
p6030
aS'toptierdomainsllc'
p6031
aS'rallycrydomainsllc'
p6032
aS'dropweekcominc'
p6033
aS'protondomainscomllc'
p6034
aS'deschutesdomainscomllc'
p6035
aS'trafficnamesincorporated'
p6036
aS'betterthanaveragedomainscomllc'
p6037
aS'gozerdomainscomllc'
p6038
aS'dropcatchminingllc'
p6039
aS'sammamishdomainscomllc'
p6040
aS'cloudbreakdomainsllc'
p6041
aS'bonzaidomainsllc'
p6042
aS'namesourcedomainsllc'
p6043
aS'enom429incorporated'
p6044
aS'deepwaterdomainsllc'
p6045
aS'namepalcom8018'
p6046
aS'namepalcom8019'
p6047
aS'namepalcom8016'
p6048
aS'namepalcom8017'
p6049
aS'namepalcom8014'
p6050
aS'namepalcom8015'
p6051
aS'namepalcom8012'
p6052
aS'namepalcom8013'
p6053
aS'namepalcom8010'
p6054
aS'snapsourcellc'
p6055
aS'namepalcom8008inc'
p6056
aS'dropweekcom'
p6057
aS'namestopllc'
p6058
aS'endeavourdomainsllc'
p6059
aS'freedivedomainsllc'
p6060
aS'targeteddropcatchllc'
p6061
aS'enom399incorporated'
p6062
aS'finduanamecomllc'
p6063
aS'domaincapitancomllc'
p6064
aS'traveldomainsincorporated'
p6065
aS'domainrougeinc'
p6066
aS'europeanconnectiononlinecomllc'
p6067
aS'silverbackdomainscomllc'
p6068
aS'enom379incorporated'
p6069
aS'streamlinedomainsllc'
p6070
aS'golddomainnamesllc'
p6071
aS'enom385incorporated'
p6072
aS'enomskyinc'
p6073
aS'jumpshotdomainsllc'
p6074
aS'domainsecurellc'
p6075
aS'namepanthercomllc'
p6076
aS'enom461incorporated'
p6077
aS'namecatchzonellc'
p6078
aS'domainbazaarllc'
p6079
aS'dropcatchlandingspotllc'
p6080
aS'soaringeagledomainsllc'
p6081
aS'domainjunglenetllc'
p6082
aS'enom375incorporated'
p6083
aS'enom441incorporated'
p6084
aS'domainparkblockcomllc'
p6085
aS'enom409incorporated'
p6086
aS'namepalcom8006inc'
p6087
aS'zincdomainnamesllc'
p6088
aS'flancrestdomainscomllc'
p6089
aS'sugarcubedomainsllc'
p6090
aS'domaininthebasketcomllc'
p6091
aS'devildogdomainscomllc'
p6092
aS'namepalcom8023inc'
p6093
aS'desertsanddomainsllc'
p6094
aS'iserveyourdomaincomllc'
p6095
aS'enom1010inc'
p6096
aS'heavydomainsnetllc'
p6097
aS'enom417incorporated'
p6098
aS'portlandnamescomllc'
p6099
aS'toppicknamesllc'
p6100
aS'domainrakernetllc'
p6101
aS'neworderdomainsllc'
p6102
aS'enom435incorporated'
p6103
aS'domainsoftheworldnetllc'
p6104
aS'domainsalsacomllc'
p6105
aS'domainarmadacomllc'
p6106
aS'domaindropllc'
p6107
aS'nameiconllc'
p6108
aS'enom4inc'
p6109
aS'pearlnamingservicecomllc'
p6110
aS'enom455incorporated'
p6111
aS'veritasdomainsllc'
p6112
aS'silverdomainnamesllc'
p6113
aS'microbreweddomainscomllc'
p6114
aS'eunamefloodcomllc'
p6115
aS'enomgmpservicesinc'
p6116
aS'1hostaustraliainc'
p6117
aS'namecatchllc'
p6118
aS'mypreciousdomaincomllc'
p6119
aS'enomcorporateinc'
p6120
aS'namecroccomllc'
p6121
aS'nerdnamescorporation'
p6122
aS'enom1033inc'
p6123
aS'domaingrabberllc'
p6124
aS'namethreadcorporation'
p6125
aS'namepalcom8028inc'
p6126
aS'midwestdomainsllc'
p6127
aS'1hostchinainc'
p6128
aS'internetinternalaffairscorporation'
p6129
aS'widerightdomainsllc'
p6130
aS'markbarkerincorporated'
p6131
aS'moonshotdomainsllc'
p6132
aS'enom387incorporated'
p6133
aS'domainsproutscomllc'
p6134
aS'1hostkoreainc'
p6135
aS'turbonamesllc'
p6136
aS'longdrivedomainsllc'
p6137
aS'enom666inc'
p6138
aS'domainsourcellc'
p6139
aS'chocolatechipdomainsllc'
p6140
aS'sicherregisterincorporated'
p6141
aS'goldenfinddomainsllc'
p6142
aS'enom469incorporated'
p6143
aS'santiamdomainscomllc'
p6144
aS'domainamaniacomllc'
p6145
aS'pipelinedomainsllc'
p6146
aS'namefingercomllc'
p6147
aS'atlanticfriendnamescomllc'
p6148
aS'northnamesinc'
p6149
aS'namepalcom8016inc'
p6150
aS'enom2inc'
p6151
aS'easystreetdomainsllc'
p6152
aS'tradewindsnamesllc'
p6153
aS'zoneofdomainsllc'
p6154
aS'rainydaydomainscomllc'
p6155
aS'freefalldomainsllc'
p6156
aS'chipshotdomainsllc'
p6157
aS'enom1037inc'
p6158
aS'cloudninedomainllc'
p6159
aS'enom447incorporated'
p6160
aS'enom427incorporated'
p6161
aS'deepdivedomainsllc'
p6162
aS'nominfinitumincorporated'
p6163
aS'domainhawksnetllc'
p6164
aS'freespiritdomainsllc'
p6165
aS'namesonthedropllc'
p6166
aS'hangingcurvedomainsllc'
p6167
aS'asiadomainsincorporated'
p6168
aS'domaincomesaroundcomllc'
p6169
aS'namepalcom8024inc'
p6170
aS'soldierofonedomainscomllc'
p6171
aS'alethiadomainsllc'
p6172
aS'domaintimemachinecomllc'
p6173
aS'domaingazellecomllc'
p6174
aS'domaintoorderllc'
p6175
aS'domainsailsnetllc'
p6176
aS'dropjumpcominc'
p6177
aS'millennialnamesllc'
p6178
aS'euturbocomllc'
p6179
aS'namepalcom8009'
p6180
aS'namepalcom8008'
p6181
aS'sourceddomainsllc'
p6182
aS'namepalcom8004'
p6183
aS'namepalcom8007'
p6184
aS'namepalcom8006'
p6185
aS'namepalcom8001'
p6186
aS'namepalcom8002'
p6187
aS'enomtooinc'
p6188
aS'findyouanamecomllc'
p6189
aS'firstroundnamesllc'
p6190
aS'wildbunchdomainsllc'
p6191
aS'domainsetcllc'
p6192
aS'domainroyalecomllc'
p6193
aS'treasuretrovedomainsllc'
p6194
aS'gungagalungacorporation'
p6195
aS'enom397incorporated'
p6196
atp6197
Rp6198
sS'whois.jungbo.net'
p6199
g1
((lp6200
S'jungbonetcoltd'
p6201
atp6202
Rp6203
sS'whois.webmasters.com'
p6204
g1
((lp6205
S'nettunercorpdbawebmasterscom'
p6206
atp6207
Rp6208
sS'whois.ethosdomains.com'
p6209
g1
((lp6210
S'ethosdomainsllc'
p6211
atp6212
Rp6213
sS'whois.namevolcano.com'
p6214
g1
((lp6215
S'namevolcanocomllc'
p6216
atp6217
Rp6218
sS'whois.gamefornames.com'
p6219
g1
((lp6220
S'gamefornamesinc'
p6221
atp6222
Rp6223
sS'whois.enom1038.com'
p6224
g1
((lp6225
S'enom1038inc'
p6226
atp6227
Rp6228
sS'whois.007names.com'
p6229
g1
((lp6230
S'007namesinc'
p6231
atp6232
Rp6233
sS'whois.nicline.com'
p6234
g1
((lp6235
S'arsysinternetsldbaniclinecom'
p6236
atp6237
Rp6238
sS'whois.lakeodomains.com'
p6239
g1
((lp6240
S'lakeodomainscomllc'
p6241
atp6242
Rp6243
sS'whois.inname.net'
p6244
g1
((lp6245
S'webagenturatinternetservicesgmbhdbadomainnameat'
p6246
atp6247
Rp6248
sS'whois.nominate.net'
p6249
g1
((lp6250
S'bbonlineltd'
p6251
aS'bbonline'
p6252
atp6253
Rp6254
sS'whois.enom405.com'
p6255
g1
((lp6256
S'enom405incorporated'
p6257
atp6258
Rp6259
sS'whois.domaincontext.com'
p6260
g1
((lp6261
S'domaincontextinc'
p6262
atp6263
Rp6264
sS'whois.volusion.com'
p6265
g1
((lp6266
S'volusioninc'
p6267
atp6268
Rp6269
sS'whois.enomx.com'
p6270
g1
((lp6271
S'enomxinc'
p6272
atp6273
Rp6274
sS'whois.enomate.com'
p6275
g1
((lp6276
S'enomateinc'
p6277
atp6278
Rp6279
sS'whois.domainnamebridge.com'
p6280
g1
((lp6281
S'domainnamebridgeinc'
p6282
atp6283
Rp6284
sS'whois.1hostaustralia.com'
p6285
g1
((lp6286
S'1hostaustraliainc'
p6287
atp6288
Rp6289
sS'whois.rainydaydomains.com'
p6290
g1
((lp6291
S'rainydaydomainscomllc'
p6292
atp6293
Rp6294
sS'whois.domainmap.com'
p6295
g1
((lp6296
S'premierenamecainc'
p6297
atp6298
Rp6299
sS'whois.vodien.com'
p6300
g1
((lp6301
S'vodieninternetsolutionspteltd'
p6302
atp6303
Rp6304
sS'whois.advancedregistrar.com'
p6305
g1
((lp6306
S'netearthoneincdbanetearth'
p6307
aS'netearthoneinc'
p6308
atp6309
Rp6310
sS'whois.domainsexpressllc.com'
p6311
g1
((lp6312
S'domainsexpressllc'
p6313
atp6314
Rp6315
sS'whois.eurodns.com'
p6316
g1
((lp6317
S'eurodnssa'
p6318
atp6319
Rp6320
sS'whois.ripcurldomains.com'
p6321
g1
((lp6322
S'ripcurldomainsllc'
p6323
atp6324
Rp6325
sS'whois.coolrivernames.com'
p6326
g1
((lp6327
S'coolrivernamesllc'
p6328
aS'registercom'
p6329
atp6330
Rp6331
sS'whois.namesalacarte.com'
p6332
g1
((lp6333
S'namesalacartecomllc'
p6334
atp6335
Rp6336
sS'whois.alpinedomains.com'
p6337
g1
((lp6338
S'alpinedomainsinc'
p6339
atp6340
Rp6341
sS'whois.papaki.gr'
p6342
g1
((lp6343
S'papakiltd'
p6344
atp6345
Rp6346
sS'whois.enom2.com'
p6347
g1
((lp6348
S'enom2inc'
p6349
atp6350
Rp6351
sS'whois.domainsetcllc.com'
p6352
g1
((lp6353
S'domainsetcllc'
p6354
atp6355
Rp6356
sS'whois.domainsareforever.net'
p6357
g1
((lp6358
S'domainsareforevernetllc'
p6359
atp6360
Rp6361
sS'whois.sicherregister.com'
p6362
g1
((lp6363
S'sicherregisterincorporated'
p6364
atp6365
Rp6366
sS'whois.epik.com'
p6367
g1
((lp6368
S'epikinc'
p6369
aS'mymanagerinc'
p6370
aS'gonamecominc'
p6371
atp6372
Rp6373
sS'whois.hangingcurvedomainsllc.com'
p6374
g1
((lp6375
S'hangingcurvedomainsllc'
p6376
atp6377
Rp6378
sS'whois.ledl.net'
p6379
g1
((lp6380
S'ledlnetgmbh'
p6381
atp6382
Rp6383
sS'whois.enom656.com'
p6384
g1
((lp6385
S'enom656inc'
p6386
atp6387
Rp6388
s.